(lp0
S'Brise indienne'
p1
aF3.3
aI46
a(lp2
(lp3
S'2.0'
p4
aS'cl de'
p5
aS'cognac'
p6
aa(lp7
S'2.0'
p8
aS'cl de'
p9
aS'jus de citrons'
p10
aa(lp11
S'2.0'
p12
aS'cl de'
p13
aS'liqueur de menthe verte (get 27)'
p14
aa(lp15
S'1.0'
p16
aS'cl de'
p17
aS"jus d'oranges"
p18
aa(lp19
S'1.0'
p20
aS'cl de'
p21
aS'tonic (schweppes)'
p22
aaa.