(lp0
S'Caf\xc3\xa9 glac\xc3\xa9'
p1
aF2.9
aI109
a(lp2
(lp3
S'2.0'
p4
aS'cl de'
p5
aS'cognac'
p6
aa(lp7
S'2.0'
p8
aS'cl de'
p9
aS'cr\xc3\xa8me de vanille'
p10
aa(lp11
S'6.0'
p12
aS'cl de'
p13
aS'caf\xc3\xa9'
p14
aa(lp15
S'3.0'
p16
aS'cl de'
p17
aS'cr\xc3\xa8me fra\xc3\xaeche liquide'
p18
aaa.