(lp0
S'Darkvador'
p1
aF3.3
aI4
a(lp2
(lp3
S'5.0'
p4
aS'cl de'
p5
aS'vodka'
p6
aa(lp7
S'3.0'
p8
aS'cl de'
p9
aS'jus de citrons'
p10
aa(lp11
S'2.0'
p12
aS'cl de'
p13
aS'cr\xc3\xa8me de cassis'
p14
aa(lp15
S'4.0'
p16
aS'cl de'
p17
aS'jus de cranberry (canneberges)'
p18
aa(lp19
S'4.0'
p20
aS'cl de'
p21
aS'jus de pommes'
p22
aa(lp23
S'2.0'
p24
aS'cl de'
p25
aS'sirop de noisette'
p26
aa(lp27
S'60.0'
p28
aS'grammes de'
p29
aS'cassis'
p30
aaa.