(lp0
S'Amazonia'
p1
aF3.4
aI25
a(lp2
(lp3
S'16.0'
p4
aS'cl de'
p5
aS'jus de mangues'
p6
aa(lp7
S'2.0'
p8
aS'cl de'
p9
aS'jus de citrons verts'
p10
aa(lp11
S'4.0'
p12
aS'cl de'
p13
aS'cura\xc3\xa7ao bleu'
p14
aa(lp15
S'2.0'
p16
aS'cl de'
p17
aS'rhum ambr\xc3\xa9'
p18
aaa.