(lp0
S'Bissap'
p1
aF3.0
aI22
a(lp2
(lp3
S'2.0'
p4
aS'tasses de'
p5
aS'bissap'
p6
aa(lp7
S'2.5'
p8
aS"litres d'"
p9
aS'eau'
p10
aa(lp11
S'100.0'
p12
aS'grammes de'
p13
aS'sucre'
p14
aa(lp15
S'2.0'
p16
aS'sachets de'
p17
aS'sucre vanille'
p18
aa(lp19
S'1.0'
p20
aS'pinc\xc3\xa9e de'
p21
aS'muscade'
p22
aa(lp23
S'2.0'
p24
aS"cuill\xc3\xa8res \xc3\xa0 soupe d'"
p25
aS"eau de fleur d'oranger"
p26
aaa.