(lp0
S'Portus Cale'
p1
aF3.5
aI2
a(lp2
(lp3
S'0.2'
p4
aS'de'
p5
aS'schrubb'
p6
aa(lp7
S'0.8'
p8
aS'de'
p9
aS'cola (coca cola, pepsi)'
p10
aa(lp11
S'0.5'
p12
aS'cl de'
p13
aS'jus de citrons verts'
p14
aaa.