(lp0
S"Vin d'oranges"
p1
aF4.0
aI10
a(lp2
(lp3
S'0.15'
p4
aS'litres de'
p5
aS'vin blanc'
p6
aa(lp7
S'None'
p8
aS'zestes de 3'
p9
aS'oranges'
p10
aa(lp11
S'0.1'
p12
aS'cuill\xc3\xa8re \xc3\xa0 caf\xc3\xa9 de'
p13
aS'caf\xc3\xa9 soluble'
p14
aa(lp15
S'20.0'
p16
aS'grammes de'
p17
aS'sucre'
p18
aa(lp19
S'1.0'
p20
aS"cl d'"
p21
aS'alcool \xc3\xa0 45\xc2\xb0'
p22
aa(lp23
S'0.1'
p24
aS'None'
p25
aS'citron'
p26
aaa.