(lp0
S'Vodcaf\xc3\xa9tini'
p1
aF4.0
aI1
a(lp2
(lp3
S'4.0'
p4
aS'cl de'
p5
aS'vermouth blanc (martini, cinzano)'
p6
aa(lp7
S'4.0'
p8
aS'cl de'
p9
aS'vodka'
p10
aa(lp11
S'1.0'
p12
aS'cl de'
p13
aS'liqueur de caf\xc3\xa9 (kahlua, marie brizard)'
p14
aa(lp15
S'1.0'
p16
aS'pinc\xc3\xa9es de'
p17
aS'caf\xc3\xa9 en poudre'
p18
aa(lp19
S'1.0'
p20
aS'pinc\xc3\xa9es de'
p21
aS'caf\xc3\xa9 en grains'
p22
aaa.