(lp0
S'Kamaino'
p1
aF4.0
aI2
a(lp2
(lp3
S'None'
p4
aS'jus'
p5
aS"jus d'ananas"
p6
aa(lp7
S'4.0'
p8
aS'cl de'
p9
aS'rhum blanc'
p10
aa(lp11
S'2.0'
p12
aS'cl de'
p13
aS'triple sec (cointreau, grand marnier)'
p14
aa(lp15
S'2.0'
p16
aS'cl de'
p17
aS'cr\xc3\xa8me de bananes'
p18
aaa.