(lp0
S'Pousse melon'
p1
aF3.1
aI17
a(lp2
(lp3
S'2.0'
p4
aS'cl de'
p5
aS'pousse rapi\xc3\xa8re'
p6
aa(lp7
S'2.0'
p8
aS'cl de'
p9
aS'midori'
p10
aa(lp11
S'4.0'
p12
aS'cl de'
p13
aS'floc de gascogne blanc'
p14
aaa.