(lp0
S'Fulgent cocktail'
p1
aF4.0
aI1
a(lp2
(lp3
S'0.5'
p4
aS'cl de'
p5
aS'cr\xc3\xa8me fra\xc3\xaeche liquide'
p6
aa(lp7
S'4.0'
p8
aS'cl de'
p9
aS'tequila'
p10
aa(lp11
S'0.5'
p12
aS'cl de'
p13
aS'amaretto'
p14
aa(lp15
S'2.0'
p16
aS'cl de'
p17
aS'chartreuse verte'
p18
aaa.