(lp0
S'Caipirinha de Maracuja'
p1
aF3.7
aI24
a(lp2
(lp3
S'1.0'
p4
aS'None'
p5
aS'fruit de la passion (maracuja)'
p6
aa(lp7
S'2.0'
p8
aS'cl de'
p9
aS'sirop de sucre de canne'
p10
aa(lp11
S'6.0'
p12
aS'cl de'
p13
aS'cacha\xc3\xa7a'
p14
aaa.