(lp0
S'Detox C'
p1
aF3.5
aI2
a(lp2
(lp3
S'4.0'
p4
aS'cl de'
p5
aS'jus de citrons'
p6
aa(lp7
S'4.0'
p8
aS'cl de'
p9
aS"sirop d'\xc3\xa9rable"
p10
aa(lp11
S'1.0'
p12
aS'pinc\xc3\xa9e de'
p13
aS'poivre de cayenne'
p14
aa(lp15
S'30.0'
p16
aS"cl d'"
p17
aS'eau'
p18
aaa.