(lp0
S'Chocolat chaud au lait de coco'
p1
aF3.3
aI3
a(lp2
(lp3
S'20.0'
p4
aS'cl de'
p5
aS'lait concentr\xc3\xa9 sucr\xc3\xa9'
p6
aa(lp7
S'75.0'
p8
aS'cl de'
p9
aS'lait'
p10
aa(lp11
S'40.0'
p12
aS'cl de'
p13
aS'lait de coco'
p14
aa(lp15
S'1.0'
p16
aS'gousse de'
p17
aS'vanille'
p18
aaa.