(lp0
S'Oatmeal Cookie'
p1
aF3.6
aI8
a(lp2
(lp3
S'6.0'
p4
aS'cl de'
p5
aS'j\xc3\x83\xc2\xa4germeister'
p6
aa(lp7
S'6.0'
p8
aS'cl de'
p9
aS'liqueur de caf\xc3\x83\xc2\xa9 (kahlua, marie brizard)'
p10
aa(lp11
S'6.0'
p12
aS'cl de'
p13
aS'cr\xc3\x83\xc2\xa8me de whisky (baileys)'
p14
aaa.