(lp0
S'Vodtagada'
p1
aF4.1
aI20
a(lp2
(lp3
S'0.5'
p4
aS'de'
p5
aS'vodka'
p6
aa(lp7
S'0.5'
p8
aS'de'
p9
aS'cr\xc3\xa8me de whisky (baileys)'
p10
aa(lp11
S'1.0'
p12
aS'None'
p13
aS'fraise tagada'
p14
aaa.