(lp0
S'Margarita melancia'
p1
aF3.4
aI69
a(lp2
(lp3
S'6.0'
p4
aS'cl de'
p5
aS'tequila'
p6
aa(lp7
S'3.0'
p8
aS'cl de'
p9
aS'sirop de past\xc3\xa8que (watermelon)'
p10
aa(lp11
S'3.0'
p12
aS'cl de'
p13
aS'jus de citrons verts'
p14
aa(lp15
S'2.0'
p16
aS'cl de'
p17
aS'triple sec (cointreau, grand marnier)'
p18
aaa.