(lp0
S'Le v\xc3\xa9t\xc3\xa9ran magistral'
p1
aF4.0
aI3
a(lp2
(lp3
S'4.0'
p4
aS'cl de'
p5
aS'gin'
p6
aa(lp7
S'1.0'
p8
aS'cl de'
p9
aS'sirop de jasmin'
p10
aa(lp11
S'2.0'
p12
aS'cl de'
p13
aS'jus de cranberry (canneberges)'
p14
aa(lp15
S'1.0'
p16
aS'cl de'
p17
aS'jus de citrons verts'
p18
aa(lp19
S'2.0'
p20
aS'cl de'
p21
aS'pur\xc3\xa9e de fruits rouges'
p22
aaa.