(lp0
S'Drambuito'
p1
aF2.0
aI1
a(lp2
(lp3
S'2.0'
p4
aS'cl de'
p5
aS'jus de citrons verts'
p6
aa(lp7
S'4.0'
p8
aS'cl de'
p9
aS'drambuie'
p10
aa(lp11
S'2.0'
p12
aS'cl de'
p13
aS'rhum cubain'
p14
aa(lp15
S'6.0'
p16
aS'zeste de'
p17
aS'feuilles de menthe'
p18
aaa.