(lp0
S'Moorea'
p1
aF4.2
aI6
a(lp2
(lp3
S'4.0'
p4
aS'cl de'
p5
aS'jus de pamplemousses'
p6
aa(lp7
S'3.0'
p8
aS'cl de'
p9
aS'cr\xc3\xa8me de fruit de la passion'
p10
aa(lp11
S'2.0'
p12
aS'cl de'
p13
aS'triple sec (cointreau, grand marnier)'
p14
aa(lp15
S'1.0'
p16
aS'cl de'
p17
aS'jus de citrons'
p18
aaa.