(lp0
S'Golden Green'
p1
aF4.3
aI3
a(lp2
(lp3
S'1.0'
p4
aS'cl de'
p5
aS'vodka'
p6
aa(lp7
S'1.0'
p8
aS'cl de'
p9
aS'liqueur mandarine napol\xc3\xa9on'
p10
aa(lp11
S'1.0'
p12
aS'cl de'
p13
aS'chartreuse verte'
p14
aaa.