(lp0
S'Le Mino'
p1
aF4.0
aI9
a(lp2
(lp3
S'4.0'
p4
aS'cl de'
p5
aS'rhum cubain'
p6
aa(lp7
S'2.0'
p8
aS'cl de'
p9
aS'liqueur de pommes (manzana, manzanita)'
p10
aa(lp11
S'0.5'
p12
aS'None'
p13
aS'citrons vert'
p14
aa(lp15
S'1.0'
p16
aS'cuill\xc3\xa8re de'
p17
aS'sucre'
p18
aa(lp19
S'1.0'
p20
aS'pinc\xc3\xa9es de'
p21
aS'menthe'
p22
aa(lp23
S'1.0'
p24
aS'trait de'
p25
aS'cura\xc3\xa7ao bleu'
p26
aa(lp27
S'9.0'
p28
aS'cl de'
p29
aS'limonade (soda, sprite, 7up)'
p30
aaa.