(lp0
S'Hypocras au geni\xc3\xa8vre'
p1
aF3.8
aI5
a(lp2
(lp3
S'50.0'
p4
aS'grammes de'
p5
aS'baies de geni\xc3\xa8vre'
p6
aa(lp7
S'0.5'
p8
aS'gousse de'
p9
aS'vanille'
p10
aa(lp11
S'1.0'
p12
aS'litres de'
p13
aS'vin blanc'
p14
aa(lp15
S'0.5'
p16
aS'grammes de'
p17
aS'safran'
p18
aa(lp19
S'45.0'
p20
aS"grammes d'"
p21
aS'alcool \xc3\xa0 90\xc2\xb0'
p22
aa(lp23
S'75.0'
p24
aS'grammes de'
p25
aS'sucre'
p26
aaa.