(lp0
S"Ratafia d'oeillet"
p1
aF3.3
aI3
a(lp2
(lp3
S'500.0'
p4
aS"grammes de p\xc3\xa9tales d'"
p5
aS'oeillets'
p6
aa(lp7
S'20.0'
p8
aS'grammes de'
p9
aS'clous de girofle'
p10
aa(lp11
S'90.0'
p12
aS'cl de'
p13
aS'sirop de sucre de canne'
p14
aa(lp15
S'3.0'
p16
aS'litres de'
p17
aS'vodka'
p18
aa(lp19
S'20.0'
p20
aS'grammes de'
p21
aS'cannelle'
p22
aaa.