(lp0
S"Caribbean's Souvenir"
p1
aF2.4
aI5
a(lp2
(lp3
S'20.0'
p4
aS'cl de'
p5
aS'jus de melons'
p6
aa(lp7
S'0.5'
p8
aS'bouteille de'
p9
aS'jus de fruit de la passion (maracuja)'
p10
aa(lp11
S'0.5'
p12
aS'cl de'
p13
aS'rhum ambr\xc3\xa9'
p14
aa(lp15
S'1.0'
p16
aS'louche de'
p17
aS'liqueur de mangues'
p18
aa(lp19
S'1.0'
p20
aS'cl de'
p21
aS'sirop de citron vert'
p22
aa(lp23
S'1.0'
p24
aS'cl de'
p25
aS'sirop de bananes'
p26
aa(lp27
S'1.0'
p28
aS'sachet de'
p29
aS'sucre vanill\xc3\xa9'
p30
aa(lp31
S'10.0'
p32
aS'cl de'
p33
aS'cr\xc3\xa8me fra\xc3\xaeche liquide'
p34
aaa.