(lp0
S'Sexy cocktail'
p1
aF3.2
aI112
a(lp2
(lp3
S'4.0'
p4
aS'cl de'
p5
aS'calvados'
p6
aa(lp7
S'1.0'
p8
aS'cl de'
p9
aS'sirop de gingembre'
p10
aa(lp11
S'1.0'
p12
aS'cl de'
p13
aS'jus de citrons'
p14
aaa.