(lp0
S'Grenouille paf (Paf la grenouille)'
p1
aF3.8
aI5
a(lp2
(lp3
S'0.666666666667'
p4
aS'de'
p5
aS'tonic (schweppes)'
p6
aa(lp7
S'0.333333333333'
p8
aS'de'
p9
aS'vodka'
p10
aa(lp11
S'1.0'
p12
aS'cl de'
p13
aS'jus de citrons'
p14
aa(lp15
S'0.5'
p16
aS'cl de'
p17
aS'cura\xc3\xa7ao bleu'
p18
aaa.