(lp0
S'Anisette'
p1
aF3.5
aI6
a(lp2
(lp3
S'50.0'
p4
aS"grammes d'"
p5
aS'anis'
p6
aa(lp7
S'1.0'
p8
aS'b\xc3\xa2ton de'
p9
aS'cannelle'
p10
aa(lp11
S'2.0'
p12
aS'grammes de'
p13
aS'macis broy\xc3\xa9'
p14
aa(lp15
S'25.0'
p16
aS'graines de'
p17
aS'coriandre'
p18
aa(lp19
S'2.0'
p20
aS'None'
p21
aS'clous de girofle'
p22
aa(lp23
S'1.0'
p24
aS"zeste d'"
p25
aS'oranges'
p26
aa(lp27
S'1.0'
p28
aS"litre d'"
p29
aS'alcool \xc3\xa0 45\xc2\xb0'
p30
aa(lp31
S'1.2'
p32
aS'kilos de'
p33
aS'sucre'
p34
aa(lp35
S'1.0'
p36
aS"litre d'"
p37
aS'eau'
p38
aaa.