(lp0
S'Red bubbles'
p1
aF4.0
aI1
a(lp2
(lp3
S'4.0'
p4
aS'cuill\xc3\xa8res \xc3\xa0 caf\xc3\xa9 de'
p5
aS'tapioca'
p6
aa(lp7
S'None'
p8
aS'None'
p9
aS'colorant alimentaire'
p10
aa(lp11
S'3.0'
p12
aS'cuill\xc3\xa8res \xc3\xa0 soupe de'
p13
aS"sirop d'agave"
p14
aa(lp15
S'20.0'
p16
aS'cl de'
p17
aS'th\xc3\xa9 noir'
p18
aa(lp19
S'250.0'
p20
aS'grammes de'
p21
aS'framboises'
p22
aa(lp23
S'200.0'
p24
aS'grammes de'
p25
aS'fraises'
p26
aa(lp27
S'45.0'
p28
aS'cl de'
p29
aS'lait'
p30
aa(lp31
S'1.0'
p32
aS'boule de'
p33
aS'sorbet de citron vert'
p34
aa(lp35
S'5.0'
p36
aS'feuilles de'
p37
aS'menthe'
p38
aaa.