(lp0
S'Strawberry margarita'
p1
aF3.4
aI112
a(lp2
(lp3
S'3.0'
p4
aS'cl de'
p5
aS'tequila'
p6
aa(lp7
S'1.5'
p8
aS'cl de'
p9
aS'triple sec (cointreau, grand marnier)'
p10
aa(lp11
S'1.5'
p12
aS'cl de'
p13
aS'liqueur de fraises'
p14
aa(lp15
S'4.5'
p16
aS'cl de'
p17
aS'jus de citrons'
p18
aa(lp19
S'1.0'
p20
aS"blanc d'"
p21
aS'oeufs'
p22
aa(lp23
S'4.0'
p24
aS'None'
p25
aS'fraises'
p26
aaa.