(lp0
S'Ombre du lotus'
p1
aF3.5
aI2
a(lp2
(lp3
S'2.0'
p4
aS'dose de'
p5
aS'cr\xc3\xa8me de whisky (baileys)'
p6
aa(lp7
S'2.0'
p8
aS'doses de'
p9
aS'lait de coco'
p10
aa(lp11
S'2.0'
p12
aS'doses de'
p13
aS'lait'
p14
aa(lp15
S'1.0'
p16
aS'dose de'
p17
aS'cr\xc3\xa8me de cassis'
p18
aaa.