(lp0
S'Peppermint pick me up'
p1
aF3.0
aI2
a(lp2
(lp3
S'None'
p4
aS'None'
p5
aS'cr\xc3\xa8me chantilly'
p6
aa(lp7
S'4.0'
p8
aS'cl de'
p9
aS'liqueur de menthe verte (get 27)'
p10
aa(lp11
S'50.0'
p12
aS'grammes de'
p13
aS'cr\xc3\xa8me fra\xc3\xaeche liquide'
p14
aa(lp15
S'20.0'
p16
aS'cl de'
p17
aS'caf\xc3\xa9'
p18
aaa.