(lp0
S'Alys\xc3\xa9e'
p1
aF3.4
aI25
a(lp2
(lp3
S'3.5'
p4
aS'cl de'
p5
aS'cognac'
p6
aa(lp7
S'1.5'
p8
aS'cl de'
p9
aS'jus de fruit de la passion (maracuja)'
p10
aa(lp11
S'1.5'
p12
aS'cl de'
p13
aS'liqueur mandarine napol\xc3\xa9on'
p14
aa(lp15
S'0.5'
p16
aS'cl de'
p17
aS'jus de citrons'
p18
aaa.