(lp0
S'Uachtar \xc3\xa9ireann'
p1
aF4.2
aI9
a(lp2
(lp3
S'4.0'
p4
aS'cl de'
p5
aS'cr\xc3\xa8me de whisky (baileys)'
p6
aa(lp7
S'2.0'
p8
aS'cl de'
p9
aS'cura\xc3\xa7ao bleu'
p10
aa(lp11
S'4.0'
p12
aS'cl de'
p13
aS'liqueur de coco (cocogif, malibu)'
p14
aa(lp15
S'2.0'
p16
aS'cl de'
p17
aS'lait'
p18
aa(lp19
S'1.0'
p20
aS'pinc\xc3\xa9e de'
p21
aS'cannelle'
p22
aaa.