(lp0
S'Sorbet de champagne'
p1
aF3.5
aI4
a(lp2
(lp3
S'None'
p4
aS'None'
p5
aS'framboises'
p6
aa(lp7
S'15.0'
p8
aS"cl d'"
p9
aS'eau'
p10
aa(lp11
S'1.0'
p12
aS'cuill\xc3\xa8re \xc3\xa0 caf\xc3\xa9 de'
p13
aS'jus de citrons'
p14
aa(lp15
S'150.0'
p16
aS'grammes de'
p17
aS'sucre'
p18
aa(lp19
S'50.0'
p20
aS'cl de'
p21
aS'champagne'
p22
aaa.