(lp0
S'Alaska Ice Tea'
p1
aF3.2
aI134
a(lp2
(lp3
S'2.0'
p4
aS'cl de'
p5
aS'cura\xc3\xa7ao bleu'
p6
aa(lp7
S'2.0'
p8
aS'cl de'
p9
aS'triple sec (cointreau, grand marnier)'
p10
aa(lp11
S'2.0'
p12
aS'cl de'
p13
aS'rhum blanc'
p14
aa(lp15
S'2.0'
p16
aS'cl de'
p17
aS'vodka'
p18
aa(lp19
S'2.0'
p20
aS'cl de'
p21
aS'gin'
p22
aaa.