(lp0
S'Easter Flip'
p1
aF2.9
aI9
a(lp2
(lp3
S'2.0'
p4
aS'cl de'
p5
aS'liqueur de cacao blanc'
p6
aa(lp7
S'1.0'
p8
aS"jaune d'"
p9
aS'oeufs'
p10
aa(lp11
S'1.0'
p12
aS'cl de'
p13
aS'rhum ambr\xc3\xa9'
p14
aa(lp15
S'4.0'
p16
aS'cl de'
p17
aS'porto rouge'
p18
aaa.