(lp0
S'Guignolet'
p1
aF3.1
aI189
a(lp2
(lp3
S'1.0'
p4
aS'verre \xc3\xa0 liqueur de'
p5
aS'kirsch'
p6
aa(lp7
S'50.0'
p8
aS"cl d'"
p9
aS'alcool de fruits'
p10
aa(lp11
S'100.0'
p12
aS'cl de'
p13
aS'vin'
p14
aa(lp15
S'300.0'
p16
aS'grammes de'
p17
aS'sucre'
p18
aa(lp19
S'1.0'
p20
aS'kilo de'
p21
aS'cerises aigres'
p22
aaa.