(lp0
S'Cappuccino Instantan\xc3\xa9'
p1
aF3.1
aI54
a(lp2
(lp3
S'17.0'
p4
aS'cl de'
p5
aS'lait en poudre'
p6
aa(lp7
S'150.0'
p8
aS'grammes de'
p9
aS'sucre roux (cassonade)'
p10
aa(lp11
S'120.0'
p12
aS'grammes de'
p13
aS'caf\xc3\xa9'
p14
aa(lp15
S'80.0'
p16
aS'grammes de morceaux de'
p17
aS'chocolat'
p18
aaa.