(lp0
S'Rosanna'
p1
aF4.8
aI4
a(lp2
(lp3
S'0.7'
p4
aS'de'
p5
aS'cognac'
p6
aa(lp7
S'0.1'
p8
aS'de'
p9
aS'angostura bitter'
p10
aa(lp11
S'0.1'
p12
aS"d'"
p13
aS'eau-de-vie de framboises'
p14
aa(lp15
S'0.1'
p16
aS'de'
p17
aS'liqueur galliano'
p18
aaa.