(lp0
S'Cococo'
p1
aF3.5
aI8
a(lp2
(lp3
S'5.0'
p4
aS"cl d'eau de"
p5
aS'noix de coco'
p6
aa(lp7
S'5.0'
p8
aS'cl de'
p9
aS'jus de goyaves'
p10
aa(lp11
S'1.0'
p12
aS'None'
p13
aS'fruit de la passion (maracuja)'
p14
aaa.