(lp0
S'Plaisir Exotique'
p1
aF3.0
aI1
a(lp2
(lp3
S'4.0'
p4
aS'cl de'
p5
aS'triple sec (cointreau, grand marnier)'
p6
aa(lp7
S'2.0'
p8
aS'cl de'
p9
aS'liqueur de kiwis'
p10
aa(lp11
S'4.0'
p12
aS'cl de'
p13
aS'jus de bananes'
p14
aaa.