(lp0
S'Sunset tea'
p1
aF3.8
aI4
a(lp2
(lp3
S'8.0'
p4
aS'cl de'
p5
aS"jus d'oranges"
p6
aa(lp7
S'4.0'
p8
aS'cl de'
p9
aS'triple sec (cointreau, grand marnier)'
p10
aa(lp11
S'1.0'
p12
aS'cl de'
p13
aS'rhum ambr\xc3\xa9'
p14
aa(lp15
S'20.0'
p16
aS'cl de'
p17
aS'th\xc3\xa9'
p18
aaa.