(lp0
S'Meloman Passion'
p1
aF3.0
aI3
a(lp2
(lp3
S'4.0'
p4
aS'cl de'
p5
aS'rhum blanc'
p6
aa(lp7
S'2.0'
p8
aS'cl de'
p9
aS'melocot\xc3\xb3n'
p10
aa(lp11
S'2.0'
p12
aS'cl de'
p13
aS'liqueur de pommes (manzana, manzanita)'
p14
aa(lp15
S'4.0'
p16
aS'cl de'
p17
aS'jus de mangues'
p18
aa(lp19
S'4.0'
p20
aS'cl de'
p21
aS'jus de fruit de la passion (maracuja)'
p22
aa(lp23
S'4.0'
p24
aS'cl de'
p25
aS'jus de pamplemousses'
p26
aa(lp27
S'2.0'
p28
aS'cl de'
p29
aS'sirop de grenadine'
p30
aaa.