(lp0
S'Liqueur de prunelles'
p1
aF2.6
aI10
a(lp2
(lp3
S'1.0'
p4
aS'kilo de'
p5
aS'prunelles'
p6
aa(lp7
S'1.0'
p8
aS"litre d'"
p9
aS'alcool \xc3\xa0 40\xc2\xb0'
p10
aa(lp11
S'80.0'
p12
aS"cl d'"
p13
aS'eau'
p14
aa(lp15
S'1.0'
p16
aS'kilo de'
p17
aS'sucre'
p18
aaa.