(lp0
S'Mojito de Maracuja'
p1
aF3.0
aI8
a(lp2
(lp3
S'1.0'
p4
aS'None'
p5
aS'fruit de la passion (maracuja)'
p6
aa(lp7
S'8.0'
p8
aS'feuilles de'
p9
aS'menthe'
p10
aa(lp11
S'3.0'
p12
aS'cl de'
p13
aS'jus de citrons verts'
p14
aa(lp15
S'2.0'
p16
aS'cuill\xc3\xa8res \xc3\xa0 caf\xc3\xa9 de'
p17
aS'sucre'
p18
aa(lp19
S'None'
p20
aS'None'
p21
aS'eau gazeuse (perrier, salvetat)'
p22
aa(lp23
S'6.0'
p24
aS'cl de'
p25
aS'rhum cubain'
p26
aaa.