(lp0
S'Tourbillon'
p1
aF0.0
aI0
a(lp2
(lp3
S'0.5'
p4
aS'cl de'
p5
aS'gin'
p6
aa(lp7
S'2.0'
p8
aS'cl de'
p9
aS'liqueur de menthe verte (get 27)'
p10
aa(lp11
S'2.0'
p12
aS'cl de'
p13
aS'liqueur de cacao blanc'
p14
aa(lp15
S'1.0'
p16
aS'cl de'
p17
aS"jus d'ananas"
p18
aa(lp19
S'1.0'
p20
aS'cl de'
p21
aS'jus de citrons'
p22
aaa.