(lp0
S'Flu Shot'
p1
aF2.8
aI4
a(lp2
(lp3
S'3.0'
p4
aS'cl de'
p5
aS'jus de citrons'
p6
aa(lp7
S'6.0'
p8
aS'cl de'
p9
aS"jus d'oranges"
p10
aa(lp11
S'0.5'
p12
aS"gousse d'"
p13
aS'ail'
p14
aa(lp15
S'2.0'
p16
aS'cl de'
p17
aS'sirop de miel'
p18
aa(lp19
S'3.0'
p20
aS'cl de'
p21
aS'tequila'
p22
aa(lp23
S'1.0'
p24
aS'cl de'
p25
aS'sirop de gingembre'
p26
aaa.