(lp0
S'Frangipane'
p1
aF4.0
aI8
a(lp2
(lp3
S'3.0'
p4
aS'cl de'
p5
aS'sirop de fraises'
p6
aa(lp7
S'50.0'
p8
aS'g de'
p9
aS'noix de coco'
p10
aa(lp11
S'5.0'
p12
aS'cl de'
p13
aS'jus de bananes'
p14
aa(lp15
S'10.0'
p16
aS'cl de'
p17
aS'jus de fruits exotiques'
p18
aaa.