(lp0
S'Figueira'
p1
aF2.3
aI3
a(lp2
(lp3
S'2.0'
p4
aS'cl de'
p5
aS'alcool de figue (boukha)'
p6
aa(lp7
S'2.0'
p8
aS'cl de'
p9
aS'triple sec (cointreau, grand marnier)'
p10
aa(lp11
S'2.0'
p12
aS'cl de'
p13
aS'jus de citrons'
p14
aa(lp15
S'1.0'
p16
aS'cl de'
p17
aS'sirop de figues'
p18
aaa.