(lp0
S'Cr\xc3\xa8me de caf\xc3\xa9'
p1
aF3.7
aI15
a(lp2
(lp3
S'17.5'
p4
aS'grammes de'
p5
aS'caf\xc3\xa9'
p6
aa(lp7
S'0.1'
p8
aS"litres d'"
p9
aS'alcool \xc3\xa0 45\xc2\xb0'
p10
aa(lp11
S'32.5'
p12
aS'grammes de'
p13
aS'sucre'
p14
aa(lp15
S'0.075'
p16
aS"litres d'"
p17
aS'eau'
p18
aaa.