(lp0
S'Sangria aux \xc3\xa9pices'
p1
aF2.8
aI96
a(lp2
(lp3
S'None'
p4
aS'None'
p5
aS'fruits vari\xc3\xa9s'
p6
aa(lp7
S'6.0'
p8
aS'cl de'
p9
aS'sirop de cannelle'
p10
aa(lp11
S'3.0'
p12
aS'pinc\xc3\xa9es de'
p13
aS'noix de muscade r\xc3\xa2p\xc3\xa9e'
p14
aa(lp15
S'2.0'
p16
aS'cl de'
p17
aS'sirop de sucre de canne'
p18
aa(lp19
S'15.0'
p20
aS'cl de'
p21
aS'jus de citrons'
p22
aa(lp23
S'35.0'
p24
aS'cl de'
p25
aS"jus d'oranges"
p26
aa(lp27
S'35.0'
p28
aS'cl de'
p29
aS'triple sec (cointreau, grand marnier)'
p30
aa(lp31
S'2.0'
p32
aS'L de'
p33
aS'vin'
p34
aaa.