(lp0
S'Rh\xc3\xb4ne'
p1
aF1.9
aI9
a(lp2
(lp3
S'7.0'
p4
aS'cl de'
p5
aS"jus d'abricots"
p6
aa(lp7
S'6.0'
p8
aS'cl de'
p9
aS"jus d'ananas"
p10
aa(lp11
S'3.0'
p12
aS'cl de'
p13
aS'triple sec (cointreau, grand marnier)'
p14
aa(lp15
S'1.0'
p16
aS'cl de'
p17
aS'cura\xc3\xa7ao bleu'
p18
aaa.