(lp0
S'Yaourt \xc3\xa0 boire au chocolat'
p1
aF3.8
aI12
a(lp2
(lp3
S'1.0'
p4
aS'None'
p5
aS'yaourt nature'
p6
aa(lp7
S'3.0'
p8
aS'cl de'
p9
aS'lait'
p10
aa(lp11
S'2.0'
p12
aS'cuill\xc3\xa8res \xc3\xa0 soupe de'
p13
aS'chocolat en poudre'
p14
aaa.