(lp0
S'Jimmy Sweet'
p1
aF0.0
aI0
a(lp2
(lp3
S'1.0'
p4
aS'cl de'
p5
aS'jus de citrons'
p6
aa(lp7
S'4.0'
p8
aS'cl de'
p9
aS"jus d'abricots"
p10
aa(lp11
S'1.0'
p12
aS'cl de'
p13
aS'triple sec (cointreau, grand marnier)'
p14
aa(lp15
S'2.0'
p16
aS'cl de'
p17
aS'liqueur de gingembre'
p18
aaa.