(lp0
S'Le l\xc3\xa9zard'
p1
aF3.3
aI10
a(lp2
(lp3
S'1.0'
p4
aS'litres de'
p5
aS'liqueur de menthe verte (get 27)'
p6
aa(lp7
S'1.0'
p8
aS'litres de'
p9
aS'liqueur de lychees (soho, litchao)'
p10
aa(lp11
S'1.0'
p12
aS'litres de'
p13
aS"jus d'oranges"
p14
aaa.