(lp0
S'Niagara'
p1
aF2.7
aI9
a(lp2
(lp3
S'1.0'
p4
aS'cl de'
p5
aS'mangalore'
p6
aa(lp7
S'1.0'
p8
aS'cl de'
p9
aS'liqueur de citrons (limoncello)'
p10
aa(lp11
S'0.5'
p12
aS'cl de'
p13
aS'cocogif'
p14
aa(lp15
S'4.0'
p16
aS'cl de'
p17
aS"jus d'ananas"
p18
aa(lp19
S'0.5'
p20
aS'cl de'
p21
aS'liqueur de menthe blanche (get 31)'
p22
aaa.