(lp0
S"Liqueur d'Ananas"
p1
aF3.2
aI6
a(lp2
(lp3
S'1.0'
p4
aS'None'
p5
aS'anana'
p6
aa(lp7
S'2.0'
p8
aS'gousses de'
p9
aS'vanille'
p10
aa(lp11
S'1.0'
p12
aS'litres de'
p13
aS'rhum blanc'
p14
aa(lp15
S'500.0'
p16
aS'grammes de'
p17
aS'sucre'
p18
aaa.