(lp0
S'Delirium'
p1
aF3.1
aI8
a(lp2
(lp3
S'7.0'
p4
aS'cl de'
p5
aS'vermouth rose (martini, cinzano)'
p6
aa(lp7
S'2.0'
p8
aS'traits de'
p9
aS'sirop de citrons'
p10
aa(lp11
S'None'
p12
aS'None'
p13
aS'bi\xc3\xa8re'
p14
aaa.