(lp0
S'Mystere cognac'
p1
aF3.0
aI1
a(lp2
(lp3
S'None'
p4
aS'None'
p5
aS'limonade (soda, sprite, 7up)'
p6
aa(lp7
S'0.5'
p8
aS'cl de'
p9
aS'geni\xc3\xa8vre'
p10
aa(lp11
S'None'
p12
aS'None'
p13
aS'feuilles de menthe'
p14
aa(lp15
S'2.0'
p16
aS'cl de'
p17
aS'cognac'
p18
aa(lp19
S'2.0'
p20
aS'cl de'
p21
aS'angostura bitters'
p22
aa(lp23
S'2.0'
p24
aS'cl de'
p25
aS'liqueur de gentiane'
p26
aaa.