(lp0
S'P\xc3\xaache attitude'
p1
aF3.8
aI12
a(lp2
(lp3
S'3.0'
p4
aS'cl de'
p5
aS'rhum blanc'
p6
aa(lp7
S'3.0'
p8
aS'cl de'
p9
aS'cr\xc3\xa8me de p\xc3\xaache de vigne'
p10
aa(lp11
S'5.0'
p12
aS'cl de'
p13
aS'jus de goyaves'
p14
aa(lp15
S'3.0'
p16
aS'cl de'
p17
aS'jus de bananes'
p18
aa(lp19
S'1.0'
p20
aS'cl de'
p21
aS'sirop de barbe \xc3\xa0 papa'
p22
aaa.