(lp0
S'Jus de Tarzan'
p1
aF3.0
aI2
a(lp2
(lp3
S'8.0'
p4
aS'cl de'
p5
aS'limonade (soda, sprite, 7up)'
p6
aa(lp7
S'4.0'
p8
aS'cl de'
p9
aS'gloss de suze'
p10
aa(lp11
S'2.0'
p12
aS'cl de'
p13
aS'jus de citrons'
p14
aa(lp15
S'6.0'
p16
aS'cl de'
p17
aS'jus de bananes'
p18
aaa.