(lp0
S'Zjonca'
p1
aF3.0
aI2
a(lp2
(lp3
S'1.0'
p4
aS'bouteille de'
p5
aS'cognac'
p6
aa(lp7
S'1.0'
p8
aS'bouteille de'
p9
aS'kirsch'
p10
aa(lp11
S'None'
p12
aS'None'
p13
aS'poivre de cayenne'
p14
aa(lp15
S'1.0'
p16
aS'pain de'
p17
aS'sucre'
p18
aa(lp19
S'None'
p20
aS'None'
p21
aS'vin'
p22
aa(lp23
S'None'
p24
aS'None'
p25
aS'champagne'
p26
aaa.