(lp0
S'Gin Garden Martini'
p1
aF3.2
aI15
a(lp2
(lp3
S'4.0'
p4
aS'cl de'
p5
aS'jus de pommes'
p6
aa(lp7
S'8.0'
p8
aS'cl de'
p9
aS'gin'
p10
aa(lp11
S'2.0'
p12
aS'cl de'
p13
aS'sirop de fleurs de sureau'
p14
aa(lp15
S'0.5'
p16
aS'None'
p17
aS'concombre'
p18
aaa.