(lp0
S'Spritz'
p1
aF2.3
aI964
a(lp2
(lp3
S'4.0'
p4
aS"cl d'"
p5
aS'eau gazeuse (perrier, salvetat)'
p6
aa(lp7
S'4.0'
p8
aS'cl de'
p9
aS'campari'
p10
aa(lp11
S'6.0'
p12
aS'cl de'
p13
aS'vin blanc'
p14
aaa.