(lp0
S'Belle Hel\xc3\xa8ne'
p1
aF3.4
aI16
a(lp2
(lp3
S'6.0'
p4
aS'cl de'
p5
aS'jus de poires'
p6
aa(lp7
S'1.0'
p8
aS'cl de'
p9
aS'cr\xc3\xa8me de myrtilles'
p10
aa(lp11
S'2.0'
p12
aS'cl de'
p13
aS'jus de citrons verts'
p14
aaa.