(lp0
S'Saint valentine'
p1
aF3.3
aI3
a(lp2
(lp3
S'1.5'
p4
aS'cl de'
p5
aS'gin'
p6
aa(lp7
S'2.0'
p8
aS'cl de'
p9
aS'fraises'
p10
aa(lp11
S'2.0'
p12
aS'cl de'
p13
aS'cr\xc3\xa8me de fraises'
p14
aa(lp15
S'1.0'
p16
aS'cl de'
p17
aS'sirop de sucre de canne'
p18
aaa.