(lp0
S'Baia'
p1
aF4.0
aI1
a(lp2
(lp3
S'0.5'
p4
aS'cl de'
p5
aS'liqueur de caf\xc3\x83\xc2\xa9 (kahlua, marie brizard)'
p6
aa(lp7
S'1.0'
p8
aS'cl de'
p9
aS'amaretto'
p10
aa(lp11
S'2.0'
p12
aS'cl de'
p13
aS"liqueur d'abricots (abricot brandy)"
p14
aa(lp15
S'2.5'
p16
aS'cl de'
p17
aS'triple sec (cointreau, grand marnier)'
p18
aaa.