(lp0
S'Spiced Apple-tini'
p1
aF3.8
aI4
a(lp2
(lp3
S'5.0'
p4
aS'cl de'
p5
aS'vodka'
p6
aa(lp7
S'2.5'
p8
aS'cm de'
p9
aS'piments rouges'
p10
aa(lp11
S'2.0'
p12
aS'cl de'
p13
aS'jus de pommes'
p14
aa(lp15
S'5.0'
p16
aS'cl de'
p17
aS'sirop de sucre de canne'
p18
aa(lp19
S'0.5'
p20
aS'None'
p21
aS'pomme'
p22
aaa.