(lp0
S'Rosebush'
p1
aF3.7
aI13
a(lp2
(lp3
S'60.0'
p4
aS'grammes de'
p5
aS'framboises'
p6
aa(lp7
S'60.0'
p8
aS'grammes de'
p9
aS'bananes'
p10
aa(lp11
S'1.0'
p12
aS'cuill\xc3\xa8re \xc3\xa0 soupe de'
p13
aS'jus de citrons'
p14
aa(lp15
S'12.0'
p16
aS'cl de'
p17
aS"jus d'oranges"
p18
aa(lp19
S'5.0'
p20
aS'cl de'
p21
aS'sirop de roses'
p22
aaa.