(lp0
S'Punch Russe'
p1
aF3.3
aI15
a(lp2
(lp3
S'0.5'
p4
aS'sachets de'
p5
aS'tilleul'
p6
aa(lp7
S'0.25'
p8
aS'cl de'
p9
aS'sirop de miel'
p10
aa(lp11
S'0.5'
p12
aS'petits verres de'
p13
aS'vodka'
p14
aaa.