(lp0
S'Chouchen (Chouchenn)'
p1
aF3.7
aI44
a(lp2
(lp3
S'2.0'
p4
aS'kilo de'
p5
aS'sirop de miel'
p6
aa(lp7
S'0.5'
p8
aS'litres de'
p9
aS'eau'
p10
aa(lp11
S'1.5'
p12
aS'litres de'
p13
aS'jus de pommes'
p14
aa(lp15
S'None'
p16
aS'None'
p17
aS'levure'
p18
aa(lp19
S'2.0'
p20
aS'None'
p21
aS'citrons'
p22
aaa.