(lp0
S'Strawrange Passoa Juice'
p1
aF3.7
aI9
a(lp2
(lp3
S'6.0'
p4
aS'cl de'
p5
aS'cr\xc3\xa8me de fruit de la passion'
p6
aa(lp7
S'12.0'
p8
aS'cl de'
p9
aS"jus d'oranges"
p10
aa(lp11
S'1.5'
p12
aS'cl de'
p13
aS'sirop de fraises'
p14
aaa.