(lp0
S'Mokaccino'
p1
aF2.8
aI12
a(lp2
(lp3
S'1.0'
p4
aS'litre de'
p5
aS'caf\xc3\xa9'
p6
aa(lp7
S'40.0'
p8
aS'cl de'
p9
aS'cr\xc3\xa8me fra\xc3\xaeche liquide'
p10
aa(lp11
S'2.0'
p12
aS'tablettes de'
p13
aS'chocolat au lait'
p14
aa(lp15
S'1.0'
p16
aS'cuill\xc3\xa8re \xc3\xa0 soupe de'
p17
aS'sucre glace'
p18
aaa.