(lp0
S'Serendipity'
p1
aF2.8
aI18
a(lp2
(lp3
S'0.5'
p4
aS'de'
p5
aS'champagne'
p6
aa(lp7
S'0.2'
p8
aS'de'
p9
aS'calvados'
p10
aa(lp11
S'0.3'
p12
aS'de'
p13
aS'jus de pommes'
p14
aa(lp15
S'1.0'
p16
aS'petite branche de'
p17
aS'menthe'
p18
aa(lp19
S'1.0'
p20
aS'cuill\xc3\xa8re \xc3\xa0 caf\xc3\xa9 de'
p21
aS'sucre'
p22
aaa.