(lp0
S'Mentha fushia'
p1
aF3.8
aI4
a(lp2
(lp3
S'5.0'
p4
aS'cl de'
p5
aS'liqueur de menthe blanche (get 31)'
p6
aa(lp7
S'15.0'
p8
aS"cl d'"
p9
aS'eau gazeuse (perrier, salvetat)'
p10
aa(lp11
S'0.5'
p12
aS'cl de'
p13
aS'sirop de fraises'
p14
aaa.