(lp0
S'Vin marquis'
p1
aF3.3
aI3
a(lp2
(lp3
S'2.0'
p4
aS'None'
p5
aS'citrons'
p6
aa(lp7
S'5.0'
p8
aS'None'
p9
aS'oranges am\xc3\xa8res'
p10
aa(lp11
S'1.0'
p12
aS"litre d'"
p13
aS'eau-de-vie \xc3\xa0 40\xc2\xb0'
p14
aa(lp15
S'800.0'
p16
aS'grammes de'
p17
aS'sucre'
p18
aa(lp19
S'6.0'
p20
aS'litres de'
p21
aS'vin blanc'
p22
aa(lp23
S'1.0'
p24
aS'gousse de'
p25
aS'vanille'
p26
aaa.