(lp0
S'Pina Colada Royal'
p1
aF3.4
aI128
a(lp2
(lp3
S'6.0'
p4
aS'cl de'
p5
aS'rhum blanc'
p6
aa(lp7
S'3.0'
p8
aS'cl de'
p9
aS'sirop de noix de coco'
p10
aa(lp11
S'3.0'
p12
aS'cl de'
p13
aS"sirop d'ananas"
p14
aa(lp15
S'1.0'
p16
aS'cuill\xc3\xa8re \xc3\xa0 soupe de'
p17
aS'cr\xc3\xa8me fra\xc3\xaeche liquide'
p18
aaa.