(lp0
S'Mangeur de cigogne'
p1
aF3.4
aI16
a(lp2
(lp3
S'0.3'
p4
aS'de'
p5
aS'jus de carottes'
p6
aa(lp7
S'0.2'
p8
aS'de'
p9
aS'jus de celeri'
p10
aa(lp11
S'0.1'
p12
aS'de'
p13
aS'jus de navet'
p14
aa(lp15
S'0.2'
p16
aS'de'
p17
aS'jus de tomates'
p18
aa(lp19
S'0.2'
p20
aS'de'
p21
aS'jus de choucroute'
p22
aaa.