(lp0
S'El Animal'
p1
aF3.5
aI2
a(lp2
(lp3
S'4.0'
p4
aS'cl'
p5
aS'liqueur de coco (cocogif, malibu)'
p6
aa(lp7
S'9.0'
p8
aS'cl'
p9
aS'lait'
p10
aa(lp11
S'1.0'
p12
aS'cl de'
p13
aS'cacao en poudre'
p14
aaa.