(lp0
S'Pr\xc3\xa9lude'
p1
aF3.0
aI4
a(lp2
(lp3
S'1.0'
p4
aS"mesure d'"
p5
aS'arrack (arak)'
p6
aa(lp7
S'2.0'
p8
aS'mesures de'
p9
aS'cr\xc3\xa8me de cassis'
p10
aa(lp11
S'None'
p12
aS'None'
p13
aS"zestes d'oranges"
p14
aa(lp15
S'None'
p16
aS'None'
p17
aS'limonade (soda, sprite, 7up)'
p18
aaa.