(lp0
S'Anonymous'
p1
aF3.3
aI4
a(lp2
(lp3
S'1.0'
p4
aS'cl de'
p5
aS"sirop d'\xc3\xa9pices (spicy)"
p6
aa(lp7
S'1.5'
p8
aS'cl de'
p9
aS"sirop d'hibiscus"
p10
aa(lp11
S'4.0'
p12
aS'cl de'
p13
aS'gin'
p14
aa(lp15
S'None'
p16
aS'None'
p17
aS'eau gazeuse (perrier, salvetat)'
p18
aaa.