(lp0
S'Golden Tear'
p1
aF4.0
aI23
a(lp2
(lp3
S'0.666666666667'
p4
aS'volumes de'
p5
aS'vodka au citron'
p6
aa(lp7
S'0.166666666667'
p8
aS'volumes de'
p9
aS'gold strike (goldschlager)'
p10
aa(lp11
S'0.166666666667'
p12
aS'volumes de'
p13
aS'vermouth dry (martini, noilly prat)'
p14
aa(lp15
S'1.0'
p16
aS'zeste de'
p17
aS'kumquat'
p18
aaa.