(lp0
S'Glace a la rhubarbe'
p1
aF3.7
aI42
a(lp2
(lp3
S'120.0'
p4
aS'grammes de'
p5
aS'rhubarbe'
p6
aa(lp7
S'0.1'
p8
aS'None'
p9
aS'citron'
p10
aa(lp11
S'20.0'
p12
aS'cl de'
p13
aS'sirop de miel'
p14
aa(lp15
S'3.0'
p16
aS'cl de'
p17
aS'lait'
p18
aa(lp19
S'3.0'
p20
aS'cl de'
p21
aS'cr\xc3\xa8me fra\xc3\xaeche liquide'
p22
aa(lp23
S'0.2'
p24
aS'pinc\xc3\xa9e de'
p25
aS'vanille'
p26
aaa.