(lp0
S'Doudou'
p1
aF3.6
aI14
a(lp2
(lp3
S'4.0'
p4
aS'cl de'
p5
aS'rhum ambr\xc3\xa9'
p6
aa(lp7
S'3.0'
p8
aS'cl de'
p9
aS'jus de goyaves'
p10
aa(lp11
S'2.0'
p12
aS'cl de'
p13
aS"jus d'ananas"
p14
aa(lp15
S'1.0'
p16
aS'cl de'
p17
aS'cr\xc3\xa8me de bananes'
p18
aaa.