(lp0
S'Michski'
p1
aF2.0
aI2
a(lp2
(lp3
S'0.5'
p4
aS'cl de'
p5
aS'cr\xc3\xa8me de fruit de la passion'
p6
aa(lp7
S'5.0'
p8
aS'cl de'
p9
aS'triple sec (cointreau, grand marnier)'
p10
aa(lp11
S'15.0'
p12
aS'cl de'
p13
aS'vermouth blanc (martini, cinzano)'
p14
aa(lp15
S'15.0'
p16
aS'cl de'
p17
aS'pamplemousses'
p18
aaa.