(lp0
S'Killer kool-aid'
p1
aF4.3
aI8
a(lp2
(lp3
S'0.5'
p4
aS'mesure de'
p5
aS'jus de cranberry (canneberges)'
p6
aa(lp7
S'0.25'
p8
aS'mesure de'
p9
aS'midori'
p10
aa(lp11
S'0.25'
p12
aS'mesure de'
p13
aS'vodka'
p14
aaa.