(lp0
S'Liqueur de tilleul'
p1
aF2.6
aI10
a(lp2
(lp3
S'0.05'
p4
aS'litres de'
p5
aS'vodka'
p6
aa(lp7
S'0.05'
p8
aS'gros bouquet de fleurs de'
p9
aS'tilleul'
p10
aa(lp11
S'15.0'
p12
aS'grammes de'
p13
aS'sucre'
p14
aa(lp15
S'0.05'
p16
aS"verre d'"
p17
aS'eau'
p18
aaa.