(lp0
S"Vegetables's beer"
p1
aF3.6
aI19
a(lp2
(lp3
S'2.0'
p4
aS'petits'
p5
aS'navets nouveaux'
p6
aa(lp7
S'2.0'
p8
aS'petites'
p9
aS'carottes'
p10
aa(lp11
S'1.0'
p12
aS'petite'
p13
aS'betterave'
p14
aa(lp15
S'1.0'
p16
aS'jeune'
p17
aS'poireau'
p18
aa(lp19
S'0.5'
p20
aS'None'
p21
aS'citron'
p22
aa(lp23
S'4.0'
p24
aS'cl de'
p25
aS'whisky (bourbon, whiskey)'
p26
aa(lp27
S'6.0'
p28
aS'cl de'
p29
aS'bi\xc3\xa8re'
p30
aaa.