(lp0
S'Passion fatale'
p1
aF3.2
aI61
a(lp2
(lp3
S'3.0'
p4
aS'cl de'
p5
aS'jus de pamplemousses'
p6
aa(lp7
S'3.0'
p8
aS'cl de'
p9
aS'cr\xc3\xa8me de fruit de la passion'
p10
aa(lp11
S'3.0'
p12
aS'cl de'
p13
aS'tequila'
p14
aaa.