(lp0
S'Tropical sunshine'
p1
aF4.8
aI15
a(lp2
(lp3
S'2.0'
p4
aS'cl de'
p5
aS'sirop de fruit de la passion (maracuja)'
p6
aa(lp7
S'None'
p8
aS'None'
p9
aS'limonade (soda, sprite, 7up)'
p10
aa(lp11
S'1.0'
p12
aS'cl de'
p13
aS'jus de citrons'
p14
aa(lp15
S'2.0'
p16
aS'cl de'
p17
aS'liqueur de coco (cocogif, malibu)'
p18
aa(lp19
S'5.0'
p20
aS'feuilles de'
p21
aS'menthe'
p22
aaa.