(lp0
S'Falernum'
p1
aF4.0
aI1
a(lp2
(lp3
S'30.0'
p4
aS'cl de'
p5
aS'rhum blanc'
p6
aa(lp7
S'8.0'
p8
aS'None'
p9
aS'citrons verts'
p10
aa(lp11
S'45.0'
p12
aS'None'
p13
aS'clous de girofle'
p14
aa(lp15
S'1.0'
p16
aS'cuill\xc3\xa8re \xc3\xa0 soupe de'
p17
aS'quatre-\xc3\xa9pices'
p18
aa(lp19
S'40.0'
p20
aS'cl de'
p21
aS'sirop de sucre de canne'
p22
aa(lp23
S'50.0'
p24
aS'grammes de'
p25
aS'gingembre'
p26
aa(lp27
S'25.0'
p28
aS'None'
p29
aS'amandes'
p30
aa(lp31
S'1.0'
p32
aS'None'
p33
aS'noix de muscade'
p34
aa(lp35
S'1.0'
p36
aS"cuill\xc3\xa8re \xc3\xa0 caf\xc3\xa9 d'"
p37
aS"extrait d'amandes"
p38
aaa.