(lp0
S'Electric Blue'
p1
aF3.5
aI15
a(lp2
(lp3
S'5.0'
p4
aS'cl de'
p5
aS'vodka'
p6
aa(lp7
S'5.0'
p8
aS'cl de'
p9
aS'tequila'
p10
aa(lp11
S'7.5'
p12
aS'cl de'
p13
aS'cura\xc3\xa7ao bleu'
p14
aa(lp15
S'7.5'
p16
aS'cl de'
p17
aS'batida de coco'
p18
aa(lp19
S'15.0'
p20
aS'cl de'
p21
aS'gini'
p22
aaa.