(lp0
S'Hot Hot Hotel'
p1
aF3.3
aI6
a(lp2
(lp3
S'4.0'
p4
aS'cl de'
p5
aS'tequila'
p6
aa(lp7
S'2.0'
p8
aS'cl de'
p9
aS'liqueur de lychees (soho, litchao)'
p10
aa(lp11
S'6.0'
p12
aS'cl de'
p13
aS'jus de mangues'
p14
aa(lp15
S'1.0'
p16
aS'cl de'
p17
aS'jus de citrons'
p18
aaa.