(lp0
S'Batida de lim\xc3\xa3o'
p1
aF3.3
aI88
a(lp2
(lp3
S'2.0'
p4
aS'cl de'
p5
aS'jus de citrons'
p6
aa(lp7
S'8.0'
p8
aS'cl de'
p9
aS'cacha\xc3\xa7a'
p10
aa(lp11
S'3.0'
p12
aS'cuill\xc3\xa8res \xc3\xa0 caf\xc3\xa9 de'
p13
aS'sucre'
p14
aaa.