(lp0
S'Oc\xc3\xa9ane'
p1
aF4.0
aI1
a(lp2
(lp3
S'3.0'
p4
aS'cl de'
p5
aS'rhum blanc'
p6
aa(lp7
S'1.5'
p8
aS'cl de'
p9
aS'jus de fruit de la passion (maracuja)'
p10
aa(lp11
S'1.5'
p12
aS'cl de'
p13
aS'cura\xc3\xa7ao bleu'
p14
aa(lp15
S'0.5'
p16
aS'cl de'
p17
aS"jus d'abricots"
p18
aa(lp19
S'0.5'
p20
aS'cl de'
p21
aS'anisette (berger blanc)'
p22
aaa.