(lp0
S'Cucumber martini'
p1
aF4.5
aI2
a(lp2
(lp3
S'2.0'
p4
aS'cl de'
p5
aS'sirop de concombre'
p6
aa(lp7
S'1.0'
p8
aS'cl de'
p9
aS'sirop de citron vert'
p10
aa(lp11
S'5.0'
p12
aS'cl de'
p13
aS'vodka'
p14
aaa.