(lp0
S'Mariko'
p1
aF4.1
aI7
a(lp2
(lp3
S'2.0'
p4
aS'cl de'
p5
aS'liqueur de bananes (pisang ambon)'
p6
aa(lp7
S'2.0'
p8
aS'cl de'
p9
aS"sirop d'orgeat"
p10
aa(lp11
S'2.0'
p12
aS'cl de'
p13
aS'liqueur de coco (cocogif, malibu)'
p14
aa(lp15
S'2.0'
p16
aS'cl de'
p17
aS'cr\xc3\xa8me fra\xc3\xaeche liquide'
p18
aaa.