(lp0
S'Virgin Cuba Libre'
p1
aF3.2
aI89
a(lp2
(lp3
S'3.0'
p4
aS'cl de'
p5
aS'sirop caribbean (saveur rhum)'
p6
aa(lp7
S'3.0'
p8
aS'cl de'
p9
aS'jus de citrons verts'
p10
aa(lp11
S'None'
p12
aS'None'
p13
aS'cola (coca cola, pepsi)'
p14
aaa.