(lp0
S'Breizh Planteur'
p1
aF2.7
aI10
a(lp2
(lp3
S'2.0'
p4
aS'cl de'
p5
aS'sirop de sucre de canne'
p6
aa(lp7
S'2.0'
p8
aS'cl de'
p9
aS'rhum blanc'
p10
aa(lp11
S'2.0'
p12
aS'cl de'
p13
aS'chouchen'
p14
aaa.