(lp0
S'Calipso Sting'
p1
aF2.7
aI6
a(lp2
(lp3
S'4.0'
p4
aS'cl de'
p5
aS'vodka'
p6
aa(lp7
S'1.0'
p8
aS'cl de'
p9
aS'rhum blanc'
p10
aa(lp11
S'12.0'
p12
aS'cl de'
p13
aS"jus d'oranges"
p14
aa(lp15
S'1.0'
p16
aS'trait de'
p17
aS'sirop de grenadine'
p18
aa(lp19
S'4.0'
p20
aS'gouttes de'
p21
aS'angostura bitters'
p22
aaa.