(lp0
S"John's cocktail"
p1
aF0.0
aI0
a(lp2
(lp3
S'4.0'
p4
aS'cl de'
p5
aS'gin'
p6
aa(lp7
S'2.0'
p8
aS'cl de'
p9
aS'vermouth dry (martini, noilly prat)'
p10
aa(lp11
S'1.0'
p12
aS'cl de'
p13
aS'marasquin'
p14
aa(lp15
S'1.0'
p16
aS'cl de'
p17
aS'sirop de framboises'
p18
aaa.