(lp0
S'Rhum ananas'
p1
aF3.2
aI244
a(lp2
(lp3
S'100.0'
p4
aS'cl de'
p5
aS'rhum blanc'
p6
aa(lp7
S'1.0'
p8
aS'None'
p9
aS'anana'
p10
aa(lp11
S'5.0'
p12
aS'cuill\xc3\xa8res \xc3\xa0 soupe de'
p13
aS'sucre roux (cassonade)'
p14
aa(lp15
S'1.0'
p16
aS'gousse de'
p17
aS'vanille'
p18
aa(lp19
S'2.0'
p20
aS'cl de'
p21
aS'sirop de miel'
p22
aaa.