(lp0
S'H.S.'
p1
aF3.5
aI4
a(lp2
(lp3
S'3.0'
p4
aS'cl de'
p5
aS'rhum cubain'
p6
aa(lp7
S'0.5'
p8
aS'cl de'
p9
aS'liqueur de coco (cocogif, malibu)'
p10
aa(lp11
S'1.0'
p12
aS'cl de'
p13
aS'liqueur de violette'
p14
aa(lp15
S'1.0'
p16
aS'cl de'
p17
aS'jus de pamplemousses roses'
p18
aa(lp19
S'5.0'
p20
aS'gouttes de'
p21
aS'jus de citrons verts'
p22
aaa.