(lp0
S'Crista solar'
p1
aF3.8
aI12
a(lp2
(lp3
S'1.0'
p4
aS'cl de'
p5
aS'angostura bitters'
p6
aa(lp7
S'3.0'
p8
aS'cl de'
p9
aS'vodka'
p10
aa(lp11
S'1.0'
p12
aS'cl de'
p13
aS'cura\xc3\xa7ao bleu'
p14
aa(lp15
S'1.0'
p16
aS'cl de'
p17
aS'vermouth dry (martini, noilly prat)'
p18
aa(lp19
S'1.0'
p20
aS'cl de'
p21
aS'porto rouge'
p22
aaa.