(lp0
S'M\xc3\xa9lanie'
p1
aF4.0
aI4
a(lp2
(lp3
S'None'
p4
aS'None'
p5
aS'tonic (schweppes)'
p6
aa(lp7
S'5.0'
p8
aS'cl de'
p9
aS'jus de fruits exotiques'
p10
aa(lp11
S'3.0'
p12
aS'cl de'
p13
aS'whisky (bourbon, whiskey)'
p14
aa(lp15
S'2.0'
p16
aS'cl de'
p17
aS'cr\xc3\xa8me de fruit de la passion'
p18
aaa.