(lp0
S'Veronique'
p1
aF3.6
aI17
a(lp2
(lp3
S'None'
p4
aS'None'
p5
aS'champagne'
p6
aa(lp7
S'3.0'
p8
aS'cl de'
p9
aS'cognac'
p10
aa(lp11
S'2.0'
p12
aS'cl de'
p13
aS"liqueur d'abricots (abricot brandy)"
p14
aa(lp15
S'2.0'
p16
aS'cl de'
p17
aS"jus d'abricots"
p18
aaa.