(lp0
S'Persicot'
p1
aF3.0
aI1
a(lp2
(lp3
S'1.0'
p4
aS"litre d'"
p5
aS'alcool \xc3\xa0 45\xc2\xb0'
p6
aa(lp7
S'100.0'
p8
aS"noyaux d'"
p9
aS'abricots'
p10
aa(lp11
S'10.0'
p12
aS'noyaux de'
p13
aS'p\xc3\xaaches'
p14
aa(lp15
S'40.0'
p16
aS'cl de'
p17
aS'sirop de sucre de canne'
p18
aa(lp19
S'1.0'
p20
aS'petit b\xc3\xa2ton de'
p21
aS'cannelle'
p22
aa(lp23
S'2.0'
p24
aS'None'
p25
aS'clous de girofle'
p26
aa(lp27
S'1.0'
p28
aS'pinc\xc3\xa9e de'
p29
aS'noix de muscade r\xc3\xa2p\xc3\xa9e'
p30
aaa.