(lp0
S'Rosen kavalier'
p1
aF3.0
aI1
a(lp2
(lp3
S'0.5'
p4
aS'cl de'
p5
aS'sirop de grenadine'
p6
aa(lp7
S'3.0'
p8
aS'cl de'
p9
aS'gin'
p10
aa(lp11
S'2.0'
p12
aS'cl de'
p13
aS'vermouth dry (martini, noilly prat)'
p14
aa(lp15
S'2.0'
p16
aS'cl de'
p17
aS'triple sec (cointreau, grand marnier)'
p18
aa(lp19
S'2.0'
p20
aS'cl de'
p21
aS"jus d'oranges"
p22
aaa.