(lp0
S'Saint valentin'
p1
aF3.3
aI59
a(lp2
(lp3
S'1.0'
p4
aS'cl de'
p5
aS'jus de fruit de la passion (maracuja)'
p6
aa(lp7
S'1.5'
p8
aS'cl de'
p9
aS'tequila'
p10
aa(lp11
S'1.5'
p12
aS'cl de'
p13
aS'liqueur de fraises des bois'
p14
aa(lp15
S'3.0'
p16
aS'cl de'
p17
aS'jus de goyaves'
p18
aaa.