(lp0
S'Crillon'
p1
aF4.3
aI4
a(lp2
(lp3
S'4.0'
p4
aS'cl de'
p5
aS'vermouth blanc (martini, cinzano)'
p6
aa(lp7
S'1.5'
p8
aS'cl de'
p9
aS'eau-de-vie de mirabelles'
p10
aa(lp11
S'1.5'
p12
aS'cl de'
p13
aS'angostura bitters'
p14
aaa.