(lp0
S'Mistercocktail'
p1
aF4.4
aI5
a(lp2
(lp3
S'0.2'
p4
aS'de'
p5
aS'jus de citrons vert'
p6
aa(lp7
S'0.8'
p8
aS'de'
p9
aS'xant\xc3\xa9'
p10
aa(lp11
S'None'
p12
aS'None'
p13
aS'limonade (soda, sprite, 7up)'
p14
aaa.