(lp0
S'Tequilox bill'
p1
aF3.0
aI4
a(lp2
(lp3
S'12.0'
p4
aS'cl de'
p5
aS'jus de fruits exotiques'
p6
aa(lp7
S'6.0'
p8
aS'cl de'
p9
aS'tequila'
p10
aa(lp11
S'0.5'
p12
aS'cl de'
p13
aS'sirop de grenadine'
p14
aaa.