(lp0
S'Andalousia'
p1
aF3.0
aI1
a(lp2
(lp3
S'None'
p4
aS'None'
p5
aS'tonic (schweppes)'
p6
aa(lp7
S'3.0'
p8
aS'cl de'
p9
aS'cognac'
p10
aa(lp11
S'1.5'
p12
aS'cl de'
p13
aS'jus de citrons'
p14
aa(lp15
S'1.0'
p16
aS'cl de'
p17
aS"jus d'oranges"
p18
aa(lp19
S'1.0'
p20
aS'cl de'
p21
aS'cr\xc3\xa8me de p\xc3\xaache'
p22
aa(lp23
S'1.0'
p24
aS'cl de'
p25
aS'angostura bitters'
p26
aaa.