(lp0
S'Evening delight cocktail'
p1
aF3.4
aI10
a(lp2
(lp3
S'4.0'
p4
aS'cl de'
p5
aS'whisky (bourbon, whiskey)'
p6
aa(lp7
S'0.5'
p8
aS'cl de'
p9
aS"liqueur d'abricots (abricot brandy)"
p10
aa(lp11
S'0.5'
p12
aS'cl de'
p13
aS'triple sec (cointreau, grand marnier)'
p14
aaa.