(lp0
S'Soda Shop Cola'
p1
aF4.4
aI35
a(lp2
(lp3
S'0.5'
p4
aS'cuil\xc3\xa8re \xc3\xa0 caf\xc3\xa9 de'
p5
aS'jus de cerise au maraquin'
p6
aa(lp7
S'0.25'
p8
aS"cuil\xc3\xa8re \xc3\xa0 caf\xc3\xa9 d'"
p9
aS'extrait de vanille'
p10
aa(lp11
S'None'
p12
aS'None'
p13
aS'cola (coca cola, pepsi)'
p14
aaa.