(lp0
S'Mint Fizz'
p1
aF3.4
aI5
a(lp2
(lp3
S'4.0'
p4
aS'cl de'
p5
aS'gin'
p6
aa(lp7
S'0.5'
p8
aS'cl de'
p9
aS'liqueur de menthe verte (get 27)'
p10
aa(lp11
S'2.0'
p12
aS'cl de'
p13
aS'jus de citrons'
p14
aa(lp15
S'1.0'
p16
aS'cl de'
p17
aS'sirop de sucre de canne'
p18
aa(lp19
S'None'
p20
aS'None'
p21
aS'limonade (soda, sprite, 7up)'
p22
aaa.