(lp0
S'Tea fusion'
p1
aF3.6
aI9
a(lp2
(lp3
S'6.0'
p4
aS'cl de'
p5
aS"jus d'oranges"
p6
aa(lp7
S'2.0'
p8
aS'cl de'
p9
aS'vin blanc'
p10
aa(lp11
S'6.0'
p12
aS"cl d'"
p13
aS'infusion de th\xc3\xa9'
p14
aa(lp15
S'3.0'
p16
aS'cl de'
p17
aS'sak\xc3\xa9 (alcool de riz)'
p18
aa(lp19
S'None'
p20
aS'None'
p21
aS'sucre'
p22
aaa.