(lp0
S'Presidente'
p1
aF3.2
aI5
a(lp2
(lp3
S'2.0'
p4
aS'cl de'
p5
aS'cura\xc3\xa7ao bleu'
p6
aa(lp7
S'2.0'
p8
aS'cl de'
p9
aS'vermouth dry (martini, noilly prat)'
p10
aa(lp11
S'3.0'
p12
aS'cl de'
p13
aS'rhum blanc'
p14
aa(lp15
S'0.5'
p16
aS'cl de'
p17
aS'liqueur de bananes (pisang ambon)'
p18
aaa.