(lp0
S'Felicita'
p1
aF3.2
aI5
a(lp2
(lp3
S'None'
p4
aS'None'
p5
aS'champagne'
p6
aa(lp7
S'0.5'
p8
aS'cl de'
p9
aS'cura\xc3\xa7ao bleu'
p10
aa(lp11
S'0.5'
p12
aS'cl de'
p13
aS'sirop de grenadine'
p14
aa(lp15
S'2.0'
p16
aS'cl de'
p17
aS'vodka'
p18
aa(lp19
S'1.5'
p20
aS'cl de'
p21
aS'liqueur mandarine napol\xc3\xa9on'
p22
aa(lp23
S'1.0'
p24
aS'cl de'
p25
aS'triple sec (cointreau, grand marnier)'
p26
aa(lp27
S'2.0'
p28
aS'cl de'
p29
aS"jus d'ananas"
p30
aaa.