(lp0
S'Irish Chocolate'
p1
aF3.2
aI27
a(lp2
(lp3
S'7.5'
p4
aS'cl de'
p5
aS'lait'
p6
aa(lp7
S'7.5'
p8
aS'cl de'
p9
aS'eau'
p10
aa(lp11
S'1.0'
p12
aS'cuill\xc3\xa8res \xc3\xa0 soupe de'
p13
aS'cacao en poudre'
p14
aa(lp15
S'1.0'
p16
aS'cuill\xc3\xa8res \xc3\xa0 soupe de'
p17
aS'sucre'
p18
aa(lp19
S'25.0'
p20
aS'grammes de'
p21
aS'cr\xc3\xa8me fra\xc3\xaeche liquide'
p22
aa(lp23
S'1.0'
p24
aS'cl de'
p25
aS'whisky (bourbon, whiskey)'
p26
aaa.