(lp0
S'Vodka sling'
p1
aF4.4
aI10
a(lp2
(lp3
S'6.0'
p4
aS'cl de'
p5
aS'vodka'
p6
aa(lp7
S'0.5'
p8
aS'jus'
p9
aS'citrons'
p10
aa(lp11
S'1.0'
p12
aS"cuill\xc3\xa8re \xc3\xa0 caf\xc3\xa9 d'"
p13
aS'eau'
p14
aa(lp15
S'0.5'
p16
aS'cl de'
p17
aS'sucre'
p18
aaa.