(lp0
S'Smoothie roses'
p1
aF4.0
aI28
a(lp2
(lp3
S'300.0'
p4
aS'grammes de'
p5
aS'framboises'
p6
aa(lp7
S'50.0'
p8
aS'grammes de'
p9
aS'sucre'
p10
aa(lp11
S'1.0'
p12
aS'None'
p13
aS'yaourt nature'
p14
aa(lp15
S'400.0'
p16
aS'gramme de'
p17
aS'lait'
p18
aa(lp19
S'3.0'
p20
aS'cl de'
p21
aS'sirop de roses'
p22
aaa.