(lp0
S'Mojito'
p1
aF4.2
aI5192
a(lp2
(lp3
S'6.0'
p4
aS'cl de'
p5
aS'rhum cubain'
p6
aa(lp7
S'3.0'
p8
aS'cl de'
p9
aS'jus de citrons verts'
p10
aa(lp11
S'7.0'
p12
aS'feuilles de'
p13
aS'menthe'
p14
aa(lp15
S'None'
p16
aS'None'
p17
aS'eau gazeuse (perrier, salvetat)'
p18
aa(lp19
S'2.0'
p20
aS'cl de'
p21
aS'sirop de sucre de canne'
p22
aaa.