(lp0
S'Rhum coco fraise'
p1
aF2.9
aI15
a(lp2
(lp3
S'1.0'
p4
aS'litre de'
p5
aS'rhum blanc'
p6
aa(lp7
S'1.0'
p8
aS'trait de'
p9
aS'sirop de sucre de canne'
p10
aa(lp11
S'250.0'
p12
aS'grammes de'
p13
aS'fraises des bois'
p14
aa(lp15
S'1.0'
p16
aS'cl de'
p17
aS'noix de coco'
p18
aa(lp19
S'1.0'
p20
aS'cl de'
p21
aS'gousses de vanille'
p22
aaa.