(lp0
S'Vin de miel'
p1
aF2.7
aI6
a(lp2
(lp3
S'500.0'
p4
aS'grammes de'
p5
aS'sirop de miel'
p6
aa(lp7
S'500.0'
p8
aS'grammes de'
p9
aS'raisins secs'
p10
aa(lp11
S'100.0'
p12
aS'grammes de'
p13
aS'caramel'
p14
aa(lp15
S'1.0'
p16
aS"litre d'"
p17
aS'alcool \xc3\xa0 90\xc2\xb0'
p18
aa(lp19
S'20.0'
p20
aS'grammes de c\xc3\xb4nes de'
p21
aS'houblon'
p22
aa(lp23
S'10.0'
p24
aS'grammes de'
p25
aS'fleurs de sureau'
p26
aa(lp27
S'10.0'
p28
aS'cl de'
p29
aS'cr\xc3\xa8me de cassis'
p30
aa(lp31
S'10.0'
p32
aS'litres de'
p33
aS'vin blanc'
p34
aaa.