(lp0
S'Liqueur de Prunelline'
p1
aF4.0
aI2
a(lp2
(lp3
S'1.0'
p4
aS'kilo de'
p5
aS'prunelles'
p6
aa(lp7
S'1.0'
p8
aS"litre d'"
p9
aS'eau-de-vie'
p10
aa(lp11
S'1.0'
p12
aS'gousse de'
p13
aS'vanille'
p14
aa(lp15
S'600.0'
p16
aS'grammes de'
p17
aS'sucre'
p18
aaa.