(lp0
S'Cardicas'
p1
aF3.7
aI3
a(lp2
(lp3
S'0.5'
p4
aS'volumes de'
p5
aS'rhum ambr\xc3\xa9'
p6
aa(lp7
S'0.25'
p8
aS'volumes de'
p9
aS'triple sec (cointreau, grand marnier)'
p10
aa(lp11
S'0.25'
p12
aS'volumes de'
p13
aS'porto blanc'
p14
aaa.