(lp0
S"Cr\xc3\xa8me d'oeillets"
p1
aF3.6
aI8
a(lp2
(lp3
S'1.0'
p4
aS"litre d'"
p5
aS'alcool \xc3\xa0 90\xc2\xb0'
p6
aa(lp7
S'400.0'
p8
aS"grammes de p\xc3\xa9tales d'"
p9
aS'oeillets'
p10
aa(lp11
S'1.0'
p12
aS'gramme de'
p13
aS'cannelle'
p14
aa(lp15
S'400.0'
p16
aS'grammes de'
p17
aS'sucre'
p18
aa(lp19
S'1.0'
p20
aS"litre d'"
p21
aS'eau'
p22
aaa.