(lp0
S'Black sun'
p1
aF3.0
aI4
a(lp2
(lp3
S'None'
p4
aS'None'
p5
aS'cola (coca cola, pepsi)'
p6
aa(lp7
S'4.0'
p8
aS'cl de'
p9
aS'triple sec (cointreau, grand marnier)'
p10
aa(lp11
S'2.0'
p12
aS'cl de'
p13
aS'rhum ambr\xc3\xa9'
p14
aaa.