(lp0
S'Limoncello'
p1
aF3.2
aI597
a(lp2
(lp3
S'700.0'
p4
aS'grammes de'
p5
aS'sucre'
p6
aa(lp7
S'1.0'
p8
aS"litre d'"
p9
aS'eau'
p10
aa(lp11
S'15.0'
p12
aS'None'
p13
aS'citrons'
p14
aa(lp15
S'1.0'
p16
aS"litre d'"
p17
aS'alcool \xc3\xa0 90\xc2\xb0'
p18
aaa.