(lp0
S'Purple Mojito'
p1
aF3.4
aI9
a(lp2
(lp3
S'4.0'
p4
aS'cl de'
p5
aS'rhum cubain'
p6
aa(lp7
S'10.0'
p8
aS'pinc\xc3\xa9es de'
p9
aS'feuilles de menthe'
p10
aa(lp11
S'2.0'
p12
aS'cl de'
p13
aS'sirop de violette'
p14
aa(lp15
S'4.0'
p16
aS'pinc\xc3\xa9es de'
p17
aS'm\xc3\xbbres'
p18
aa(lp19
S'5.0'
p20
aS'cl de'
p21
aS'eau gazeuse (perrier, salvetat)'
p22
aa(lp23
S'0.5'
p24
aS'pinc\xc3\xa9es de'
p25
aS'citrons verts'
p26
aa(lp27
S'1.0'
p28
aS'cuill\xc3\xa8re de'
p29
aS'sucre roux (cassonade)'
p30
aaa.