(lp0
S'Han-cock-tail'
p1
aF3.8
aI53
a(lp2
(lp3
S'0.2'
p4
aS'de'
p5
aS"jus d'orange"
p6
aa(lp7
S'0.2'
p8
aS'de'
p9
aS'jus de citron'
p10
aa(lp11
S'0.2'
p12
aS'de'
p13
aS"jus d'anana"
p14
aa(lp15
S'0.4'
p16
aS'de'
p17
aS'jus de mangues'
p18
aa(lp19
S'2.0'
p20
aS'cuiller\xc3\xa9es \xc3\xa0 soupe de'
p21
aS'sucre'
p22
aa(lp23
S'1.0'
p24
aS'cl de'
p25
aS'sirop de grenadine'
p26
aaa.