(lp0
S'Sp\xc3\xa9cial Beaut\xc3\xa9 Fatale'
p1
aF4.0
aI1
a(lp2
(lp3
S'3.0'
p4
aS'cl de'
p5
aS'sour puss'
p6
aa(lp7
S'3.0'
p8
aS'cl de'
p9
aS'schnapps \xc3\xa0 la p\xc3\xaache'
p10
aa(lp11
S'3.0'
p12
aS'cl de'
p13
aS'cr\xc3\xa8me de bananes'
p14
aa(lp15
S'5.0'
p16
aS'cl de'
p17
aS"jus d'oranges"
p18
aa(lp19
S'5.0'
p20
aS'cl de'
p21
aS"jus d'ananas"
p22
aaa.