(lp0
S'Rob roy'
p1
aF3.3
aI40
a(lp2
(lp3
S'5.0'
p4
aS'cl de'
p5
aS'whisky (bourbon, whiskey)'
p6
aa(lp7
S'1.5'
p8
aS'cl de'
p9
aS'vermouth blanc (martini, cinzano)'
p10
aa(lp11
S'4.0'
p12
aS'gouttes de'
p13
aS'angostura bitters'
p14
aaa.