(lp0
S'Cucaratcha'
p1
aF4.0
aI8
a(lp2
(lp3
S'0.166666666667'
p4
aS'de'
p5
aS'liqueur de caf\xc3\xa9 (kahlua, marie brizard)'
p6
aa(lp7
S'0.166666666667'
p8
aS'de'
p9
aS'sirop de sucre de canne'
p10
aa(lp11
S'0.333333333333'
p12
aS'de'
p13
aS'rhum blanc'
p14
aa(lp15
S'0.333333333333'
p16
aS'de'
p17
aS'rhum ambr\xc3\xa9'
p18
aaa.