(lp0
S'Rose de plaisir'
p1
aF2.7
aI6
a(lp2
(lp3
S'2.0'
p4
aS'cl de'
p5
aS'jus de citrons verts'
p6
aa(lp7
S'4.0'
p8
aS'cl de'
p9
aS'vermouth blanc (martini, cinzano)'
p10
aa(lp11
S'4.0'
p12
aS'cl de'
p13
aS'jus de cranberry (canneberges)'
p14
aa(lp15
S'8.0'
p16
aS'cl de'
p17
aS'jus de pommes'
p18
aaa.