(lp0
S'Sirop de karkad\xc3\xa9'
p1
aF3.9
aI8
a(lp2
(lp3
S'25.0'
p4
aS"cl d'"
p5
aS'eau'
p6
aa(lp7
S'200.0'
p8
aS'grammes de'
p9
aS'sucre'
p10
aa(lp11
S'1.0'
p12
aS'gousse de'
p13
aS'vanille'
p14
aa(lp15
S'3.0'
p16
aS'None'
p17
aS'clous de girofle'
p18
aa(lp19
S'3.0'
p20
aS'None'
p21
aS'\xc3\xa9toiles de badiane'
p22
aaa.