(lp0
S'Sangria pirata'
p1
aF3.2
aI53
a(lp2
(lp3
S'2.0'
p4
aS'bouteilles de'
p5
aS'vin rouge'
p6
aa(lp7
S'1.0'
p8
aS'litres de'
p9
aS"jus d'oranges"
p10
aa(lp11
S'4.0'
p12
aS'None'
p13
aS'oranges'
p14
aa(lp15
S'20.0'
p16
aS'cl de'
p17
aS'jus de citrons'
p18
aa(lp19
S'30.0'
p20
aS'cl de'
p21
aS'sirop de sucre de canne'
p22
aa(lp23
S'30.0'
p24
aS'cl de'
p25
aS'rhum blanc'
p26
aaa.