(lp0
S'Washinton cocktail'
p1
aF3.1
aI18
a(lp2
(lp3
S'6.0'
p4
aS'cl de'
p5
aS'vermouth blanc (martini, cinzano)'
p6
aa(lp7
S'3.0'
p8
aS'cl de'
p9
aS'brandy'
p10
aa(lp11
S'1.0'
p12
aS'cl de'
p13
aS'sirop de sucre de canne'
p14
aa(lp15
S'0.5'
p16
aS'cl de'
p17
aS'angostura bitters'
p18
aaa.