(lp0
S'Liqueur de gingembre'
p1
aF3.6
aI21
a(lp2
(lp3
S'1.0'
p4
aS"cl d'"
p5
aS'alcool \xc3\xa0 90\xc2\xb0'
p6
aa(lp7
S'7.5'
p8
aS'grammes de'
p9
aS'gingembre'
p10
aa(lp11
S'2.5'
p12
aS"cl d'"
p13
aS'eau'
p14
aa(lp15
S'15.0'
p16
aS'grammes de'
p17
aS'sucre'
p18
aaa.