(lp0
S'Ara tequila'
p1
aF3.8
aI4
a(lp2
(lp3
S'None'
p4
aS'None'
p5
aS'tonic (schweppes)'
p6
aa(lp7
S'0.5'
p8
aS'cl de'
p9
aS'sirop de menthe'
p10
aa(lp11
S'4.0'
p12
aS'cl de'
p13
aS'tequila'
p14
aa(lp15
S'0.5'
p16
aS'cl de'
p17
aS'sirop de sucre de canne'
p18
aa(lp19
S'2.5'
p20
aS'cl de'
p21
aS'jus de citrons'
p22
aaa.