(lp0
S'Red Monkey'
p1
aF3.0
aI10
a(lp2
(lp3
S'4.5'
p4
aS'cl de'
p5
aS'liqueur de bananes (pisang ambon)'
p6
aa(lp7
S'3.0'
p8
aS'cl de'
p9
aS'sirop de fraises'
p10
aa(lp11
S'3.0'
p12
aS'cl de'
p13
aS'rhum blanc'
p14
aa(lp15
S'20.0'
p16
aS'cl de'
p17
aS"jus d'oranges"
p18
aaa.