(lp0
S'Cellulierre'
p1
aF3.7
aI3
a(lp2
(lp3
S'4.0'
p4
aS'cuill\xc3\xa8res \xc3\xa0 soupe de'
p5
aS'reine des pr\xc3\xa9s'
p6
aa(lp7
S'4.0'
p8
aS'cuill\xc3\xa8res \xc3\xa0 soupe de'
p9
aS'feuilles de verveine'
p10
aa(lp11
S'4.0'
p12
aS'cuill\xc3\xa8res \xc3\xa0 soupe de'
p13
aS'feuilles de pens\xc3\xa9e sauvage'
p14
aa(lp15
S'4.0'
p16
aS'cuill\xc3\xa8res \xc3\xa0 soupe de'
p17
aS'feuilles de lierre grimpant'
p18
aa(lp19
S'3.0'
p20
aS'cl de'
p21
aS'varech-v\xc3\xa9siculeux'
p22
aa(lp23
S'3.0'
p24
aS'cl de'
p25
aS'fleurs de sureau'
p26
aa(lp27
S'1.0'
p28
aS'cl de'
p29
aS"semences d'anis vert"
p30
aaa.