(lp0
S'Blanc tonic'
p1
aF3.5
aI2
a(lp2
(lp3
S'8.0'
p4
aS'cl de'
p5
aS'vermouth blanc (martini, cinzano)'
p6
aa(lp7
S'7.0'
p8
aS'cl de'
p9
aS'jus de citrons'
p10
aa(lp11
S'5.0'
p12
aS'grammes de'
p13
aS'sucre'
p14
aaa.