(lp0
S'Garhiofilatum (Girofl\xc3\xa9)'
p1
aF3.2
aI9
a(lp2
(lp3
S'2.5'
p4
aS'grammes de'
p5
aS'gingembre'
p6
aa(lp7
S'1.0'
p8
aS'grammes de'
p9
aS'cannelle'
p10
aa(lp11
S'5.0'
p12
aS'grammes de'
p13
aS'sirop de miel'
p14
aa(lp15
S'0.4'
p16
aS'gousses de'
p17
aS'cardamome'
p18
aa(lp19
S'0.5'
p20
aS'grammes de'
p21
aS'clous de girofle'
p22
aa(lp23
S'1.0'
p24
aS'grammes de racines de'
p25
aS'val\xc3\xa9riane'
p26
aa(lp27
S'7.5'
p28
aS'cl de'
p29
aS'vin blanc'
p30
aaa.