(lp0
S'Vanderbilt'
p1
aF4.5
aI2
a(lp2
(lp3
S'4.0'
p4
aS'cl de'
p5
aS'brandy'
p6
aa(lp7
S'4.0'
p8
aS'cl de'
p9
aS'liqueur de cerises (cherry brandy)'
p10
aa(lp11
S'2.0'
p12
aS'cl de'
p13
aS'jus de citrons'
p14
aa(lp15
S'2.0'
p16
aS'trait de'
p17
aS'sirop de sucre de canne'
p18
aa(lp19
S'2.0'
p20
aS'trait de'
p21
aS'angostura bitters'
p22
aaa.