(lp0
S'Yaourt \xc3\xa0 boire \xc3\xa0 la banane'
p1
aF4.0
aI4
a(lp2
(lp3
S'1.0'
p4
aS'None'
p5
aS'yaourt nature'
p6
aa(lp7
S'4.0'
p8
aS'cl de'
p9
aS'pur\xc3\xa9e de bananes'
p10
aa(lp11
S'3.0'
p12
aS'cl de'
p13
aS'lait'
p14
aa(lp15
S'1.0'
p16
aS'cl de'
p17
aS'sirop de bananes'
p18
aaa.