(lp0
S'Limonade'
p1
aF3.3
aI78
a(lp2
(lp3
S'3.0'
p4
aS'None'
p5
aS'citrons'
p6
aa(lp7
S'1.0'
p8
aS"litre d'"
p9
aS'eau gazeuse (perrier, salvetat)'
p10
aa(lp11
S'170.0'
p12
aS'grammes de'
p13
aS'sucre'
p14
aaa.