(lp0
S'Punch de Noel'
p1
aF2.7
aI64
a(lp2
(lp3
S'0.75'
p4
aS'cl de'
p5
aS'triple sec (cointreau, grand marnier)'
p6
aa(lp7
S'0.75'
p8
aS'cl de'
p9
aS'rhum blanc'
p10
aa(lp11
S'2.0'
p12
aS'cl de'
p13
aS'cognac'
p14
aa(lp15
S'2.5'
p16
aS'cl de'
p17
aS"jus d'ananas"
p18
aa(lp19
S'2.5'
p20
aS'cl de'
p21
aS'jus de pamplemousses'
p22
aa(lp23
S'5.0'
p24
aS'cl de'
p25
aS"jus d'oranges"
p26
aa(lp27
S'0.1'
p28
aS'cuill\xc3\xa8res \xc3\xa0 caf\xc3\xa9 de'
p29
aS'sucre'
p30
aa(lp31
S'0.1'
p32
aS'bouteilles de'
p33
aS'champagne'
p34
aaa.