(lp0
S'On the beach at the sunset'
p1
aF4.5
aI2
a(lp2
(lp3
S'4.0'
p4
aS'cl de'
p5
aS'gloss de suze'
p6
aa(lp7
S'4.0'
p8
aS'cl de'
p9
aS'cr\xc3\xa8me de fruit de la passion'
p10
aa(lp11
S'8.0'
p12
aS'cl de'
p13
aS"jus d'oranges"
p14
aaa.