(lp0
S'First kiss'
p1
aF3.2
aI33
a(lp2
(lp3
S'0.333333333333'
p4
aS'de'
p5
aS'triple sec (cointreau, grand marnier)'
p6
aa(lp7
S'0.333333333333'
p8
aS'de'
p9
aS'x\xc3\xa9r\xc3\xa8s (sherry)'
p10
aa(lp11
S'0.333333333333'
p12
aS'de'
p13
aS'b\xc3\xa9n\xc3\xa9dictine'
p14
aa(lp15
S'0.5'
p16
aS'cl de'
p17
aS'liqueur de menthe blanche (get 31)'
p18
aaa.