(lp0
S'206'
p1
aF3.3
aI115
a(lp2
(lp3
S'3.0'
p4
aS'cl de'
p5
aS'jus de pamplemousses'
p6
aa(lp7
S'1.0'
p8
aS'cl de'
p9
aS'jus de citrons verts'
p10
aa(lp11
S'5.0'
p12
aS'cl de'
p13
aS'liqueur de pommes (manzana, manzanita)'
p14
aa(lp15
S'2.0'
p16
aS'cl de'
p17
aS'gin'
p18
aaa.