(lp0
S'Vieux carr\xc3\xa9'
p1
aF3.3
aI4
a(lp2
(lp3
S'2.5'
p4
aS'cl de'
p5
aS'whisky (bourbon, whiskey)'
p6
aa(lp7
S'2.5'
p8
aS'cl de'
p9
aS'brandy'
p10
aa(lp11
S'2.5'
p12
aS'cl de'
p13
aS'vermouth rouge (martini, cinzano)'
p14
aa(lp15
S'0.5'
p16
aS'cl de'
p17
aS'b\xc3\xa9n\xc3\xa9dictine'
p18
aa(lp19
S'1.0'
p20
aS"trait d'"
p21
aS'angostura bitters'
p22
aaa.