(lp0
S'Watermelon punch'
p1
aF3.5
aI2
a(lp2
(lp3
S'0.5'
p4
aS'None'
p5
aS'past\xc3\xa8que'
p6
aa(lp7
S'2.0'
p8
aS'cl de'
p9
aS'lime cordial'
p10
aa(lp11
S'1.5'
p12
aS'cl de'
p13
aS'sirop de fraises'
p14
aa(lp15
S'2.0'
p16
aS'cl de'
p17
aS'liqueur de menthe blanche (get 31)'
p18
aa(lp19
S'None'
p20
aS'None'
p21
aS'eau gazeuse (perrier, salvetat)'
p22
aaa.