(lp0
S'Play-boy'
p1
aF3.1
aI161
a(lp2
(lp3
S'1.0'
p4
aS'cl de'
p5
aS'liqueur de menthe blanche (get 31)'
p6
aa(lp7
S'5.0'
p8
aS'cl de'
p9
aS'vodka'
p10
aa(lp11
S'2.0'
p12
aS'cl de'
p13
aS'sirop de pamplemousse rose'
p14
aa(lp15
S'1.0'
p16
aS'cl de'
p17
aS'liqueur de cacao blanc'
p18
aaa.