(lp0
S'Melancinha'
p1
aF3.8
aI6
a(lp2
(lp3
S'0.25'
p4
aS'de'
p5
aS'past\xc3\xa8que'
p6
aa(lp7
S'0.5'
p8
aS'None'
p9
aS'melon'
p10
aa(lp11
S'1.0'
p12
aS'None'
p13
aS'concombre'
p14
aa(lp15
S'2.0'
p16
aS'None'
p17
aS'citrons verts'
p18
aaa.