(lp0
S'Tourmentin'
p1
aF3.3
aI6
a(lp2
(lp3
S'None'
p4
aS'None'
p5
aS'tonic (schweppes)'
p6
aa(lp7
S'3.0'
p8
aS'cl de'
p9
aS'cognac'
p10
aa(lp11
S'1.0'
p12
aS'cl de'
p13
aS"liqueur d'abricots (abricot brandy)"
p14
aa(lp15
S'1.0'
p16
aS'cl de'
p17
aS'liqueur de menthe verte (get 27)'
p18
aaa.