(lp0
S'Bull Shot'
p1
aF4.4
aI8
a(lp2
(lp3
S'8.0'
p4
aS'cl de'
p5
aS'consomm\xc3\xa9 de boeuf froid'
p6
aa(lp7
S'5.0'
p8
aS'cl de'
p9
aS'vodka'
p10
aa(lp11
S'1.0'
p12
aS'cl de'
p13
aS'sauce worcestershire'
p14
aa(lp15
S'1.0'
p16
aS'goutte de'
p17
aS'tabasco'
p18
aa(lp19
S'1.0'
p20
aS'pinc\xc3\xa9e de'
p21
aS'noix de muscade r\xc3\xa2p\xc3\xa9e'
p22
aaa.