(lp0
S'For\xc3\xaat noire'
p1
aF2.0
aI3
a(lp2
(lp3
S'1.0'
p4
aS'cl de'
p5
aS'sirop de grenadine'
p6
aa(lp7
S'4.0'
p8
aS'cl de'
p9
aS'cr\xc3\xa8me de whisky (baileys)'
p10
aa(lp11
S'4.0'
p12
aS'cl de'
p13
aS'liqueur de cacao brun'
p14
aaa.