(lp0
S'Xagatoine'
p1
aF3.5
aI2
a(lp2
(lp3
S'1.0'
p4
aS'cl de'
p5
aS'rhum blanc'
p6
aa(lp7
S'1.0'
p8
aS'cl de'
p9
aS'cr\xc3\xa8me de fruit de la passion'
p10
aa(lp11
S'3.0'
p12
aS'cl de'
p13
aS'jus de fruits exotiques'
p14
aa(lp15
S'2.0'
p16
aS'cl de'
p17
aS'vodka'
p18
aa(lp19
S'2.0'
p20
aS'cl de'
p21
aS'cura\xc3\xa7ao bleu'
p22
aa(lp23
S'2.0'
p24
aS'cl de'
p25
aS'tequila'
p26
aaa.