(lp0
S'Little Italy'
p1
aF4.0
aI1
a(lp2
(lp3
S'0.6'
p4
aS'cl de'
p5
aS'sirop de grenadine'
p6
aa(lp7
S'0.3'
p8
aS'cl de'
p9
aS'liqueur de menthe verte (get 27)'
p10
aa(lp11
S'0.15'
p12
aS'cl de'
p13
aS'vodka'
p14
aaa.