(lp0
S'Drunken God Father'
p1
aF3.7
aI6
a(lp2
(lp3
S'1.0'
p4
aS'cl de'
p5
aS'amaretto'
p6
aa(lp7
S'2.0'
p8
aS'cl de'
p9
aS'whisky (bourbon, whiskey)'
p10
aa(lp11
S'0.5'
p12
aS'bouteille de'
p13
aS'bi\xc3\xa8re'
p14
aaa.