(lp0
S'B&R; Old Fashioned'
p1
aF3.6
aI42
a(lp2
(lp3
S'4.0'
p4
aS'None'
p5
aS'framboises'
p6
aa(lp7
S'2.0'
p8
aS'cuill\xc3\xa8res \xc3\xa0 caf\xc3\xa9 de'
p9
aS'sucre'
p10
aa(lp11
S'1.0'
p12
aS'trait de'
p13
aS'vinaigre balsamique'
p14
aa(lp15
S'1.0'
p16
aS"trait d'"
p17
aS'angostura orange bitters'
p18
aa(lp19
S'7.0'
p20
aS'cl de'
p21
aS'whisky (bourbon, whiskey)'
p22
aaa.