(lp0
S'Christmas punch'
p1
aF3.3
aI132
a(lp2
(lp3
S'2.0'
p4
aS'bouteilles de'
p5
aS'champagne'
p6
aa(lp7
S'2.0'
p8
aS'cl de'
p9
aS'sucre'
p10
aa(lp11
S'100.0'
p12
aS'cl de'
p13
aS"jus d'oranges"
p14
aa(lp15
S'50.0'
p16
aS'cl de'
p17
aS'jus de pamplemousses'
p18
aa(lp19
S'50.0'
p20
aS'cl de'
p21
aS"jus d'ananas"
p22
aa(lp23
S'0.5'
p24
aS'bouteille de'
p25
aS'cognac'
p26
aa(lp27
S'0.25'
p28
aS'bouteille de'
p29
aS'rhum blanc'
p30
aa(lp31
S'0.25'
p32
aS'bouteille de'
p33
aS'triple sec (cointreau, grand marnier)'
p34
aaa.