(lp0
S'Rhum Fraise'
p1
aF2.9
aI207
a(lp2
(lp3
S'100.0'
p4
aS'cl de'
p5
aS'rhum blanc'
p6
aa(lp7
S'300.0'
p8
aS'grammes de'
p9
aS'fraises'
p10
aa(lp11
S'10.0'
p12
aS'morceaux de'
p13
aS'sucre roux (cassonade)'
p14
aaa.