(lp0
S'Faut Avoir la P\xc3\xaache'
p1
aF3.6
aI112
a(lp2
(lp3
S'2.0'
p4
aS'None'
p5
aS'p\xc3\xaaches'
p6
aa(lp7
S'25.0'
p8
aS'cl de'
p9
aS"jus d'oranges"
p10
aa(lp11
S'25.0'
p12
aS'cl de'
p13
aS'yaourt nature'
p14
aa(lp15
S'0.5'
p16
aS'cl de'
p17
aS'sirop de miel'
p18
aaa.