(lp0
S'Country club'
p1
aF2.5
aI2
a(lp2
(lp3
S'30.0'
p4
aS'g de'
p5
aS'persil'
p6
aa(lp7
S'4.0'
p8
aS'cl de'
p9
aS'jus de tomates'
p10
aa(lp11
S'30.0'
p12
aS'g de'
p13
aS'c\xc3\xa9leri'
p14
aa(lp15
S'40.0'
p16
aS'g de'
p17
aS'concombres'
p18
aa(lp19
S'40.0'
p20
aS'g de'
p21
aS'chou'
p22
aaa.