(lp0
S'Demoiselle'
p1
aF3.5
aI2
a(lp2
(lp3
S'4.0'
p4
aS'cl de'
p5
aS'jus de fruit de la passion (maracuja)'
p6
aa(lp7
S'8.0'
p8
aS'cl de'
p9
aS"jus d'oranges"
p10
aa(lp11
S'8.0'
p12
aS'cl de'
p13
aS"jus d'ananas"
p14
aa(lp15
S'2.0'
p16
aS'cl de'
p17
aS'liqueur de coco (cocogif, malibu)'
p18
aa(lp19
S'2.0'
p20
aS'cl de'
p21
aS'cr\xc3\xa8me de fruit de la passion'
p22
aaa.