(lp0
S'Embarcad\xc3\xa8re'
p1
aF3.7
aI3
a(lp2
(lp3
S'0.5'
p4
aS'cl de'
p5
aS'angostura bitters'
p6
aa(lp7
S'3.0'
p8
aS'cl de'
p9
aS'whisky (bourbon, whiskey)'
p10
aa(lp11
S'10.0'
p12
aS'cl de'
p13
aS'lait'
p14
aa(lp15
S'2.0'
p16
aS'cl de'
p17
aS'sirop de fraises'
p18
aa(lp19
S'100.0'
p20
aS'grammes de'
p21
aS'raisins blancs'
p22
aaa.