(lp0
S'Gin-Gin Mule'
p1
aF2.9
aI33
a(lp2
(lp3
S'5.0'
p4
aS'cl de'
p5
aS'gin'
p6
aa(lp7
S'1.5'
p8
aS'cl de'
p9
aS'jus de citrons verts'
p10
aa(lp11
S'1.0'
p12
aS'cl de'
p13
aS'sirop de sucre de canne'
p14
aa(lp15
S'6.0'
p16
aS'feuilles de'
p17
aS'menthe'
p18
aa(lp19
S'3.0'
p20
aS"traits d'"
p21
aS'angostura bitters'
p22
aa(lp23
S'None'
p24
aS'None'
p25
aS'ginger beer'
p26
aaa.