(lp0
S'Pink smoothie'
p1
aF3.9
aI10
a(lp2
(lp3
S'4.0'
p4
aS'None'
p5
aS'pamplemousses'
p6
aa(lp7
S'30.0'
p8
aS'cl de'
p9
aS'lait'
p10
aa(lp11
S'250.0'
p12
aS'grammes de'
p13
aS'fraises'
p14
aa(lp15
S'2.0'
p16
aS'None'
p17
aS'bananes'
p18
aa(lp19
S'5.0'
p20
aS'grammes de'
p21
aS'gingembre'
p22
aaa.