(lp0
S'Vengo del sol'
p1
aF4.0
aI1
a(lp2
(lp3
S'5.0'
p4
aS'cl de'
p5
aS'cacha\xc3\xa7a'
p6
aa(lp7
S'5.0'
p8
aS'cl de'
p9
aS'tequila'
p10
aa(lp11
S'10.0'
p12
aS'cl de'
p13
aS'jus de mangues'
p14
aa(lp15
S'2.0'
p16
aS'cl de'
p17
aS'sirop de cranberry'
p18
aa(lp19
S'1.0'
p20
aS'trait de'
p21
aS'sirop de sucre de canne'
p22
aaa.