(lp0
S'Billiard Hurricane'
p1
aF3.4
aI14
a(lp2
(lp3
S'4.0'
p4
aS'cl de'
p5
aS'licor 43'
p6
aa(lp7
S'2.0'
p8
aS'cl de'
p9
aS'liqueur de caf\xc3\xa9 (kahlua, marie brizard)'
p10
aa(lp11
S'5.0'
p12
aS'None'
p13
aS'fraises'
p14
aa(lp15
S'2.0'
p16
aS'boules de'
p17
aS'sorbet \xc3\xa0 la vanille'
p18
aaa.