(lp0
S'Sorbet \xc3\xa0 la pomme'
p1
aF3.6
aI66
a(lp2
(lp3
S'500.0'
p4
aS'grammes de morceaux de'
p5
aS'pommes'
p6
aa(lp7
S'2.0'
p8
aS'None'
p9
aS'citrons'
p10
aa(lp11
S'300.0'
p12
aS'grammes de'
p13
aS'sucre'
p14
aa(lp15
S'30.0'
p16
aS"cl d'"
p17
aS'eau'
p18
aaa.