(lp0
S'Love story 1'
p1
aF4.3
aI7
a(lp2
(lp3
S'1.0'
p4
aS'cl de'
p5
aS'angostura bitters'
p6
aa(lp7
S'3.0'
p8
aS'cl de'
p9
aS'cognac'
p10
aa(lp11
S'1.5'
p12
aS'cl de'
p13
aS'chartreuse verte'
p14
aa(lp15
S'1.5'
p16
aS'cl de'
p17
aS'jus de citrons'
p18
aaa.