(lp0
S'Sirop de jasmin'
p1
aF2.9
aI10
a(lp2
(lp3
S'50.0'
p4
aS'grammes de'
p5
aS'fleurs de jasmin'
p6
aa(lp7
S'0.1'
p8
aS"litre d'"
p9
aS'eau'
p10
aa(lp11
S'0.1'
p12
aS'kilo de'
p13
aS'sucre'
p14
aaa.