(lp0
S'Southern Sparkler'
p1
aF4.0
aI3
a(lp2
(lp3
S'0.2'
p4
aS'oz de'
p5
aS'liqueur de p\xc3\xaaches'
p6
aa(lp7
S'0.6'
p8
aS'cl de'
p9
aS'jus de pamplemousses'
p10
aa(lp11
S'0.6'
p12
aS'cl de'
p13
aS"jus d'ananas"
p14
aaa.