(lp0
S'Parisian Mojito'
p1
aF3.7
aI20
a(lp2
(lp3
S'2.0'
p4
aS'cl de'
p5
aS'jus de citrons'
p6
aa(lp7
S'3.0'
p8
aS'cl de'
p9
aS'jus de pommes'
p10
aa(lp11
S'5.0'
p12
aS'cl de'
p13
aS'liqueur de menthe blanche (get 31)'
p14
aaa.