(lp0
S'Trinquette'
p1
aF2.3
aI32
a(lp2
(lp3
S'70.0'
p4
aS'cl de'
p5
aS'vin blanc'
p6
aa(lp7
S'35.0'
p8
aS'cl de'
p9
aS'limonade (soda, sprite, 7up)\t'
p10
aa(lp11
S'15.0'
p12
aS'cl de'
p13
aS'sirop de citrons'
p14
aaa.