(lp0
S'Caf\xc3\xa9 Br\xc3\xa9silien'
p1
aF3.0
aI72
a(lp2
(lp3
S'2.0'
p4
aS'cl de'
p5
aS'brandy'
p6
aa(lp7
S'2.0'
p8
aS'cl de'
p9
aS'triple sec (cointreau, grand marnier)'
p10
aa(lp11
S'2.0'
p12
aS'cl de'
p13
aS'liqueur de caf\xc3\xa9 (kahlua, marie brizard)'
p14
aa(lp15
S'1.0'
p16
aS'None'
p17
aS'caf\xc3\xa9'
p18
aa(lp19
S'None'
p20
aS'None'
p21
aS'cr\xc3\xa8me fra\xc3\xaeche liquide'
p22
aaa.