(lp0
S'Peach Aygulf'
p1
aF3.0
aI2
a(lp2
(lp3
S'1.0'
p4
aS'cl de'
p5
aS'sirop de p\xc3\xaache'
p6
aa(lp7
S'1.0'
p8
aS'zeste de'
p9
aS'jus de citrons'
p10
aa(lp11
S'2.0'
p12
aS'cl de'
p13
aS"jus d'abricots"
p14
aa(lp15
S'2.0'
p16
aS'cl de'
p17
aS"jus d'ananas"
p18
aa(lp19
S'2.0'
p20
aS'cl de'
p21
aS'jus de pamplemousses roses'
p22
aa(lp23
S'2.0'
p24
aS'cl de'
p25
aS'jus de fraises'
p26
aa(lp27
S'2.0'
p28
aS'cl de'
p29
aS'rhum blanc'
p30
aa(lp31
S'1.0'
p32
aS'trait de'
p33
aS'cr\xc3\xa8me chantilly'
p34
aa(lp35
S'1.0'
p36
aS'pinc\xc3\xa9es de'
p37
aS'chocolat en poudre'
p38
aaa.