(lp0
S'Atholl Brose'
p1
aF3.3
aI3
a(lp2
(lp3
S'250.0'
p4
aS'cl de'
p5
aS'sirop de miel'
p6
aa(lp7
S'250.0'
p8
aS'grammes de'
p9
aS"farine d'avoine"
p10
aa(lp11
S'100.0'
p12
aS'cl de'
p13
aS'whisky (bourbon, whiskey)'
p14
aaa.