(lp0
S'August Moon'
p1
aF4.2
aI32
a(lp2
(lp3
S'12.0'
p4
aS'cl de'
p5
aS'jus de pommes'
p6
aa(lp7
S'12.0'
p8
aS'cl de'
p9
aS'jus de framboises'
p10
aa(lp11
S'1.0'
p12
aS'cl de'
p13
aS'jus de citrons verts'
p14
aa(lp15
S'1.0'
p16
aS'cl de'
p17
aS'sirop de miel'
p18
aaa.