(lp0
S'Jamaican cow'
p1
aF3.5
aI4
a(lp2
(lp3
S'12.0'
p4
aS'cl de'
p5
aS'lait'
p6
aa(lp7
S'4.0'
p8
aS'cl de'
p9
aS'liqueur de caf\xc3\xa9 (kahlua, marie brizard)'
p10
aa(lp11
S'1.0'
p12
aS'cl de'
p13
aS'rhum blanc'
p14
aa(lp15
S'1.0'
p16
aS'None'
p17
aS'oeuf'
p18
aaa.