(lp0
S'Th\xc3\xa9 Mandarin'
p1
aF2.5
aI4
a(lp2
(lp3
S'6.0'
p4
aS'cl de'
p5
aS'th\xc3\xa9'
p6
aa(lp7
S'4.0'
p8
aS'cl de'
p9
aS'jus de mandarines'
p10
aa(lp11
S'1.0'
p12
aS'cl de'
p13
aS'triple sec (cointreau, grand marnier)'
p14
aa(lp15
S'4.0'
p16
aS'cl de'
p17
aS'tequila'
p18
aa(lp19
S'2.0'
p20
aS'cl de'
p21
aS'sirop de sucre de canne'
p22
aaa.