(lp0
S'Hot Irish Whiskey'
p1
aF4.0
aI2
a(lp2
(lp3
S'10.0'
p4
aS"cl d'"
p5
aS'eau'
p6
aa(lp7
S'1.0'
p8
aS'cuill\xc3\xa8re \xc3\xa0 soupe de'
p9
aS'sucre'
p10
aa(lp11
S'5.0'
p12
aS'cl de'
p13
aS'whisky (bourbon, whiskey)'
p14
aa(lp15
S'8.0'
p16
aS'None'
p17
aS'clous de girofle'
p18
aa(lp19
S'1.0'
p20
aS'tranche de'
p21
aS'citrons'
p22
aaa.