(lp0
S'Gl\xc3\xbchwein'
p1
aF3.1
aI15
a(lp2
(lp3
S'0.1'
p4
aS'litres de'
p5
aS'vin rouge'
p6
aa(lp7
S'0.8'
p8
aS'morceaux de'
p9
aS'sucre'
p10
aa(lp11
S'0.1'
p12
aS'None'
p13
aS'orange'
p14
aa(lp15
S'0.4'
p16
aS'None'
p17
aS'clous de girofle'
p18
aa(lp19
S'0.1'
p20
aS'b\xc3\xa2ton de'
p21
aS'cannelle'
p22
aaa.