(lp0
S'Amayuki'
p1
aF3.0
aI5
a(lp2
(lp3
S'0.333333333333'
p4
aS"d'"
p5
aS'amaretto'
p6
aa(lp7
S'0.333333333333'
p8
aS'de'
p9
aS'liqueur de menthe blanche (get 31)'
p10
aa(lp11
S'0.333333333333'
p12
aS'de'
p13
aS'sak\xc3\xa9 (alcool de riz)'
p14
aaa.