(lp0
S'French Pink-Wimple'
p1
aF3.2
aI5
a(lp2
(lp3
S'2.0'
p4
aS'cuill\xc3\xa8re de'
p5
aS'sirop de grenadine'
p6
aa(lp7
S'3.0'
p8
aS'gouttes de'
p9
aS'colorant alimentaire'
p10
aa(lp11
S'5.0'
p12
aS'cl de'
p13
aS'liqueur de coco (cocogif, malibu)'
p14
aa(lp15
S'1.0'
p16
aS'trait de'
p17
aS'spiritueux anis\xc3\xa9 (pastis, ricard, pernod)'
p18
aa(lp19
S'5.0'
p20
aS'cl de'
p21
aS'lait de coco'
p22
aa(lp23
S'1.0'
p24
aS'pinc\xc3\xa9es de'
p25
aS'cannelle en poudre'
p26
aaa.