(lp0
S'Caf\xc3\xa9 \xc3\xa0 la turque'
p1
aF3.8
aI5
a(lp2
(lp3
S'None'
p4
aS'None'
p5
aS'caf\xc3\xa9 en grains'
p6
aa(lp7
S'None'
p8
aS'None'
p9
aS'sucre'
p10
aa(lp11
S'None'
p12
aS'None'
p13
aS'eau'
p14
aaa.