(lp0
S'Tcha\xc3\xaf (Th\xc3\xa9 Masala)'
p1
aF2.9
aI8
a(lp2
(lp3
S'1.0'
p4
aS'cuill\xc3\xa8re \xc3\xa0 soupe de'
p5
aS'gingembre'
p6
aa(lp7
S'10.0'
p8
aS'graines de'
p9
aS'cardamome'
p10
aa(lp11
S'1.0'
p12
aS'cuill\xc3\xa8re \xc3\xa0 caf\xc3\xa9 de'
p13
aS'cannelle'
p14
aa(lp15
S'75.0'
p16
aS"cl d'"
p17
aS'eau'
p18
aa(lp19
S'30.0'
p20
aS'cl de'
p21
aS'lait'
p22
aa(lp23
S'20.0'
p24
aS'grammes de'
p25
aS'sucre'
p26
aa(lp27
S'12.0'
p28
aS'grammes de'
p29
aS'th\xc3\xa9 noir'
p30
aaa.