(lp0
S'Barbe bleue'
p1
aF3.0
aI78
a(lp2
(lp3
S'3.0'
p4
aS'cl de'
p5
aS'vodka'
p6
aa(lp7
S'2.0'
p8
aS'cl de'
p9
aS"sirop d'\xc3\xa9rable"
p10
aa(lp11
S'0.5'
p12
aS'cl de'
p13
aS'sirop de p\xc3\xaache'
p14
aa(lp15
S'1.0'
p16
aS'cl de'
p17
aS'cura\xc3\xa7ao bleu'
p18
aa(lp19
S'2.0'
p20
aS"cl d'"
p21
aS'eau-de-vie de poires williams'
p22
aaa.