(lp0
S'Effoa'
p1
aF3.7
aI6
a(lp2
(lp3
S'2.5'
p4
aS'cl de'
p5
aS"jus d'oranges"
p6
aa(lp7
S'1.5'
p8
aS'cl de'
p9
aS'rhum blanc'
p10
aa(lp11
S'1.5'
p12
aS'cl de'
p13
aS'triple sec (cointreau, grand marnier)'
p14
aa(lp15
S'1.5'
p16
aS'cl de'
p17
aS"jus d'ananas"
p18
aa(lp19
S'3.0'
p20
aS'trais de'
p21
aS'sirop de grenadine'
p22
aa(lp23
S'1.0'
p24
aS"jaune d'"
p25
aS'oeufs'
p26
aaa.