(lp0
S'Cr\xc3\xa8me de noisettes'
p1
aF4.0
aI1
a(lp2
(lp3
S'0.1'
p4
aS'litre de'
p5
aS'vodka'
p6
aa(lp7
S'20.0'
p8
aS'grammes de'
p9
aS'noisettes'
p10
aa(lp11
S'30.0'
p12
aS'grammes de'
p13
aS'sucre'
p14
aa(lp15
S'3.0'
p16
aS"cl d'"
p17
aS'eau'
p18
aa(lp19
S'0.1'
p20
aS'gousse de'
p21
aS'vanille'
p22
aaa.