(lp0
S'Batida de leite'
p1
aF3.0
aI3
a(lp2
(lp3
S'20.0'
p4
aS'cl de'
p5
aS'lait'
p6
aa(lp7
S'400.0'
p8
aS'grammes de'
p9
aS'lait concentr\xc3\xa9 sucr\xc3\xa9'
p10
aa(lp11
S'20.0'
p12
aS'cl de'
p13
aS'lait de coco'
p14
aa(lp15
S'15.0'
p16
aS'cl de'
p17
aS'cacha\xc3\xa7a'
p18
aaa.