(lp0
S'Vin aux pruneaux'
p1
aF2.9
aI46
a(lp2
(lp3
S'1.0'
p4
aS'gousse de'
p5
aS'vanille'
p6
aa(lp7
S'125.0'
p8
aS'grammes de'
p9
aS'sucre'
p10
aa(lp11
S'1.0'
p12
aS'bouteille de'
p13
aS'vin'
p14
aa(lp15
S'1.0'
p16
aS'verre de'
p17
aS'cognac'
p18
aa(lp19
S'250.0'
p20
aS'grammes de'
p21
aS'pruneaux'
p22
aaa.