(lp0
S'Bucket of Blood'
p1
aF3.7
aI64
a(lp2
(lp3
S'3.0'
p4
aS'cl de'
p5
aS'vodka'
p6
aa(lp7
S'0.5'
p8
aS'cl de'
p9
aS'sauce worcestershire'
p10
aa(lp11
S'0.5'
p12
aS'cl de'
p13
aS'jus de citrons'
p14
aa(lp15
S'8.0'
p16
aS'cl de'
p17
aS'jus de tomates'
p18
aaa.