(lp0
S'Tropical Beach'
p1
aF4.5
aI2
a(lp2
(lp3
S'2.0'
p4
aS'cl de'
p5
aS'liqueur de vanille'
p6
aa(lp7
S'2.0'
p8
aS'cl de'
p9
aS'liqueur de coco (cocogif, malibu)'
p10
aa(lp11
S'10.0'
p12
aS'cl de'
p13
aS"jus d'oranges"
p14
aa(lp15
S'4.0'
p16
aS'cl de'
p17
aS'sirop de grenadine'
p18
aa(lp19
S'2.0'
p20
aS'cl de'
p21
aS'cura\xc3\xa7ao bleu'
p22
aaa.