(lp0
S'Liqueur montagnarde'
p1
aF3.0
aI4
a(lp2
(lp3
S'2.0'
p4
aS'kilos de'
p5
aS'myrtilles (bleuets)'
p6
aa(lp7
S'1.0'
p8
aS'kilo de'
p9
aS'sucre'
p10
aa(lp11
S'2.0'
p12
aS'None'
p13
aS'citrons'
p14
aa(lp15
S'1.0'
p16
aS"litre d'"
p17
aS'eau'
p18
aa(lp19
S'1.0'
p20
aS"litre d'"
p21
aS'alcool \xc3\xa0 90\xc2\xb0'
p22
aaa.