(lp0
S'Cup crillon'
p1
aF2.3
aI3
a(lp2
(lp3
S'9.0'
p4
aS'cl de'
p5
aS'triple sec (cointreau, grand marnier)'
p6
aa(lp7
S'9.0'
p8
aS'cl de'
p9
aS'cognac'
p10
aa(lp11
S'6.0'
p12
aS'cl de'
p13
aS'liqueur de framboises'
p14
aa(lp15
S'None'
p16
aS'None'
p17
aS'fruits de saison'
p18
aa(lp19
S'1.0'
p20
aS'None'
p21
aS'orange'
p22
aa(lp23
S'1.0'
p24
aS'bouteille de'
p25
aS'champagne'
p26
aaa.