(lp0
S"Dj m'ilay"
p1
aF4.2
aI6
a(lp2
(lp3
S'4.0'
p4
aS'cl de'
p5
aS'liqueur de coco (cocogif, malibu)'
p6
aa(lp7
S'8.0'
p8
aS'cl de'
p9
aS"jus d'oranges"
p10
aa(lp11
S'2.0'
p12
aS'cl de'
p13
aS'nectar de p\xc3\xaaches'
p14
aa(lp15
S'1.0'
p16
aS'tomb\xc3\xa9e'
p17
aS'sirop de grenadine'
p18
aaa.