(lp0
S'Quelle vie !'
p1
aF4.0
aI1
a(lp2
(lp3
S'1.0'
p4
aS'cl de'
p5
aS'cr\xc3\xa8me de framboise'
p6
aa(lp7
S'4.0'
p8
aS'cl de'
p9
aS'cognac'
p10
aa(lp11
S'1.0'
p12
aS'cl de'
p13
aS'liqueur de kummel'
p14
aaa.