(lp0
S'Liqueur de n\xc3\xa8fles'
p1
aF3.2
aI11
a(lp2
(lp3
S'2.0'
p4
aS'verres de noyaux de'
p5
aS'n\xc3\xa8fles'
p6
aa(lp7
S'1.0'
p8
aS'litres de'
p9
aS'vodka'
p10
aa(lp11
S'25.0'
p12
aS'cl de'
p13
aS'sirop de sucre de canne'
p14
aaa.