(lp0
S'Choco shot'
p1
aF4.0
aI1
a(lp2
(lp3
S'1.0'
p4
aS'cl de'
p5
aS'vodka'
p6
aa(lp7
S'1.0'
p8
aS'cl de'
p9
aS'triple sec (cointreau, grand marnier)'
p10
aa(lp11
S'2.0'
p12
aS'cl de'
p13
aS'lait'
p14
aa(lp15
S'1.0'
p16
aS'cuill\xc3\xa8re \xc3\xa0 caf\xc3\xa9 de'
p17
aS'chocolat en poudre'
p18
aa(lp19
S'None'
p20
aS'None'
p21
aS'nutella'
p22
aa(lp23
S'None'
p24
aS'None'
p25
aS'noisettes'
p26
aaa.