(lp0
S'B-52 Jello'
p1
aF3.1
aI76
a(lp2
(lp3
S'5.0'
p4
aS'cl de'
p5
aS'triple sec (cointreau, grand marnier)'
p6
aa(lp7
S'15.0'
p8
aS"cl d'"
p9
aS'eau'
p10
aa(lp11
S'5.0'
p12
aS'cl de'
p13
aS'cr\xc3\xa8me de whisky (baileys)'
p14
aa(lp15
S'5.0'
p16
aS'cl de'
p17
aS'liqueur de caf\xc3\xa9 (kahlua, marie brizard)'
p18
aa(lp19
S'3.0'
p20
aS'grammes de'
p21
aS'g\xc3\xa9latine en poudre'
p22
aaa.