(lp0
S'Maria th\xc3\xa9r\xc3\xa9sa'
p1
aF4.0
aI1
a(lp2
(lp3
S'4.0'
p4
aS'cl de'
p5
aS'tequila'
p6
aa(lp7
S'2.0'
p8
aS'cl de'
p9
aS'jus de citrons verts'
p10
aa(lp11
S'2.0'
p12
aS'cl de'
p13
aS'jus de cranberry (canneberges)'
p14
aaa.