(lp0
S'Marina Viva'
p1
aF3.3
aI4
a(lp2
(lp3
S'5.0'
p4
aS'cl de'
p5
aS'vodka'
p6
aa(lp7
S'3.0'
p8
aS'cl de'
p9
aS'liqueur de coco (cocogif, malibu)'
p10
aa(lp11
S'2.0'
p12
aS'cl de'
p13
aS'cr\xc3\xa8me de p\xc3\xaache de vigne'
p14
aa(lp15
S'5.0'
p16
aS'cl de'
p17
aS'jus de fraises'
p18
aaa.