(lp0
S'After-dinner cocktail'
p1
aF3.7
aI9
a(lp2
(lp3
S'3.0'
p4
aS'cl de'
p5
aS'liqueur de cerises (cherry brandy)'
p6
aa(lp7
S'2.0'
p8
aS'cl de'
p9
aS"liqueur d'abricots (abricot brandy)"
p10
aa(lp11
S'1.0'
p12
aS'cl de'
p13
aS'jus de citrons'
p14
aaa.