(lp0
S'Sorbet \xc3\xa0 la cerise'
p1
aF3.5
aI77
a(lp2
(lp3
S'200.0'
p4
aS'grammes de'
p5
aS'cerises'
p6
aa(lp7
S'175.0'
p8
aS'grammes de'
p9
aS'sucre'
p10
aa(lp11
S'1.0'
p12
aS'zeste de'
p13
aS'citrons'
p14
aa(lp15
S'None'
p16
aS"jus d'un demi"
p17
aS'citrons verts'
p18
aa(lp19
S'2.0'
p20
aS'cl de'
p21
aS'sirop de cerise'
p22
aaa.