(lp0
S'Cl\xc3\xa9mentos'
p1
aF3.0
aI1
a(lp2
(lp3
S'2.0'
p4
aS'cl de'
p5
aS'sirop de fraises'
p6
aa(lp7
S'12.0'
p8
aS'cl de'
p9
aS'infusion \xc3\xa0 la camomille'
p10
aa(lp11
S'6.0'
p12
aS'grammes de'
p13
aS'racines de bourdaine'
p14
aaa.