(lp0
S'Shooting Star'
p1
aF4.3
aI8
a(lp2
(lp3
S'0.7'
p4
aS'cl de'
p5
aS'cura\xc3\xa7ao bleu'
p6
aa(lp7
S'0.5'
p8
aS'Oz  de'
p9
aS'vodka'
p10
aa(lp11
S'0.25'
p12
aS'Oz  de'
p13
aS'gold strike (goldschlager)'
p14
aaa.