(lp0
S'Health drink'
p1
aF3.6
aI7
a(lp2
(lp3
S'2.0'
p4
aS'None'
p5
aS'carottes'
p6
aa(lp7
S'10.0'
p8
aS"cl d'"
p9
aS'eau'
p10
aa(lp11
S'1.0'
p12
aS'None'
p13
aS'orange'
p14
aa(lp15
S'2.0'
p16
aS'cl de'
p17
aS'sirop de cannelle'
p18
aa(lp19
S'0.5'
p20
aS'None'
p21
aS'citron'
p22
aa(lp23
S'1.0'
p24
aS'None'
p25
aS'yaourt nature'
p26
aaa.