(lp0
S'Gl\xc3\xb6gg'
p1
aF2.9
aI8
a(lp2
(lp3
S'0.1'
p4
aS'bouteille de'
p5
aS'vin rouge'
p6
aa(lp7
S'0.7'
p8
aS'grains de'
p9
aS'cardamome'
p10
aa(lp11
S'0.5'
p12
aS'None'
p13
aS'clous de girofle'
p14
aa(lp15
S'0.1'
p16
aS'b\xc3\xa2ton de'
p17
aS'vanille'
p18
aa(lp19
S'0.1'
p20
aS'petit morceau de'
p21
aS'gingembre'
p22
aa(lp23
S'20.0'
p24
aS'grammes de'
p25
aS'sucre'
p26
aa(lp27
S'0.3'
p28
aS'cl de'
p29
aS'vodka'
p30
aaa.