(lp0
S'Lait de courge'
p1
aF3.8
aI8
a(lp2
(lp3
S'100.0'
p4
aS'graines de'
p5
aS'courges vertes'
p6
aa(lp7
S'50.0'
p8
aS'cl de'
p9
aS'lait'
p10
aa(lp11
S'None'
p12
aS'None'
p13
aS'sirop de miel'
p14
aaa.