(lp0
S'Digoy Digoy'
p1
aF2.3
aI9
a(lp2
(lp3
S'100.0'
p4
aS'grammes de'
p5
aS'fraises'
p6
aa(lp7
S'50.0'
p8
aS'grammes de'
p9
aS'framboises'
p10
aa(lp11
S'8.0'
p12
aS'cl de'
p13
aS"lait d'amandes"
p14
aa(lp15
S'3.0'
p16
aS'feuilles de'
p17
aS'menthe'
p18
aaa.