(lp0
S'White Lily'
p1
aF4.4
aI8
a(lp2
(lp3
S'5.0'
p4
aS'cl de'
p5
aS'gin'
p6
aa(lp7
S'4.0'
p8
aS'cl de'
p9
aS'triple sec (cointreau, grand marnier)'
p10
aa(lp11
S'4.0'
p12
aS'cl de'
p13
aS'rhum blanc'
p14
aa(lp15
S'0.25'
p16
aS'cuill\xc3\xa8re \xc3\xa0 caf\xc3\xa9 de'
p17
aS'spiritueux anis\xc3\xa9 (pastis, ricard, pernod)'
p18
aaa.