(lp0
S'Punch royal'
p1
aF3.0
aI38
a(lp2
(lp3
S'0.75'
p4
aS'litres de'
p5
aS'rhum blanc'
p6
aa(lp7
S'2.0'
p8
aS'litres de'
p9
aS'vin blanc'
p10
aa(lp11
S'2.0'
p12
aS'litres de'
p13
aS'jus de fruits exotiques'
p14
aa(lp15
S'4.0'
p16
aS'cuill\xc3\xa8re de'
p17
aS'jus de citrons'
p18
aaa.