(lp0
S'Bikini'
p1
aF3.2
aI229
a(lp2
(lp3
S'4.0'
p4
aS'cl de'
p5
aS'vodka'
p6
aa(lp7
S'2.0'
p8
aS'cl de'
p9
aS'rhum blanc'
p10
aa(lp11
S'1.0'
p12
aS'cl de'
p13
aS'lait'
p14
aa(lp15
S'None'
p16
aS"jus d'un demi"
p17
aS'citrons'
p18
aa(lp19
S'2.0'
p20
aS'pinc\xc3\xa9es de'
p21
aS'sel'
p22
aaa.