(lp0
S'Ete indien'
p1
aF3.0
aI3
a(lp2
(lp3
S'2.0'
p4
aS'cl de'
p5
aS'gin'
p6
aa(lp7
S'2.0'
p8
aS'cl de'
p9
aS'vodka'
p10
aa(lp11
S'4.0'
p12
aS'cl de'
p13
aS"jus d'ananas"
p14
aa(lp15
S'4.0'
p16
aS'cl de'
p17
aS'liqueur de caf\xc3\xa9 (kahlua, marie brizard)'
p18
aa(lp19
S'1.0'
p20
aS'trait de'
p21
aS'sirop de grenadine'
p22
aa(lp23
S'1.0'
p24
aS'pinc\xc3\xa9es de'
p25
aS'framboises'
p26
aaa.