(lp0
S'Aurore des \xc3\xaeles'
p1
aF3.3
aI8
a(lp2
(lp3
S'1.0'
p4
aS'cl de'
p5
aS'liqueur mandarine napol\xc3\xa9on'
p6
aa(lp7
S'1.0'
p8
aS'cl de'
p9
aS'liqueur de framboises'
p10
aa(lp11
S'4.0'
p12
aS'cl de'
p13
aS'rhum blanc'
p14
aaa.