(lp0
S'Un pur bonheur'
p1
aF3.3
aI6
a(lp2
(lp3
S'2.0'
p4
aS'cl de'
p5
aS'liqueur de lychees (soho, litchao)'
p6
aa(lp7
S'7.0'
p8
aS'cl de'
p9
aS'energy drink (red bull, pitbull, duff)'
p10
aa(lp11
S'None'
p12
aS'None'
p13
aS'champagne'
p14
aaa.