(lp0
S'Verveine creole'
p1
aF3.5
aI4
a(lp2
(lp3
S'2.0'
p4
aS'cuill\xc3\xa8re \xc3\xa0 caf\xc3\xa9 de'
p5
aS'sucre'
p6
aa(lp7
S'None'
p8
aS'un peu de'
p9
aS'cannelle en poudre'
p10
aa(lp11
S'2.0'
p12
aS'cl de'
p13
aS'rhum ambr\xc3\xa9'
p14
aa(lp15
S'None'
p16
aS"jus d'1/2"
p17
aS'citrons'
p18
aa(lp19
S'20.0'
p20
aS'cl de'
p21
aS'tisane \xc3\xa0 la verveine'
p22
aaa.