(lp0
S'Br\xc3\xbblot'
p1
aF2.9
aI7
a(lp2
(lp3
S'2.0'
p4
aS'tasses de'
p5
aS'caf\xc3\xa9'
p6
aa(lp7
S'5.0'
p8
aS'cl de'
p9
aS'cognac'
p10
aa(lp11
S'80.0'
p12
aS'grammes de'
p13
aS'sucre'
p14
aa(lp15
S'4.0'
p16
aS'None'
p17
aS'clous de girofle'
p18
aa(lp19
S'2.0'
p20
aS'pinc\xc3\xa9es de'
p21
aS'cannelle en poudre'
p22
aa(lp23
S'2.0'
p24
aS'None'
p25
aS'zestes de citrons'
p26
aaa.