(lp0
S'Stiletto'
p1
aF3.8
aI4
a(lp2
(lp3
S'4.0'
p4
aS'cl de'
p5
aS'whisky (bourbon, whiskey)'
p6
aa(lp7
S'2.0'
p8
aS"cl d'"
p9
aS'amaretto'
p10
aa(lp11
S'6.0'
p12
aS'cl de'
p13
aS'jus de citrons'
p14
aaa.