(lp0
S'Sirop de basilic'
p1
aF2.7
aI11
a(lp2
(lp3
S'1.0'
p4
aS'bouquet de feuilles de'
p5
aS'basilic'
p6
aa(lp7
S'300.0'
p8
aS'grammes de'
p9
aS'sucre'
p10
aa(lp11
S'30.0'
p12
aS"cl d'"
p13
aS'eau'
p14
aaa.