(lp0
S'El Diablo'
p1
aF4.2
aI140
a(lp2
(lp3
S'4.0'
p4
aS'cl de'
p5
aS'tequila'
p6
aa(lp7
S'2.0'
p8
aS'quartiers de'
p9
aS'citrons verts'
p10
aa(lp11
S'2.0'
p12
aS'cl de'
p13
aS'cr\xc3\xa8me de cassis'
p14
aa(lp15
S'12.0'
p16
aS'cl de'
p17
aS'ginger ale (canada dry)'
p18
aaa.