(lp0
S'Liqueur de lait'
p1
aF2.9
aI7
a(lp2
(lp3
S'0.05'
p4
aS'kilo de'
p5
aS'sucre'
p6
aa(lp7
S'0.25'
p8
aS'None'
p9
aS'clous de girofle'
p10
aa(lp11
S'5.0'
p12
aS'cl de'
p13
aS'lait'
p14
aa(lp15
S'3.75'
p16
aS"cl d'"
p17
aS'alcool \xc3\xa0 90\xc2\xb0'
p18
aa(lp19
S'0.15'
p20
aS'None'
p21
aS'citrons'
p22
aa(lp23
S'0.1'
p24
aS'gousses de'
p25
aS'vanille'
p26
aaa.