(lp0
S'Hairy sunrise'
p1
aF3.0
aI4
a(lp2
(lp3
S'12.0'
p4
aS'cl de'
p5
aS"jus d'oranges"
p6
aa(lp7
S'3.0'
p8
aS'cl de'
p9
aS'vodka'
p10
aa(lp11
S'3.0'
p12
aS'cl de'
p13
aS'tequila'
p14
aa(lp15
S'2.0'
p16
aS'cl de'
p17
aS'triple sec (cointreau, grand marnier)'
p18
aa(lp19
S'3.0'
p20
aS'trais de'
p21
aS'sirop de grenadine'
p22
aaa.