(lp0
S'Sromboli'
p1
aF2.9
aI18
a(lp2
(lp3
S'1.0'
p4
aS'cl de'
p5
aS'sirop de grenadine'
p6
aa(lp7
S'3.0'
p8
aS'cl de'
p9
aS'marc italien (grappa)'
p10
aa(lp11
S'5.0'
p12
aS'cl de'
p13
aS'vin blanc'
p14
aaa.