(lp0
S'Earthquake 2'
p1
aF3.1
aI34
a(lp2
(lp3
S'4.0'
p4
aS'cl de'
p5
aS'whisky (bourbon, whiskey)'
p6
aa(lp7
S'1.0'
p8
aS'cl de'
p9
aS'spiritueux anis\xc3\xa9 (pastis, ricard, pernod)'
p10
aa(lp11
S'1.0'
p12
aS'cl de'
p13
aS'gin'
p14
aaa.