(lp0
S'Spicy mix'
p1
aF3.5
aI2
a(lp2
(lp3
S'0.25'
p4
aS'cl de'
p5
aS'tabasco'
p6
aa(lp7
S'1.25'
p8
aS'cl de'
p9
aS'sauce worcestershire'
p10
aa(lp11
S'0.25'
p12
aS'pinc\xc3\xa9es de'
p13
aS'sel de celeri'
p14
aa(lp15
S'0.15'
p16
aS'pinc\xc3\xa9es de'
p17
aS'poivre noir'
p18
aa(lp19
S'0.15'
p20
aS'pinc\xc3\xa9es de'
p21
aS'sel'
p22
aaa.