(lp0
S'The Universe'
p1
aF4.3
aI6
a(lp2
(lp3
S'0.111111111111'
p4
aS'de'
p5
aS'midori'
p6
aa(lp7
S'0.111111111111'
p8
aS'de'
p9
aS'vodka'
p10
aa(lp11
S'0.111111111111'
p12
aS'de'
p13
aS'liqueur de pistache'
p14
aa(lp15
S'0.555555555556'
p16
aS'de'
p17
aS"jus d'ananas"
p18
aa(lp19
S'0.111111111111'
p20
aS'de'
p21
aS'jus de citrons vert'
p22
aaa.