(lp0
S'Virgin chapala'
p1
aF3.4
aI12
a(lp2
(lp3
S'12.0'
p4
aS'cl de'
p5
aS"jus d'oranges"
p6
aa(lp7
S'2.0'
p8
aS'cuill\xc3\xa8res \xc3\xa0 caf\xc3\xa9 de'
p9
aS'sirop de grenadine'
p10
aa(lp11
S'2.0'
p12
aS'pinc\xc3\xa9es de'
p13
aS'sel'
p14
aa(lp15
S'1.0'
p16
aS'pinc\xc3\xa9e de'
p17
aS'poivre de cayenne'
p18
aaa.