(lp0
S'Bois rose'
p1
aF2.7
aI12
a(lp2
(lp3
S'2.0'
p4
aS'cl de'
p5
aS'cr\xc3\xa8me de cassis'
p6
aa(lp7
S'2.0'
p8
aS'cl de'
p9
aS'vermouth blanc (martini, cinzano)'
p10
aa(lp11
S'2.0'
p12
aS'cl de'
p13
aS'b\xc3\xa9n\xc3\xa9dictine'
p14
aaa.