(lp0
S'Sangria'
p1
aF2.7
aI432
a(lp2
(lp3
S'2.0'
p4
aS'None'
p5
aS'fraises'
p6
aa(lp7
S'0.25'
p8
aS'None'
p9
aS'citron'
p10
aa(lp11
S'0.5'
p12
aS'cuill\xc3\xa8res \xc3\xa0 soupe de'
p13
aS'sucre'
p14
aa(lp15
S'10.0'
p16
aS'cl de'
p17
aS'vin rouge'
p18
aa(lp19
S'0.25'
p20
aS'None'
p21
aS'orange'
p22
aa(lp23
S'0.25'
p24
aS'pinc\xc3\xa9e de'
p25
aS'cannelle'
p26
aaa.