(lp0
S'Pink Palace'
p1
aF2.8
aI4
a(lp2
(lp3
S'2.5'
p4
aS'cl de'
p5
aS'vodka'
p6
aa(lp7
S'2.5'
p8
aS'cl de'
p9
aS'chambord'
p10
aa(lp11
S'None'
p12
aS'None'
p13
aS'eau gazeuse (perrier, salvetat)'
p14
aa(lp15
S'3.0'
p16
aS'cl de'
p17
aS'jus de cranberry (canneberges)'
p18
aaa.