(lp0
S'Roberta'
p1
aF2.9
aI4
a(lp2
(lp3
S'0.333333333333'
p4
aS'volumes de'
p5
aS'vodka'
p6
aa(lp7
S'0.333333333333'
p8
aS'volumes de'
p9
aS'vermouth dry (martini, noilly prat)'
p10
aa(lp11
S'0.333333333333'
p12
aS'volumes de'
p13
aS'liqueur de cerises (cherry brandy)'
p14
aa(lp15
S'1.0'
p16
aS'cl de'
p17
aS'angostura bitters'
p18
aa(lp19
S'1.0'
p20
aS'cl de'
p21
aS'cr\xc3\xa8me de bananes'
p22
aa(lp23
S'1.0'
p24
aS"zeste d'"
p25
aS'oranges'
p26
aaa.