(lp0
S'Yellow worm'
p1
aF3.5
aI2
a(lp2
(lp3
S'1.0'
p4
aS'cl de'
p5
aS'cr\xc3\xa8me de bananes'
p6
aa(lp7
S'2.5'
p8
aS'cl de'
p9
aS'cr\xc3\xa8me de whisky (baileys)'
p10
aa(lp11
S'2.5'
p12
aS'cl de'
p13
aS'tequila'
p14
aaa.