(lp0
S'Diamant noir'
p1
aF4.0
aI5
a(lp2
(lp3
S'6.0'
p4
aS'cl'
p5
aS'eau gazeuse (perrier, salvetat)'
p6
aa(lp7
S'4.0'
p8
aS'cl'
p9
aS'cura\xc3\xa7ao bleu'
p10
aa(lp11
S'2.0'
p12
aS'cl'
p13
aS'cr\xc3\xa8me de cassis'
p14
aaa.