(lp0
S"L'Echelard"
p1
aF2.7
aI3
a(lp2
(lp3
S'10.0'
p4
aS'cl de'
p5
aS'vodka'
p6
aa(lp7
S'5.0'
p8
aS'cl de'
p9
aS'sirop de sucre de canne'
p10
aa(lp11
S'5.0'
p12
aS'cl de'
p13
aS'eau'
p14
aa(lp15
S'5.0'
p16
aS'cuill\xc3\xa8re de'
p17
aS'chocolat en poudre'
p18
aa(lp19
S'10.0'
p20
aS'cl de'
p21
aS'lait'
p22
aaa.