(lp0
S'El bella carolina'
p1
aF4.0
aI2
a(lp2
(lp3
S'0.5'
p4
aS'cl de'
p5
aS'sirop de grenadine'
p6
aa(lp7
S'2.0'
p8
aS'cl de'
p9
aS'sirop de sucre de canne'
p10
aa(lp11
S'2.0'
p12
aS'cl de'
p13
aS'jus de bananes'
p14
aa(lp15
S'2.0'
p16
aS'cl de'
p17
aS'jus de citrons verts'
p18
aa(lp19
S'6.0'
p20
aS'cl de'
p21
aS"jus d'ananas"
p22
aa(lp23
S'10.0'
p24
aS'cl de'
p25
aS"jus d'oranges"
p26
aaa.