(lp0
S'Pink melon'
p1
aF4.1
aI33
a(lp2
(lp3
S'10.0'
p4
aS'cl de'
p5
aS'ginger ale (canada dry)'
p6
aa(lp7
S'1.0'
p8
aS'boule de'
p9
aS"sorbet \xc3\xa0 l'orange"
p10
aa(lp11
S'50.0'
p12
aS'g de'
p13
aS'fraises'
p14
aa(lp15
S'50.0'
p16
aS'g de'
p17
aS'melons'
p18
aaa.