(lp0
S'Smoothie kiwi-goji'
p1
aF3.5
aI2
a(lp2
(lp3
S'2.0'
p4
aS'None'
p5
aS'yaourt nature'
p6
aa(lp7
S'4.0'
p8
aS'None'
p9
aS'kiwis'
p10
aa(lp11
S'4.0'
p12
aS'cl de'
p13
aS"sirop d'agave"
p14
aa(lp15
S'10.0'
p16
aS'baies de'
p17
aS'goji'
p18
aa(lp19
S'4.0'
p20
aS'feuilles de'
p21
aS'menthe'
p22
aaa.