(lp0
S"Parson's Special"
p1
aF4.4
aI13
a(lp2
(lp3
S'8.0'
p4
aS'cl de'
p5
aS"jus d'oranges"
p6
aa(lp7
S'1.0'
p8
aS"jaune d'"
p9
aS'oeufs'
p10
aa(lp11
S'4.0'
p12
aS'traits de'
p13
aS'sirop de grenadine'
p14
aa(lp15
S'None'
p16
aS'None'
p17
aS'eau gazeuse (perrier, salvetat)'
p18
aaa.