(lp0
S'Etna'
p1
aF3.7
aI3
a(lp2
(lp3
S'4.0'
p4
aS'cl de'
p5
aS'jus de pamplemousses'
p6
aa(lp7
S'3.0'
p8
aS'cl de'
p9
aS'tequila'
p10
aa(lp11
S'2.0'
p12
aS'cl de'
p13
aS'liqueur mandarine napol\xc3\xa9on'
p14
aa(lp15
S'1.0'
p16
aS'cl de'
p17
aS'cr\xc3\xa8me de framboise'
p18
aaa.