(lp0
S'Vache folle'
p1
aF2.8
aI40
a(lp2
(lp3
S'10.0'
p4
aS'cl de'
p5
aS'lait'
p6
aa(lp7
S'1.0'
p8
aS"jaune d'"
p9
aS'oeufs'
p10
aa(lp11
S'1.0'
p12
aS'cl de'
p13
aS'sirop de cannelle'
p14
aa(lp15
S'1.0'
p16
aS'cl de'
p17
aS'sirop de sucre de canne'
p18
aa(lp19
S'2.0'
p20
aS'cl de'
p21
aS'cognac'
p22
aa(lp23
S'1.0'
p24
aS'cl de'
p25
aS'liqueur de noisettes'
p26
aa(lp27
S'30.0'
p28
aS'grammes de'
p29
aS'noisettes'
p30
aa(lp31
S'1.0'
p32
aS'cl de'
p33
aS"sirop d'orgeat"
p34
aaa.