(lp0
S'Lhassi colada'
p1
aF3.7
aI3
a(lp2
(lp3
S'3.0'
p4
aS'cl de'
p5
aS'lait de coco'
p6
aa(lp7
S'3.0'
p8
aS'cl de'
p9
aS"jus d'ananas"
p10
aa(lp11
S'None'
p12
aS'None'
p13
aS'sirop de roses'
p14
aa(lp15
S'2.0'
p16
aS'cl de'
p17
aS'rhum blanc'
p18
aaa.