(lp0
S'Mojito Fraise'
p1
aF3.1
aI856
a(lp2
(lp3
S'6.0'
p4
aS'cl de'
p5
aS'rhum cubain'
p6
aa(lp7
S'8.0'
p8
aS'feuilles de'
p9
aS'menthe'
p10
aa(lp11
S'0.5'
p12
aS'None'
p13
aS'citrons vert'
p14
aa(lp15
S'2.0'
p16
aS'None'
p17
aS'fraises'
p18
aa(lp19
S'6.0'
p20
aS'cl de'
p21
aS'jus de fraises'
p22
aa(lp23
S'2.0'
p24
aS'cl de'
p25
aS'sirop de sucre de canne'
p26
aaa.