(lp0
S'Pina Colada Sans Alcool'
p1
aF3.1
aI47
a(lp2
(lp3
S'3.0'
p4
aS'cl de'
p5
aS'sirop caribbean (saveur rhum)'
p6
aa(lp7
S'10.0'
p8
aS'cl de'
p9
aS"jus d'ananas"
p10
aa(lp11
S'5.0'
p12
aS'cl de'
p13
aS'lait de coco'
p14
aaa.