(lp0
S'Jazz sous les pommiers'
p1
aF3.3
aI4
a(lp2
(lp3
S'3.0'
p4
aS'cl de'
p5
aS'calvados'
p6
aa(lp7
S'1.5'
p8
aS'cl de'
p9
aS'jus de pommes'
p10
aa(lp11
S'1.5'
p12
aS'cl de'
p13
aS"jus d'abricots"
p14
aa(lp15
S'0.5'
p16
aS'cl de'
p17
aS'jus de citrons'
p18
aa(lp19
S'0.5'
p20
aS'cl de'
p21
aS'sirop de grenadine'
p22
aaa.