(lp0
S'Rosy Snapper Martini'
p1
aF3.5
aI4
a(lp2
(lp3
S'3.5'
p4
aS'cl de'
p5
aS'liqueur de romarin'
p6
aa(lp7
S'2.5'
p8
aS'cl de'
p9
aS'vodka'
p10
aa(lp11
S'5.0'
p12
aS'None'
p13
aS'tomates cerises'
p14
aa(lp15
S'5.0'
p16
aS'feuilles de'
p17
aS'basilic'
p18
aa(lp19
S'1.0'
p20
aS'pointe de'
p21
aS'sel de celeri'
p22
aa(lp23
S'1.0'
p24
aS'trait de'
p25
aS'sauce worcestershire'
p26
aa(lp27
S'1.0'
p28
aS'cl de'
p29
aS'jus de citrons'
p30
aaa.