(lp0
S'Diabolo flamand'
p1
aF2.9
aI15
a(lp2
(lp3
S'4.0'
p4
aS'cl de'
p5
aS'geni\xc3\xa8vre'
p6
aa(lp7
S'2.0'
p8
aS'cl de'
p9
aS'sirop de violette'
p10
aa(lp11
S'16.0'
p12
aS'cl de'
p13
aS'limonade (soda, sprite, 7up)'
p14
aaa.