(lp0
S'Sangria verde'
p1
aF2.1
aI7
a(lp2
(lp3
S'None'
p4
aS'None'
p5
aS'eau gazeuse (perrier, salvetat)'
p6
aa(lp7
S'1.0'
p8
aS'None'
p9
aS'orange'
p10
aa(lp11
S'1.0'
p12
aS'bouteille de'
p13
aS'vin vert (vinho verde)'
p14
aa(lp15
S'2.0'
p16
aS'cuill\xc3\xa8res \xc3\xa0 caf\xc3\xa9 de'
p17
aS'sucre'
p18
aa(lp19
S'3.0'
p20
aS'cl de'
p21
aS'brandy'
p22
aa(lp23
S'3.0'
p24
aS'cl de'
p25
aS'triple sec (cointreau, grand marnier)'
p26
aa(lp27
S'1.0'
p28
aS'None'
p29
aS'citron'
p30
aaa.