(lp0
S'Liqueur de cannelle'
p1
aF3.5
aI10
a(lp2
(lp3
S'2.0'
p4
aS'None'
p5
aS'b\xc3\xa2tons de cannelle'
p6
aa(lp7
S'50.0'
p8
aS"cl d'"
p9
aS'alcool de fruits'
p10
aa(lp11
S'350.0'
p12
aS'grammes de'
p13
aS'sucre'
p14
aaa.