(lp0
S'Izcaragua'
p1
aF3.0
aI1
a(lp2
(lp3
S'0.25'
p4
aS'volumes de'
p5
aS'whisky (bourbon, whiskey)'
p6
aa(lp7
S'0.25'
p8
aS'volumes de'
p9
aS'vermouth dry (martini, noilly prat)'
p10
aa(lp11
S'0.25'
p12
aS'volumes de'
p13
aS'amaretto'
p14
aa(lp15
S'0.25'
p16
aS'volumes de'
p17
aS'cr\xc3\xa8me de bananes'
p18
aa(lp19
S'1.0'
p20
aS'zeste de'
p21
aS'citrons verts'
p22
aaa.