(lp0
S'TGV WR'
p1
aF3.8
aI5
a(lp2
(lp3
S'4.0'
p4
aS'cl de'
p5
aS'tequila'
p6
aa(lp7
S'4.0'
p8
aS'cl de'
p9
aS'gin'
p10
aa(lp11
S'4.0'
p12
aS'cl de'
p13
aS'vodka'
p14
aa(lp15
S'2.0'
p16
aS'cl de'
p17
aS'whisky (bourbon, whiskey)'
p18
aa(lp19
S'2.0'
p20
aS'cl de'
p21
aS'spiritueux anis\xc3\xa9 (pastis, ricard, pernod)'
p22
aa(lp23
S'5.0'
p24
aS'cl de'
p25
aS'sirop de citron vert'
p26
aaa.