(lp0
S'Frustuck'
p1
aF3.0
aI2
a(lp2
(lp3
S'1.0'
p4
aS'None'
p5
aS'petits beurre'
p6
aa(lp7
S'1.0'
p8
aS'cl de'
p9
aS'cr\xc3\xa8me de whisky (baileys)'
p10
aa(lp11
S'1.33333333333'
p12
aS'cl de'
p13
aS'vodka'
p14
aaa.