(lp0
S'Liqueur de violettes'
p1
aF2.8
aI55
a(lp2
(lp3
S'0.05'
p4
aS"verre d'"
p5
aS'eau'
p6
aa(lp7
S'18.75'
p8
aS'grammes de'
p9
aS'sucre'
p10
aa(lp11
S'9.0'
p12
aS'grammes de'
p13
aS'fleurs de violettes'
p14
aa(lp15
S'0.0375'
p16
aS'de litre de'
p17
aS'vodka'
p18
aaa.