(lp0
S'Citron vert givre'
p1
aF3.5
aI11
a(lp2
(lp3
S'2.0'
p4
aS'cl de'
p5
aS'sirop de menthe'
p6
aa(lp7
S'2.0'
p8
aS'cl de'
p9
aS'jus de pamplemousses'
p10
aa(lp11
S'1.0'
p12
aS'boule de'
p13
aS'sorbet de citron vert'
p14
aaa.