(lp0
S'KGB'
p1
aF4.2
aI5
a(lp2
(lp3
S'1.0'
p4
aS'part de'
p5
aS'liqueur de caf\xc3\xa9 (kahlua, marie brizard)'
p6
aa(lp7
S'1.0'
p8
aS'part de'
p9
aS'cr\xc3\xa8me de whisky (baileys)'
p10
aa(lp11
S'1.0'
p12
aS'part de'
p13
aS'triple sec (cointreau, grand marnier)'
p14
aaa.