(lp0
S'Grand Slam'
p1
aF3.0
aI5
a(lp2
(lp3
S'1.0'
p4
aS'cl de'
p5
aS'gin'
p6
aa(lp7
S'1.0'
p8
aS'cl de'
p9
aS'vodka'
p10
aa(lp11
S'1.0'
p12
aS'cl de'
p13
aS'tequila'
p14
aa(lp15
S'1.0'
p16
aS'cl de'
p17
aS'triple sec (cointreau, grand marnier)'
p18
aa(lp19
S'1.0'
p20
aS'cl de'
p21
aS'liqueur de p\xc3\xaaches'
p22
aa(lp23
S'0.5'
p24
aS'cl de'
p25
aS'rhum blanc'
p26
aa(lp27
S'1.0'
p28
aS'cl de'
p29
aS'jus de citrons verts'
p30
aa(lp31
S'None'
p32
aS'None'
p33
aS'cola (coca cola, pepsi)'
p34
aaa.