(lp0
S"Car'hot"
p1
aF2.9
aI7
a(lp2
(lp3
S'6.0'
p4
aS'cl de'
p5
aS'jus de carottes'
p6
aa(lp7
S'1.0'
p8
aS'cl de'
p9
aS'triple sec (cointreau, grand marnier)'
p10
aa(lp11
S'2.0'
p12
aS'cl de'
p13
aS'liqueur de gingembre'
p14
aa(lp15
S'4.0'
p16
aS'cl de'
p17
aS'rhum blanc'
p18
aaa.