(lp0
S'Green Tomato'
p1
aF3.0
aI1
a(lp2
(lp3
S'1.0'
p4
aS'cl de'
p5
aS'chartreuse verte'
p6
aa(lp7
S'1.0'
p8
aS'cl de'
p9
aS'jus de tomates'
p10
aa(lp11
S'1.0'
p12
aS'trait de'
p13
aS'tabasco'
p14
aaa.