(lp0
S'Liqueur de serpolet'
p1
aF2.4
aI8
a(lp2
(lp3
S'1.0'
p4
aS"litre d'"
p5
aS'eau-de-vie'
p6
aa(lp7
S'25.0'
p8
aS'grammes de'
p9
aS'serpolet'
p10
aa(lp11
S'250.0'
p12
aS'grammes de'
p13
aS'sucre'
p14
aaa.