(lp0
S'Evain'
p1
aF3.3
aI10
a(lp2
(lp3
S'0.75'
p4
aS'litres de'
p5
aS'rhum blanc'
p6
aa(lp7
S'1.0'
p8
aS'litres de'
p9
aS"jus d'ananas"
p10
aa(lp11
S'1.0'
p12
aS'litres de'
p13
aS'jus de raisins'
p14
aa(lp15
S'1.0'
p16
aS'litres de'
p17
aS'jus de bananes'
p18
aa(lp19
S'1.0'
p20
aS'litres de'
p21
aS'vin blanc'
p22
aa(lp23
S'2.5'
p24
aS'trait de'
p25
aS'jus de citrons'
p26
aaa.