(lp0
S'Fish house cup'
p1
aF3.0
aI3
a(lp2
(lp3
S'None'
p4
aS'cl de'
p5
aS'sirop de sucre de canne'
p6
aa(lp7
S'0.25'
p8
aS'bouteille de'
p9
aS'cr\xc3\xa8me de p\xc3\xaache de vigne'
p10
aa(lp11
S'0.25'
p12
aS'bouteille de'
p13
aS'rhum blanc'
p14
aa(lp15
S'0.5'
p16
aS'bouteille de'
p17
aS'cognac'
p18
aa(lp19
S'None'
p20
aS'jus de 5'
p21
aS'citrons'
p22
aaa.