(lp0
S'Ginger Beer'
p1
aF2.8
aI13
a(lp2
(lp3
S'150.0'
p4
aS'grammes de'
p5
aS'gingembre'
p6
aa(lp7
S'1.0'
p8
aS'None'
p9
aS'citron'
p10
aa(lp11
S'140.0'
p12
aS'grammes de'
p13
aS'sucre'
p14
aa(lp15
S'1.0'
p16
aS"litre d'"
p17
aS'eau'
p18
aa(lp19
S'4.0'
p20
aS'grammes de'
p21
aS'levure de boulanger'
p22
aa(lp23
S'4.0'
p24
aS"grammes d'"
p25
aS'acide tartrique'
p26
aaa.