(lp0
S'Venus aphro'
p1
aF2.7
aI15
a(lp2
(lp3
S'5.0'
p4
aS'cl de'
p5
aS'rhum blanc'
p6
aa(lp7
S'1.5'
p8
aS'cl de'
p9
aS"sirop d'\xc3\xa9pices (spicy)"
p10
aa(lp11
S'1.5'
p12
aS'cl de'
p13
aS'sirop de cannelle'
p14
aa(lp15
S'1.5'
p16
aS'cl de'
p17
aS'sirop de fraises'
p18
aa(lp19
S'15.0'
p20
aS'cl de'
p21
aS'jus de cranberry (canneberges)'
p22
aa(lp23
S'5.0'
p24
aS'cl de'
p25
aS'jus de citrons'
p26
aaa.