(lp0
S'Oyster'
p1
aF3.3
aI37
a(lp2
(lp3
S'3.0'
p4
aS'cl de'
p5
aS'jus de citrons'
p6
aa(lp7
S'3.0'
p8
aS'cl de'
p9
aS'cognac'
p10
aa(lp11
S'None'
p12
aS'None'
p13
aS'jus de tomates'
p14
aa(lp15
S'3.0'
p16
aS'None'
p17
aS'hu\xc3\xaetres'
p18
aa(lp19
S'1.0'
p20
aS'pinc\xc3\xa9e de'
p21
aS'poivre'
p22
aa(lp23
S'1.0'
p24
aS'cl de'
p25
aS'sauce anglaise'
p26
aaa.