(lp0
S'Lemon flip'
p1
aF3.4
aI8
a(lp2
(lp3
S'6.0'
p4
aS'cl de'
p5
aS'sirop de sucre de canne'
p6
aa(lp7
S'4.0'
p8
aS'cl de'
p9
aS'jus de citrons'
p10
aa(lp11
S'1.0'
p12
aS"jaune d'"
p13
aS'oeufs'
p14
aaa.