(lp0
S'Mauresque'
p1
aF3.4
aI118
a(lp2
(lp3
S'15.0'
p4
aS'cl de'
p5
aS'eau'
p6
aa(lp7
S'1.0'
p8
aS'cl de'
p9
aS"sirop d'orgeat"
p10
aa(lp11
S'3.0'
p12
aS'cl de'
p13
aS'spiritueux anis\xc3\xa9 (pastis, ricard, pernod)'
p14
aaa.