(lp0
S'Bolide'
p1
aF3.0
aI23
a(lp2
(lp3
S'2.0'
p4
aS'cl de'
p5
aS'tequila'
p6
aa(lp7
S'3.0'
p8
aS'cl de'
p9
aS'cognac'
p10
aa(lp11
S'1.0'
p12
aS'cl de'
p13
aS'cr\xc3\xa8me de cassis'
p14
aa(lp15
S'10.0'
p16
aS'cl de'
p17
aS"jus d'ananas"
p18
aa(lp19
S'1.0'
p20
aS'cl de'
p21
aS'cura\xc3\xa7ao bleu'
p22
aa(lp23
S'0.5'
p24
aS'cl de'
p25
aS'sirop de grenadine'
p26
aaa.