(lp0
S'Zombie 3'
p1
aF2.8
aI143
a(lp2
(lp3
S'2.0'
p4
aS'cl de'
p5
aS'liqueur de caf\xc3\x83\xc2\xa9 (kahlua, marie brizard)'
p6
aa(lp7
S'2.0'
p8
aS'cl de'
p9
aS'liqueur de coco (cocogif, malibu)'
p10
aa(lp11
S'4.0'
p12
aS'cl de'
p13
aS'rhum ambr\xc3\x83\xc2\xa9'
p14
aa(lp15
S'4.0'
p16
aS'cl de'
p17
aS"jus d'ananas"
p18
aaa.