(lp0
S'Sweet Pacha'
p1
aF3.0
aI2
a(lp2
(lp3
S'1.0'
p4
aS'cl de'
p5
aS'vodka'
p6
aa(lp7
S'1.0'
p8
aS'cl de'
p9
aS'triple sec (cointreau, grand marnier)'
p10
aa(lp11
S'2.0'
p12
aS'cl de'
p13
aS'cr\xc3\xa8me de fruit de la passion'
p14
aa(lp15
S'1.0'
p16
aS'cl de'
p17
aS'jus de cranberry (canneberges)'
p18
aa(lp19
S'4.0'
p20
aS'cl de'
p21
aS"jus d'ananas"
p22
aa(lp23
S'1.0'
p24
aS'trait de'
p25
aS'jus de citrons verts'
p26
aaa.