(lp0
S'Margarita Sans Alcool'
p1
aF3.3
aI58
a(lp2
(lp3
S'1.0'
p4
aS'cl de'
p5
aS'sirop saveur tequila'
p6
aa(lp7
S'2.0'
p8
aS'cl de'
p9
aS'sirop de cura\xc3\xa7ao bleu'
p10
aa(lp11
S'7.0'
p12
aS'cl de'
p13
aS'jus de citrons verts'
p14
aaa.