(lp0
S'Grape Me'
p1
aF3.4
aI9
a(lp2
(lp3
S'2.0'
p4
aS'cl de'
p5
aS'vermouth rouge (martini, cinzano)'
p6
aa(lp7
S'3.0'
p8
aS"gouttes d'"
p9
aS'angostura bitters'
p10
aa(lp11
S'1.0'
p12
aS'cl de'
p13
aS'gin'
p14
aa(lp15
S'2.0'
p16
aS'cl de'
p17
aS'jus de citrons'
p18
aa(lp19
S'2.0'
p20
aS'cl de'
p21
aS"jus d'oranges"
p22
aa(lp23
S'10.0'
p24
aS'cl de'
p25
aS'jus de raisins'
p26
aaa.