(lp0
S'Babylon Kiss'
p1
aF3.9
aI7
a(lp2
(lp3
S'2.0'
p4
aS'cl de'
p5
aS'jus de fruit de la passion (maracuja)'
p6
aa(lp7
S'1.5'
p8
aS'cl de'
p9
aS'jus de citrons verts'
p10
aa(lp11
S'1.5'
p12
aS'cl de'
p13
aS'cura\xc3\xa7ao bleu'
p14
aa(lp15
S'1.5'
p16
aS'cl de'
p17
aS'triple sec (cointreau, grand marnier)'
p18
aa(lp19
S'0.5'
p20
aS'cl de'
p21
aS'parfait amour'
p22
aaa.