(lp0
S'Godinette (punch breton)'
p1
aF3.4
aI15
a(lp2
(lp3
S'50.0'
p4
aS'cl de'
p5
aS'eau-de-vie de framboises'
p6
aa(lp7
S'1000.0'
p8
aS'grammes de'
p9
aS'fraises'
p10
aa(lp11
S'500.0'
p12
aS'grammes de'
p13
aS'sucre'
p14
aa(lp15
S'5.0'
p16
aS'bouteilles de'
p17
aS'muscadet'
p18
aaa.