(lp0
S'Elevator'
p1
aF3.0
aI2
a(lp2
(lp3
S'1.0'
p4
aS'cl de'
p5
aS'triple sec (cointreau, grand marnier)'
p6
aa(lp7
S'1.0'
p8
aS'cl de'
p9
aS'calvados'
p10
aa(lp11
S'1.0'
p12
aS'cl de'
p13
aS'liqueur de menthe verte (get 27)'
p14
aa(lp15
S'1.0'
p16
aS'cl de'
p17
aS'liqueur de cacao blanc'
p18
aa(lp19
S'1.0'
p20
aS'cl de'
p21
aS'sirop de cassis'
p22
aaa.