(lp0
S'Renti\xc3\xa8re'
p1
aF3.6
aI8
a(lp2
(lp3
S'3.0'
p4
aS'cl de'
p5
aS'gin'
p6
aa(lp7
S'2.0'
p8
aS'cl de'
p9
aS'sirop de framboises'
p10
aa(lp11
S'3.0'
p12
aS"gouttes d'"
p13
aS'angostura bitters'
p14
aa(lp15
S'2.0'
p16
aS'cl de'
p17
aS'jus de citrons'
p18
aa(lp19
S'3.0'
p20
aS'cl de'
p21
aS"jus d'oranges"
p22
aaa.