(lp0
S'Nordic summer'
p1
aF2.3
aI6
a(lp2
(lp3
S'1.0'
p4
aS'None'
p5
aS'cerise'
p6
aa(lp7
S'1.0'
p8
aS'rondelle de'
p9
aS'citrons verts'
p10
aa(lp11
S'0.5'
p12
aS'cl de'
p13
aS'sirop de grenadine'
p14
aa(lp15
S'8.0'
p16
aS'cl de'
p17
aS"jus d'oranges"
p18
aa(lp19
S'2.0'
p20
aS'cl de'
p21
aS'jus de citrons verts'
p22
aa(lp23
S'2.0'
p24
aS'cl de'
p25
aS'sirop de fruit de la passion (maracuja)'
p26
aa(lp27
S'4.0'
p28
aS'cl de'
p29
aS'vodka'
p30
aaa.