(lp0
S'Rhum okapi'
p1
aF3.0
aI4
a(lp2
(lp3
S'100.0'
p4
aS'cl de'
p5
aS'rhum blanc'
p6
aa(lp7
S'4.0'
p8
aS'cl de'
p9
aS'sirop de cannelle'
p10
aa(lp11
S'5.0'
p12
aS'pinc\xc3\xa9es de'
p13
aS'clous de girofle'
p14
aa(lp15
S'4.0'
p16
aS'pinc\xc3\xa9es de'
p17
aS'cardamome'
p18
aa(lp19
S'15.0'
p20
aS'cl de'
p21
aS'sirop de gingembre'
p22
aa(lp23
S'0.666666666667'
p24
aS'zeste de'
p25
aS'b\xc3\xa2tons de reglisse'
p26
aa(lp27
S'6.0'
p28
aS'pinc\xc3\xa9es de'
p29
aS'poivre de cayenne'
p30
aa(lp31
S'0.5'
p32
aS'pinc\xc3\xa9es de'
p33
aS'gousses de vanille'
p34
aa(lp35
S'2.0'
p36
aS'pinc\xc3\xa9es de'
p37
aS'anis'
p38
aaa.