(lp0
S'Haribo bill'
p1
aF4.0
aI5
a(lp2
(lp3
S'12.0'
p4
aS'cl de'
p5
aS"jus d'ananas"
p6
aa(lp7
S'3.0'
p8
aS'cl de'
p9
aS'liqueur de bananes (pisang ambon)'
p10
aa(lp11
S'3.0'
p12
aS'cl de'
p13
aS'liqueur de coco (cocogif, malibu)'
p14
aaa.