(lp0
S'Vin de geni\xc3\xa8vre'
p1
aF2.7
aI6
a(lp2
(lp3
S'5.0'
p4
aS'kilos de'
p5
aS'baies de geni\xc3\xa8vre'
p6
aa(lp7
S'0.5'
p8
aS'kilos de'
p9
aS'sirop de miel'
p10
aa(lp11
S'0.2'
p12
aS'kilos de'
p13
aS'levain de farine'
p14
aa(lp15
S'10.0'
p16
aS"litres d'"
p17
aS'eau'
p18
aaa.