(lp0
S'El Goipeador'
p1
aF3.0
aI1
a(lp2
(lp3
S'8.0'
p4
aS'cl de'
p5
aS'whisky (bourbon, whiskey)'
p6
aa(lp7
S'5.0'
p8
aS'cl de'
p9
aS'vodka'
p10
aa(lp11
S'None'
p12
aS'cl de'
p13
aS'sirop de sucre de canne'
p14
aa(lp15
S'7.0'
p16
aS'cl de'
p17
aS'cola (coca cola, pepsi)'
p18
aa(lp19
S'15.0'
p20
aS'cl de'
p21
aS'cura\xc3\xa7ao bleu'
p22
aa(lp23
S'10.0'
p24
aS'cl de'
p25
aS'gin'
p26
aa(lp27
S'2.0'
p28
aS'None'
p29
aS'citrons verts'
p30
aa(lp31
S'5.0'
p32
aS'cl de'
p33
aS'liqueur de coco (cocogif, malibu)'
p34
aa(lp35
S'None'
p36
aS'None'
p37
aS'cr\xc3\xa8me fra\xc3\xaeche liquide'
p38
aaa.