(lp0
S'Zephyr'
p1
aF3.7
aI6
a(lp2
(lp3
S'3.0'
p4
aS'cl de'
p5
aS'cognac'
p6
aa(lp7
S'1.5'
p8
aS'cl de'
p9
aS'cr\xc3\xa8me de cassis'
p10
aa(lp11
S'1.5'
p12
aS'cl de'
p13
aS'triple sec (cointreau, grand marnier)'
p14
aa(lp15
S'1.5'
p16
aS'cl de'
p17
aS'jus de citrons verts'
p18
aa(lp19
S'None'
p20
aS'None'
p21
aS'champagne'
p22
aaa.