(lp0
S'Pineapple cooler'
p1
aF3.2
aI5
a(lp2
(lp3
S'20.0'
p4
aS'cl de'
p5
aS"jus d'ananas"
p6
aa(lp7
S'10.0'
p8
aS'cl de'
p9
aS'bitter lemon'
p10
aa(lp11
S'1.0'
p12
aS'cl de'
p13
aS'jus de citrons verts'
p14
aa(lp15
S'5.0'
p16
aS"traits d'"
p17
aS'angostura bitters'
p18
aaa.