(lp0
S'Liqueur de thym'
p1
aF3.2
aI39
a(lp2
(lp3
S'100.0'
p4
aS'grammes de'
p5
aS'thym'
p6
aa(lp7
S'1.0'
p8
aS"litre d'"
p9
aS'eau-de-vie'
p10
aa(lp11
S'400.0'
p12
aS'grammes de'
p13
aS'sucre'
p14
aa(lp15
S'40.0'
p16
aS"cl d'"
p17
aS'eau'
p18
aaa.