(lp0
S'Amarena'
p1
aF3.6
aI13
a(lp2
(lp3
S'10.0'
p4
aS'cl de'
p5
aS'jus de citrons'
p6
aa(lp7
S'85.0'
p8
aS'cl de'
p9
aS'jus de grenades'
p10
aa(lp11
S'75.0'
p12
aS'grammes de'
p13
aS'p\xc3\xaaches blanches'
p14
aa(lp15
S'5.0'
p16
aS"cl d'"
p17
aS'eau'
p18
aa(lp19
S'10.0'
p20
aS'grammes de'
p21
aS'framboises'
p22
aaa.