(lp0
S'Tomate-menthe'
p1
aF3.0
aI4
a(lp2
(lp3
S'0.8'
p4
aS'litres de'
p5
aS'jus de tomates'
p6
aa(lp7
S'4.0'
p8
aS'sachets de'
p9
aS'th\xc3\xa9 \xc3\xa0 la menthe'
p10
aa(lp11
S'6.0'
p12
aS'rondelles de'
p13
aS'citrons'
p14
aa(lp15
S'None'
p16
aS'None'
p17
aS'poivre'
p18
aaa.