(lp0
S'Martinez'
p1
aF2.6
aI15
a(lp2
(lp3
S'2.0'
p4
aS'gouttes de'
p5
aS'marasquin'
p6
aa(lp7
S'1.0'
p8
aS"goutte d'"
p9
aS'angostura bitters'
p10
aa(lp11
S'5.0'
p12
aS'cl de'
p13
aS'vermouth rouge (martini, cinzano)'
p14
aa(lp15
S'2.5'
p16
aS'cl de'
p17
aS'gin'
p18
aaa.