(lp0
S'Sweet daniele'
p1
aF2.9
aI27
a(lp2
(lp3
S'None'
p4
aS'None'
p5
aS'champagne'
p6
aa(lp7
S'1.5'
p8
aS'cl de'
p9
aS'liqueur de bananes (pisang ambon)'
p10
aa(lp11
S'1.5'
p12
aS'cl de'
p13
aS'gin'
p14
aa(lp15
S'0.5'
p16
aS'cl de'
p17
aS'cura\xc3\xa7ao bleu'
p18
aaa.