(lp0
S'Liqueur de lavande'
p1
aF2.1
aI19
a(lp2
(lp3
S'50.0'
p4
aS"cl d'"
p5
aS'alcool de fruits'
p6
aa(lp7
S'400.0'
p8
aS'grammes de'
p9
aS'sucre'
p10
aa(lp11
S'1.0'
p12
aS'bonne poign\xc3\xa9e de'
p13
aS'fleurs de lavande'
p14
aaa.