(lp0
S'Bloody caesar'
p1
aF3.8
aI140
a(lp2
(lp3
S'12.0'
p4
aS'cl de'
p5
aS'jus de tomates'
p6
aa(lp7
S'5.0'
p8
aS'gouttes de'
p9
aS'tabasco'
p10
aa(lp11
S'1.0'
p12
aS'cuill\xc3\xa8re \xc3\xa0 caf\xc3\xa9 de'
p13
aS'sauce worcestershire'
p14
aa(lp15
S'1.0'
p16
aS'pinc\xc3\xa9e de'
p17
aS'sel'
p18
aa(lp19
S'1.0'
p20
aS'pinc\xc3\xa9e de'
p21
aS'poivre'
p22
aa(lp23
S'4.0'
p24
aS'cl de'
p25
aS'vodka'
p26
aaa.