(lp0
S'Moulin Rouge'
p1
aF4.0
aI4
a(lp2
(lp3
S'3.0'
p4
aS'cl de'
p5
aS'gin'
p6
aa(lp7
S'2.0'
p8
aS'cl de'
p9
aS"liqueur d'abricots (abricot brandy)"
p10
aa(lp11
S'2.0'
p12
aS'cl de'
p13
aS'jus de citrons'
p14
aa(lp15
S'1.0'
p16
aS'cl de'
p17
aS'triple sec (cointreau, grand marnier)'
p18
aa(lp19
S'0.5'
p20
aS'cl de'
p21
aS'sirop de grenadine'
p22
aaa.