(lp0
S'Caf\xc3\xa9 de Paris'
p1
aF1.0
aI2
a(lp2
(lp3
S'0.5'
p4
aS"blanc d'"
p5
aS'oeufs'
p6
aa(lp7
S'1.0'
p8
aS'cl de'
p9
aS'spiritueux anis\xc3\xa9 (pastis, ricard, pernod)'
p10
aa(lp11
S'1.0'
p12
aS'cuill\xc3\xa8re \xc3\xa0 caf\xc3\xa9 de'
p13
aS'cr\xc3\xa8me fra\xc3\xaeche liquide'
p14
aa(lp15
S'4.0'
p16
aS'cl de'
p17
aS'gin'
p18
aaa.