(lp0
S'Aquavit (akvavit)'
p1
aF4.0
aI1
a(lp2
(lp3
S'2.0'
p4
aS'gousses de'
p5
aS'cardamome'
p6
aa(lp7
S'2.0'
p8
aS'cuill\xc3\xa8re \xc3\xa0 caf\xc3\xa9 de graines de'
p9
aS'fenouil'
p10
aa(lp11
S'2.0'
p12
aS'cuill\xc3\xa8res \xc3\xa0 caf\xc3\xa9 de graines de'
p13
aS'cumin'
p14
aa(lp15
S'2.0'
p16
aS'None'
p17
aS'clous de girofle'
p18
aa(lp19
S'1.0'
p20
aS'None'
p21
aS'citron'
p22
aa(lp23
S'1.0'
p24
aS'None'
p25
aS'orange'
p26
aa(lp27
S'70.0'
p28
aS'cl de'
p29
aS'vodka'
p30
aa(lp31
S'1.0'
p32
aS'cuill\xc3\xa8re \xc3\xa0 caf\xc3\xa9 de'
p33
aS'sucre'
p34
aaa.