(lp0
S"Pousse d'\xc3\xa9pine"
p1
aF3.2
aI97
a(lp2
(lp3
S'0.05'
p4
aS"litre d'"
p5
aS'eau-de-vie'
p6
aa(lp7
S'0.2'
p8
aS'litres de'
p9
aS'vin'
p10
aa(lp11
S'0.05'
p12
aS'grosse poign\xc3\xa9e de'
p13
aS"jeune pousse d'\xc3\xa9pine noire"
p14
aa(lp15
S'37.5'
p16
aS'grammes de'
p17
aS'sucre'
p18
aaa.