(lp0
S'Imp\xc3\xa9rialement v\xc3\xb4tre'
p1
aF4.4
aI7
a(lp2
(lp3
S'6.0'
p4
aS'cl de'
p5
aS'vodka'
p6
aa(lp7
S'3.0'
p8
aS'cl de'
p9
aS'liqueur de poire'
p10
aa(lp11
S'1.0'
p12
aS'cl de'
p13
aS'liqueur mandarine napol\xc3\xa9on'
p14
aa(lp15
S'0.5'
p16
aS'cl de'
p17
aS'cr\xc3\xa8me fra\xc3\xaeche liquide'
p18
aaa.