(lp0
S'Viagra'
p1
aF3.0
aI136
a(lp2
(lp3
S'25.0'
p4
aS'cl de'
p5
aS'cr\xc3\xa8me fra\xc3\xaeche liquide'
p6
aa(lp7
S'37.5'
p8
aS'cl de'
p9
aS'lait'
p10
aa(lp11
S'None'
p12
aS'None'
p13
aS'chocolat en poudre'
p14
aa(lp15
S'0.5'
p16
aS'gousse de'
p17
aS'vanille'
p18
aaa.