(lp0
S'Soupe de Champagne'
p1
aF3.3
aI1823
a(lp2
(lp3
S'0.166666666667'
p4
aS'louche de'
p5
aS'triple sec (cointreau, grand marnier)'
p6
aa(lp7
S'0.166666666667'
p8
aS'bouteille de'
p9
aS'champagne'
p10
aa(lp11
S'0.166666666667'
p12
aS'louche de'
p13
aS'jus de citrons verts'
p14
aa(lp15
S'0.166666666667'
p16
aS'louche de'
p17
aS'sirop de sucre de canne'
p18
aaa.