(lp0
S'Green Fizz'
p1
aF3.4
aI8
a(lp2
(lp3
S'6.0'
p4
aS'cl de'
p5
aS'vodka'
p6
aa(lp7
S'2.0'
p8
aS'cl de'
p9
aS'liqueur de menthe verte (get 27)'
p10
aa(lp11
S'2.0'
p12
aS'cl de'
p13
aS'jus de citrons'
p14
aa(lp15
S'1.0'
p16
aS"blanc d'"
p17
aS'oeufs'
p18
aaa.