(lp0
S'Rabbi Jabob Flower'
p1
aF3.3
aI4
a(lp2
(lp3
S'1.0'
p4
aS'cl de'
p5
aS'marasquin'
p6
aa(lp7
S'1.0'
p8
aS'cl de'
p9
aS'sirop de jasmin'
p10
aa(lp11
S'2.0'
p12
aS'cl de'
p13
aS'vodka'
p14
aa(lp15
S'None'
p16
aS'None'
p17
aS"schweppes agrum'"
p18
aaa.