(lp0
S'Ours blanc'
p1
aF2.3
aI3
a(lp2
(lp3
S'1.0'
p4
aS'cl de'
p5
aS'cr\xc3\xa8me fra\xc3\xaeche liquide'
p6
aa(lp7
S'3.0'
p8
aS'cl de'
p9
aS'tequila'
p10
aa(lp11
S'0.5'
p12
aS'cl de'
p13
aS'jus de citrons'
p14
aa(lp15
S'1.0'
p16
aS'cl de'
p17
aS'amaretto'
p18
aa(lp19
S'2.0'
p20
aS'cl de'
p21
aS'cr\xc3\xa8me de bananes'
p22
aaa.