(lp0
S'Slippery nipple'
p1
aF4.3
aI4
a(lp2
(lp3
S'1.0'
p4
aS'goutte de'
p5
aS'sirop de grenadine'
p6
aa(lp7
S'0.5'
p8
aS'de'
p9
aS'sambuca'
p10
aa(lp11
S'0.5'
p12
aS'de'
p13
aS'cr\xc3\xa8me de whisky (baileys)'
p14
aaa.