(lp0
S'Godinette (punch breton)'
p1
aF3.4
aI15
a(lp2
(lp3
S'3.33333333333'
p4
aS'cl de'
p5
aS'eau-de-vie de framboises'
p6
aa(lp7
S'66.6666666667'
p8
aS'grammes de'
p9
aS'fraises'
p10
aa(lp11
S'33.3333333333'
p12
aS'grammes de'
p13
aS'sucre'
p14
aa(lp15
S'0.333333333333'
p16
aS'bouteilles de'
p17
aS'muscadet'
p18
aaa.