(lp0
S'Sexotic'
p1
aF4.3
aI3
a(lp2
(lp3
S'1.0'
p4
aS'demi '
p5
aS'mangues'
p6
aa(lp7
S'2.0'
p8
aS"tranches d'"
p9
aS'ananas'
p10
aa(lp11
S'4.0'
p12
aS'None'
p13
aS'lychees (litchis)'
p14
aa(lp15
S'1.0'
p16
aS'pinc\xc3\xa9e de'
p17
aS'cannelle'
p18
aaa.