(lp0
S'Pinneapple angle'
p1
aF4.0
aI4
a(lp2
(lp3
S'6.0'
p4
aS'cl de'
p5
aS"jus d'ananas"
p6
aa(lp7
S'2.0'
p8
aS'cl de'
p9
aS"sirop d'orgeat"
p10
aa(lp11
S'1.0'
p12
aS'None'
p13
aS'oeuf'
p14
aa(lp15
S'1.0'
p16
aS'boule de glace \xc3\xa0 la'
p17
aS'vanille'
p18
aaa.