(lp0
S'SOS'
p1
aF5.0
aI1
a(lp2
(lp3
S'5.0'
p4
aS'cl'
p5
aS'tequila'
p6
aa(lp7
S'5.0'
p8
aS'cl'
p9
aS'vodka'
p10
aa(lp11
S'1.0'
p12
aS'trait'
p13
aS'liqueur de caf\xc3\xa9 (kahlua, marie brizard)'
p14
aa(lp15
S'None'
p16
aS'None'
p17
aS'lait'
p18
aa(lp19
S'1.0'
p20
aS'pinc\xc3\xa9e de'
p21
aS'cannelle'
p22
aaa.