(lp0
S"Cerises \xc3\xa0 l'eau de vie"
p1
aF3.8
aI16
a(lp2
(lp3
S'120.0'
p4
aS'grammes de'
p5
aS'sucre'
p6
aa(lp7
S'500.0'
p8
aS'grammes de'
p9
aS'cerises'
p10
aa(lp11
S'500.0'
p12
aS"grammes d'"
p13
aS'eau-de-vie de fruits'
p14
aaa.