(lp0
S'Banana Split'
p1
aF3.3
aI7
a(lp2
(lp3
S'10.0'
p4
aS'cl de'
p5
aS'jus de bananes'
p6
aa(lp7
S'8.0'
p8
aS'cl de'
p9
aS'jus de fraises'
p10
aa(lp11
S'2.0'
p12
aS'cl de'
p13
aS'sirop de chocolat'
p14
aa(lp15
S'5.0'
p16
aS'cl de'
p17
aS'cr\xc3\xa8me chantilly'
p18
aaa.