(lp0
S'Havana beach'
p1
aF3.3
aI6
a(lp2
(lp3
S'4.0'
p4
aS'zeste de'
p5
aS'gingembre'
p6
aa(lp7
S'0.25'
p8
aS'cl de'
p9
aS'citrons verts'
p10
aa(lp11
S'2.0'
p12
aS'cl de'
p13
aS'sirop de caramel'
p14
aa(lp15
S'5.0'
p16
aS'cl de'
p17
aS'rhum cubain'
p18
aa(lp19
S'6.0'
p20
aS'cl de'
p21
aS'limonade (soda, sprite, 7up)'
p22
aaa.