(lp0
S'Danieli'
p1
aF3.0
aI2
a(lp2
(lp3
S'0.6'
p4
aS"d'"
p5
aS'aurum'
p6
aa(lp7
S'0.2'
p8
aS"d'"
p9
aS'eau-de-vie de framboises'
p10
aa(lp11
S'0.2'
p12
aS'de'
p13
aS'jus de citron'
p14
aa(lp15
S'0.5'
p16
aS'cl de'
p17
aS'sirop de fraises'
p18
aaa.