(lp0
S'Orelia'
p1
aF3.0
aI2
a(lp2
(lp3
S'3.0'
p4
aS'cl de'
p5
aS'jus de citrons'
p6
aa(lp7
S'3.0'
p8
aS'cl de'
p9
aS'tequila'
p10
aa(lp11
S'3.0'
p12
aS'cl de'
p13
aS'triple sec (cointreau, grand marnier)'
p14
aa(lp15
S'6.0'
p16
aS'cl de'
p17
aS"jus d'oranges"
p18
aa(lp19
S'0.5'
p20
aS'cl de'
p21
aS'sirop de fraises'
p22
aaa.