(lp0
S'Beijo na boca'
p1
aF3.5
aI11
a(lp2
(lp3
S'5.0'
p4
aS'cl de'
p5
aS'vodka'
p6
aa(lp7
S'2.0'
p8
aS'cl de'
p9
aS'liqueur de p\xc3\xaaches'
p10
aa(lp11
S'5.0'
p12
aS'cl de'
p13
aS"jus d'oranges"
p14
aa(lp15
S'1.0'
p16
aS'cl de'
p17
aS'sirop de framboises'
p18
aa(lp19
S'1.0'
p20
aS'boule de'
p21
aS'sorbet \xc3\xa0 la fraise'
p22
aa(lp23
S'2.0'
p24
aS'cl de'
p25
aS'sirop de fraises'
p26
aaa.