(lp0
S'Sirop de coquelicot'
p1
aF3.5
aI8
a(lp2
(lp3
S'50.0'
p4
aS"cl d'"
p5
aS'eau'
p6
aa(lp7
S'500.0'
p8
aS'grammes de'
p9
aS'sucre'
p10
aa(lp11
S'500.0'
p12
aS'grammes de'
p13
aS'fleurs de coquelicot'
p14
aaa.