(lp0
S'Raspberry Martini'
p1
aF3.2
aI5
a(lp2
(lp3
S'5.0'
p4
aS'cl de'
p5
aS'gin'
p6
aa(lp7
S'1.0'
p8
aS'cl de'
p9
aS'vermouth rose (martini, cinzano)'
p10
aa(lp11
S'1.0'
p12
aS'cl de'
p13
aS'sirop de framboises'
p14
aa(lp15
S'1.0'
p16
aS'cl de'
p17
aS'lime cordial'
p18
aaa.