(lp0
S"Everybody's irish"
p1
aF3.0
aI1
a(lp2
(lp3
S'6.0'
p4
aS'cl de'
p5
aS'whisky (bourbon, whiskey)'
p6
aa(lp7
S'0.5'
p8
aS'cl de'
p9
aS'liqueur de menthe verte (get 27)'
p10
aa(lp11
S'0.5'
p12
aS'cl de'
p13
aS'chartreuse verte'
p14
aaa.