(lp0
S'Opaline'
p1
aF3.0
aI1
a(lp2
(lp3
S'100.0'
p4
aS'cl de'
p5
aS'gin'
p6
aa(lp7
S'10.0'
p8
aS'cl de'
p9
aS'cura\xc3\xa7ao bleu'
p10
aa(lp11
S'0.5'
p12
aS'None'
p13
aS'jus de citron'
p14
aa(lp15
S'5.0'
p16
aS'litres de'
p17
aS'jus de bananes'
p18
aa(lp19
S'30.0'
p20
aS'cl de'
p21
aS"sirop d'orgeat"
p22
aaa.