(lp0
S'Diablotin'
p1
aF2.8
aI17
a(lp2
(lp3
S'None'
p4
aS'None'
p5
aS'champagne'
p6
aa(lp7
S'4.0'
p8
aS'cl de'
p9
aS'gin'
p10
aa(lp11
S'1.5'
p12
aS'cl de'
p13
aS'liqueur de poire'
p14
aa(lp15
S'1.5'
p16
aS'cl de'
p17
aS'liqueur de fraises'
p18
aa(lp19
S'1.5'
p20
aS'cl de'
p21
aS'anisette (berger blanc)'
p22
aaa.