(lp0
S'Sirop de th\xc3\xa9 vert'
p1
aF3.6
aI5
a(lp2
(lp3
S'1.0'
p4
aS"litre d'"
p5
aS'eau'
p6
aa(lp7
S'750.0'
p8
aS'grammes de'
p9
aS'sucre'
p10
aa(lp11
S'20.0'
p12
aS'grammes de'
p13
aS'th\xc3\xa9 vert'
p14
aaa.