(lp0
S'Le gosier'
p1
aF4.3
aI4
a(lp2
(lp3
S'5.0'
p4
aS'cl de'
p5
aS'jus de goyaves'
p6
aa(lp7
S'3.0'
p8
aS'cl de'
p9
aS'rhum blanc'
p10
aa(lp11
S'2.0'
p12
aS'cl de'
p13
aS'cr\xc3\xa8me de p\xc3\xaache'
p14
aaa.