(lp0
S'Ratafia aux mandarines'
p1
aF3.0
aI2
a(lp2
(lp3
S'10.0'
p4
aS'grammes de zestes de'
p5
aS'mandarines'
p6
aa(lp7
S'0.1'
p8
aS"litre d'"
p9
aS'eau-de-vie \xc3\xa0 40\xc2\xb0'
p10
aa(lp11
S'0.1'
p12
aS'morceau de'
p13
aS'cannelle'
p14
aa(lp15
S'0.2'
p16
aS'None'
p17
aS'clous de girofle'
p18
aa(lp19
S'50.0'
p20
aS'grammes de'
p21
aS'sucre'
p22
aa(lp23
S'1.0'
p24
aS"cl d'"
p25
aS'eau'
p26
aaa.