(lp0
S'Siam Sunrays'
p1
aF3.3
aI6
a(lp2
(lp3
S'4.0'
p4
aS'cl de'
p5
aS'vodka'
p6
aa(lp7
S'3.0'
p8
aS'cl de'
p9
aS'liqueur de coco (cocogif, malibu)'
p10
aa(lp11
S'1.5'
p12
aS'cl de'
p13
aS'sirop de sucre de canne'
p14
aa(lp15
S'1.0'
p16
aS'lamelle de'
p17
aS'piments rouges'
p18
aa(lp19
S'1.0'
p20
aS'lamelle de'
p21
aS'gingembre'
p22
aa(lp23
S'1.0'
p24
aS'feuille de'
p25
aS'bergamote'
p26
aa(lp27
S'3.0'
p28
aS'feuilles de'
p29
aS'citronnelle'
p30
aa(lp31
S'3.0'
p32
aS'cl de'
p33
aS'jus de citrons verts'
p34
aaa.