(lp0
S"L'instant plaisir"
p1
aF3.0
aI3
a(lp2
(lp3
S'3.0'
p4
aS"cl d'"
p5
aS'armagnac'
p6
aa(lp7
S'2.0'
p8
aS'cl de'
p9
aS'chambord'
p10
aa(lp11
S'4.0'
p12
aS'cl de'
p13
aS'coulis de framboises'
p14
aa(lp15
S'None'
p16
aS'None'
p17
aS'champagne'
p18
aa(lp19
S'None'
p20
aS'zeste de'
p21
aS'citrons verts'
p22
aaa.