(lp0
S'Pastis n\xc2\xb02'
p1
aF2.7
aI3
a(lp2
(lp3
S'1.5'
p4
aS'grammes de'
p5
aS'badiane'
p6
aa(lp7
S'0.075'
p8
aS"litres d'"
p9
aS'alcool \xc3\xa0 90\xc2\xb0'
p10
aa(lp11
S'0.5'
p12
aS"grammes d'"
p13
aS'armoise'
p14
aa(lp15
S'2.5'
p16
aS"cl d'"
p17
aS'eau'
p18
aaa.