(lp0
S'Virgin Sangria'
p1
aF3.4
aI14
a(lp2
(lp3
S'10.0'
p4
aS'cl de'
p5
aS"jus d'oranges"
p6
aa(lp7
S'3.5'
p8
aS'cl de'
p9
aS'jus de raisins'
p10
aa(lp11
S'10.0'
p12
aS'cl de'
p13
aS'ginger ale (canada dry)'
p14
aa(lp15
S'2.0'
p16
aS'None'
p17
aS'gla\xc3\xa7ons'
p18
aa(lp19
S'5.0'
p20
aS'cl de'
p21
aS'fruits de saison'
p22
aaa.