(lp0
S'Lemon Julep'
p1
aF2.7
aI20
a(lp2
(lp3
S'5.0'
p4
aS'cl de'
p5
aS'vodka au citron'
p6
aa(lp7
S'5.0'
p8
aS'cl de'
p9
aS'cr\xc3\xa8me de p\xc3\xaache'
p10
aa(lp11
S'1.0'
p12
aS"cl d'"
p13
aS'angostura bitters'
p14
aa(lp15
S'10.0'
p16
aS'feuilles de'
p17
aS'menthe'
p18
aaa.