(lp0
S'Granith\xc3\xa9'
p1
aF4.0
aI1
a(lp2
(lp3
S'30.0'
p4
aS'grammes de'
p5
aS'th\xc3\xa9 vert'
p6
aa(lp7
S'1.0'
p8
aS"litre d'"
p9
aS'eau'
p10
aa(lp11
S'6.0'
p12
aS'cuill\xc3\xa8res \xc3\xa0 soupe de'
p13
aS'stevia cristallis\xc3\xa9e'
p14
aaa.