(lp0
S'Red limon tea'
p1
aF5.0
aI2
a(lp2
(lp3
S'0.25'
p4
aS'b\xc3\xa2ton de'
p5
aS'cannelle'
p6
aa(lp7
S'2.0'
p8
aS'None'
p9
aS'clous de girofle'
p10
aa(lp11
S'0.5'
p12
aS'cl de'
p13
aS'sucre'
p14
aa(lp15
S'2.0'
p16
aS'cl de'
p17
aS'jus de citrons'
p18
aa(lp19
S'8.0'
p20
aS'cl de'
p21
aS'jus de cassis'
p22
aa(lp23
S'8.0'
p24
aS'cl de'
p25
aS'th\xc3\xa9'
p26
aaa.