(lp0
S'San diego'
p1
aF4.0
aI6
a(lp2
(lp3
S'1.5'
p4
aS'grammes de'
p5
aS'fraises'
p6
aa(lp7
S'1.5'
p8
aS'cl de'
p9
aS'jus de mangues'
p10
aa(lp11
S'4.0'
p12
aS'cl de'
p13
aS'lait entier'
p14
aa(lp15
S'0.5'
p16
aS'trait de'
p17
aS"sirop d'\xc3\xa9rable"
p18
aaa.