(lp0
S'Hypocras'
p1
aF3.0
aI23
a(lp2
(lp3
S'60.0'
p4
aS'grammes de'
p5
aS'gingembre'
p6
aa(lp7
S'30.0'
p8
aS'grammes de'
p9
aS'cannelle'
p10
aa(lp11
S'100.0'
p12
aS'grammes de'
p13
aS'sirop de miel'
p14
aa(lp15
S'1.0'
p16
aS'bouteille de'
p17
aS'vin rouge'
p18
aa(lp19
S'10.0'
p20
aS'gousses de'
p21
aS'cardamome'
p22
aa(lp23
S'10.0'
p24
aS'None'
p25
aS'clous de girofle'
p26
aaa.