(lp0
S'Youcoul\xc3\xa9l\xc3\xa9'
p1
aF2.1
aI16
a(lp2
(lp3
S'3.0'
p4
aS'cl de'
p5
aS'rhum blanc'
p6
aa(lp7
S'1.0'
p8
aS'cl de'
p9
aS'liqueur de bananes (pisang ambon)'
p10
aa(lp11
S'2.0'
p12
aS'cl de'
p13
aS'liqueur de gingembre'
p14
aa(lp15
S'2.0'
p16
aS'cl de'
p17
aS'jus de goyaves'
p18
aa(lp19
S'5.0'
p20
aS'cl de'
p21
aS'jus de mangues'
p22
aaa.