(lp0
S'Liqueur de romarin'
p1
aF3.4
aI5
a(lp2
(lp3
S'0.0909090909091'
p4
aS'litres de'
p5
aS'vodka'
p6
aa(lp7
S'0.0909090909091'
p8
aS'poign\xc3\xa9e de fleurs de'
p9
aS'romarin'
p10
aa(lp11
S'18.1818181818'
p12
aS'grammes de'
p13
aS'sucre'
p14
aaa.