(lp0
S'Sorrel punch'
p1
aF3.5
aI2
a(lp2
(lp3
S'30.0'
p4
aS'grammes de'
p5
aS"fleurs d'hibiscus"
p6
aa(lp7
S'1.0'
p8
aS'cuill\xc3\xa8re \xc3\xa0 caf\xc3\xa9 de'
p9
aS'cannelle'
p10
aa(lp11
S'3.0'
p12
aS'None'
p13
aS'clous de girofle'
p14
aa(lp15
S'2.0'
p16
aS"litres d'"
p17
aS'eau'
p18
aa(lp19
S'1.0'
p20
aS'd\xc3\xa9 de'
p21
aS'gingembre'
p22
aa(lp23
S'350.0'
p24
aS'grammes de'
p25
aS'sucre'
p26
aaa.