(lp0
S'Champion de france'
p1
aF3.1
aI163
a(lp2
(lp3
S'3.0'
p4
aS'cl de'
p5
aS'cr\xc3\xa8me de fraise des bois'
p6
aa(lp7
S'2.0'
p8
aS'cl de'
p9
aS'triple sec (cointreau, grand marnier)'
p10
aa(lp11
S'1.0'
p12
aS'trait de'
p13
aS'cura\xc3\xa7ao bleu'
p14
aa(lp15
S'2.0'
p16
aS'cl de'
p17
aS'gin'
p18
aaa.