(lp0
S'Le Scorpion'
p1
aF3.5
aI2
a(lp2
(lp3
S'8.0'
p4
aS'cl de'
p5
aS'chocolat'
p6
aa(lp7
S'4.0'
p8
aS'cl de'
p9
aS'triple sec (cointreau, grand marnier)'
p10
aa(lp11
S'1.0'
p12
aS'trait de'
p13
aS'sirop de sucre de canne'
p14
aaa.