(lp0
S'Bloody Shot'
p1
aF4.2
aI29
a(lp2
(lp3
S'3.0'
p4
aS'cl de'
p5
aS'consomm\xc3\xa9 de boeuf froid'
p6
aa(lp7
S'3.0'
p8
aS'cl de'
p9
aS'vodka'
p10
aa(lp11
S'8.0'
p12
aS'cl de'
p13
aS'jus de tomates'
p14
aa(lp15
S'0.5'
p16
aS'cl de'
p17
aS'jus de citrons'
p18
aa(lp19
S'1.0'
p20
aS'cl de'
p21
aS'sauce worcestershire'
p22
aa(lp23
S'1.0'
p24
aS'goutte de'
p25
aS'tabasco'
p26
aa(lp27
S'1.0'
p28
aS'pinc\xc3\xa9e de'
p29
aS'noix de muscade r\xc3\xa2p\xc3\xa9e'
p30
aaa.