(lp0
S'Le ried'
p1
aF3.2
aI13
a(lp2
(lp3
S'50.0'
p4
aS'grammes de'
p5
aS'laitue'
p6
aa(lp7
S'40.0'
p8
aS'grammes de'
p9
aS'concombres'
p10
aa(lp11
S'20.0'
p12
aS"grammes d'"
p13
aS'ail'
p14
aa(lp15
S'20.0'
p16
aS"grammes d'"
p17
aS'oignons'
p18
aa(lp19
S'60.0'
p20
aS'grammes de'
p21
aS'tomates'
p22
aa(lp23
S'60.0'
p24
aS'grammes de'
p25
aS'carottes'
p26
aaa.