(lp0
S'Fraisier des bois'
p1
aF3.4
aI18
a(lp2
(lp3
S'5.0'
p4
aS'cl de'
p5
aS'jus de fraises'
p6
aa(lp7
S'2.0'
p8
aS'cl de'
p9
aS'cr\xc3\xa8me de cassis'
p10
aa(lp11
S'2.0'
p12
aS'cl de'
p13
aS'liqueur de framboises'
p14
aa(lp15
S'1.0'
p16
aS'cl de'
p17
aS'triple sec (cointreau, grand marnier)'
p18
aa(lp19
S'2.0'
p20
aS'cl de'
p21
aS'gin'
p22
aaa.