(lp0
S'Sangria Rosa'
p1
aF2.6
aI127
a(lp2
(lp3
S'3.0'
p4
aS'bouteilles de'
p5
aS'vin ros\xc3\xa9'
p6
aa(lp7
S'15.0'
p8
aS'cl de'
p9
aS'cognac'
p10
aa(lp11
S'4.0'
p12
aS'cuill\xc3\xa8res \xc3\xa0 soupe de'
p13
aS'sucre'
p14
aa(lp15
S'80.0'
p16
aS'grammes de'
p17
aS'abricots'
p18
aa(lp19
S'120.0'
p20
aS'grammes de'
p21
aS'pamplemousses'
p22
aa(lp23
S'140.0'
p24
aS'grammes de'
p25
aS'p\xc3\xaaches'
p26
aa(lp27
S'250.0'
p28
aS'grammes de'
p29
aS'fraises'
p30
aaa.