(lp0
S'Summer Princess'
p1
aF4.0
aI2
a(lp2
(lp3
S'3.0'
p4
aS'cl de'
p5
aS'liqueur de bananes (pisang ambon)'
p6
aa(lp7
S'3.0'
p8
aS'cl de'
p9
aS'licor 43'
p10
aa(lp11
S'None'
p12
aS'None'
p13
aS'lait'
p14
aaa.