(lp0
S'Glace \xc3\xa0 la lavande'
p1
aF3.6
aI39
a(lp2
(lp3
S'0.5'
p4
aS'pieds de'
p5
aS'fleurs de lavande'
p6
aa(lp7
S'2.5'
p8
aS"cl d'"
p9
aS'eau'
p10
aa(lp11
S'2.5'
p12
aS'cl de'
p13
aS'lait'
p14
aa(lp15
S'2.5'
p16
aS'cl de'
p17
aS'cr\xc3\xa8me fra\xc3\xaeche liquide'
p18
aa(lp19
S'15.0'
p20
aS'grammes de'
p21
aS'sucre'
p22
aaa.