(lp0
S'Cubanita'
p1
aF3.5
aI4
a(lp2
(lp3
S'4.0'
p4
aS'cl de'
p5
aS'rhum blanc'
p6
aa(lp7
S'0.5'
p8
aS'cl de'
p9
aS'cr\xc3\xa8me de bananes'
p10
aa(lp11
S'0.5'
p12
aS'cl de'
p13
aS'liqueur de p\xc3\xaaches'
p14
aa(lp15
S'2.0'
p16
aS'cl de'
p17
aS'jus de citrons'
p18
aaa.