(lp0
S'Brandy Crusta'
p1
aF2.7
aI3
a(lp2
(lp3
S'4.5'
p4
aS'cl de'
p5
aS'brandy'
p6
aa(lp7
S'1.5'
p8
aS'cl de'
p9
aS'triple sec (cointreau, grand marnier)'
p10
aa(lp11
S'2.0'
p12
aS'cl de'
p13
aS'jus de citrons'
p14
aa(lp15
S'1.0'
p16
aS'trait'
p17
aS'angostura bitters'
p18
aaa.