(lp0
S'Sweet vodka'
p1
aF2.5
aI2
a(lp2
(lp3
S'0.333333333333'
p4
aS'de'
p5
aS'vodka'
p6
aa(lp7
S'0.333333333333'
p8
aS'de'
p9
aS"jus d'orange"
p10
aa(lp11
S'0.333333333333'
p12
aS'de'
p13
aS'jus de citrons vert'
p14
aaa.