(lp0
S'Menina'
p1
aF3.3
aI3
a(lp2
(lp3
S'2.0'
p4
aS'cl de'
p5
aS'sirop de framboises'
p6
aa(lp7
S'1.0'
p8
aS'cl de'
p9
aS'lime cordial'
p10
aa(lp11
S'None'
p12
aS'None'
p13
aS'eau gazeuse (perrier, salvetat)'
p14
aaa.