(lp0
S'Morgane special'
p1
aF4.0
aI11
a(lp2
(lp3
S'5.0'
p4
aS'cl de'
p5
aS'liqueur de lychees (soho, litchao)'
p6
aa(lp7
S'5.0'
p8
aS'cl de'
p9
aS'sirop de grenadine'
p10
aa(lp11
S'5.0'
p12
aS'cl de'
p13
aS'gin'
p14
aa(lp15
S'5.0'
p16
aS'cl de'
p17
aS'jus de pommes'
p18
aaa.