(lp0
S'Fun'
p1
aF3.5
aI4
a(lp2
(lp3
S'4.0'
p4
aS'cl de'
p5
aS'liqueur de coco (cocogif, malibu)'
p6
aa(lp7
S'6.0'
p8
aS'cl de'
p9
aS'jus de bananes'
p10
aa(lp11
S'8.0'
p12
aS'cl de'
p13
aS"jus d'ananas"
p14
aa(lp15
S'1.0'
p16
aS'trait de'
p17
aS'midori'
p18
aaa.