(lp0
S'Liqueur de capucines'
p1
aF4.0
aI3
a(lp2
(lp3
S'200.0'
p4
aS'grammes de fleurs et feuilles de'
p5
aS'capucines'
p6
aa(lp7
S'250.0'
p8
aS'grammes de'
p9
aS'sucre'
p10
aa(lp11
S'1.0'
p12
aS"litre d'"
p13
aS'eau-de-vie de fruits'
p14
aa(lp15
S'2.0'
p16
aS'cuill\xc3\xa8res \xc3\xa0 soupe de'
p17
aS'sirop de miel'
p18
aa(lp19
S'30.0'
p20
aS'cl de'
p21
aS'citre brut'
p22
aa(lp23
S'15.0'
p24
aS'cl de'
p25
aS'vin ros\xc3\xa9'
p26
aaa.