(lp0
S"Nuit d'automne"
p1
aF3.6
aI17
a(lp2
(lp3
S'2.0'
p4
aS'cl de'
p5
aS'vodka'
p6
aa(lp7
S'1.0'
p8
aS'cl de'
p9
aS'cr\xc3\xa8me de ch\xc3\xa2taigne'
p10
aa(lp11
S'3.0'
p12
aS'cl de'
p13
aS"liqueur d'abricots (abricot brandy)"
p14
aa(lp15
S'1.0'
p16
aS'cl de'
p17
aS'jus de citrons'
p18
aa(lp19
S'3.0'
p20
aS'cl de'
p21
aS'jus de cerises'
p22
aaa.