(lp0
S'Hausgauen'
p1
aF3.5
aI2
a(lp2
(lp3
S'5.0'
p4
aS'cl de'
p5
aS'cr\xc3\xa8me de cassis'
p6
aa(lp7
S'5.0'
p8
aS'cl de'
p9
aS'liqueur de coco (cocogif, malibu)'
p10
aa(lp11
S'5.0'
p12
aS'gouttes de'
p13
aS'jus de citrons'
p14
aa(lp15
S'50.0'
p16
aS'cl de'
p17
aS'th\xc3\xa9 \xc3\xa0 la p\xc3\xaache'
p18
aaa.