(lp0
S'Paso doble'
p1
aF3.3
aI6
a(lp2
(lp3
S'0.5'
p4
aS'cl de'
p5
aS'sirop de grenadine'
p6
aa(lp7
S'0.1'
p8
aS'None'
p9
aS'jus de citron'
p10
aa(lp11
S'0.1'
p12
aS'None'
p13
aS'liqueur de bananes (pisang ambon)'
p14
aa(lp15
S'0.2'
p16
aS'None'
p17
aS'cr\xc3\xa8me de fruit de la passion'
p18
aa(lp19
S'0.6'
p20
aS'None'
p21
aS'rhum blanc'
p22
aaa.