(lp0
S'Salep'
p1
aF3.8
aI19
a(lp2
(lp3
S'0.25'
p4
aS'litres de'
p5
aS'lait'
p6
aa(lp7
S'0.5'
p8
aS"cuill\xc3\xa8res \xc3\xa0 soupe d'"
p9
aS"eau de fleur d'oranger"
p10
aa(lp11
S'0.5'
p12
aS'cuill\xc3\xa8res \xc3\xa0 soupe de'
p13
aS'farine de riz'
p14
aa(lp15
S'1.0'
p16
aS'cuill\xc3\xa8res \xc3\xa0 soupe de'
p17
aS'sucre roux (cassonade)'
p18
aaa.