(lp0
S'Vent du diable'
p1
aF3.2
aI6
a(lp2
(lp3
S'1.0'
p4
aS'trait de'
p5
aS'sirop de grenadine'
p6
aa(lp7
S'5.0'
p8
aS'cl de'
p9
aS'vermouth blanc (martini, cinzano)'
p10
aa(lp11
S'4.0'
p12
aS'cl de'
p13
aS'eau gazeuse (perrier, salvetat)'
p14
aaa.