(lp0
S'Liqueur de noisettes'
p1
aF3.0
aI30
a(lp2
(lp3
S'25.0'
p4
aS'grammes de'
p5
aS'noisettes'
p6
aa(lp7
S'5.0'
p8
aS"cl d'"
p9
aS'eau-de-vie'
p10
aa(lp11
S'40.0'
p12
aS'grammes de'
p13
aS'sucre'
p14
aa(lp15
S'5.0'
p16
aS"cl d'"
p17
aS'eau'
p18
aa(lp19
S'0.1'
p20
aS'b\xc3\xa2ton de'
p21
aS'vanille'
p22
aaa.