(lp0
S'Old Princess'
p1
aF3.0
aI2
a(lp2
(lp3
S'2.0'
p4
aS"cl d'"
p5
aS'amaretto'
p6
aa(lp7
S'3.0'
p8
aS'cl de'
p9
aS'sirop de grenadine'
p10
aa(lp11
S'4.0'
p12
aS'cl de'
p13
aS'spiritueux anis\xc3\xa9 (pastis, ricard, pernod)'
p14
aa(lp15
S'5.0'
p16
aS'cl de'
p17
aS"jus d'oranges"
p18
aaa.