(lp0
S'Lait de carotte'
p1
aF4.0
aI2
a(lp2
(lp3
S'0.5'
p4
aS'tasse de'
p5
aS'noix'
p6
aa(lp7
S'2.0'
p8
aS"tasses d'"
p9
aS'eau'
p10
aa(lp11
S'3.0'
p12
aS'None'
p13
aS'carottes'
p14
aa(lp15
S'1.0'
p16
aS'd\xc3\xa9 de'
p17
aS'gingembre'
p18
aa(lp19
S'1.0'
p20
aS'gousse de'
p21
aS'vanille'
p22
aa(lp23
S'1.0'
p24
aS'cuill\xc3\xa8re \xc3\xa0 soupe de'
p25
aS"sirop d'\xc3\xa9rable"
p26
aaa.