(lp0
S'Vodka salty dog'
p1
aF3.9
aI27
a(lp2
(lp3
S'15.0'
p4
aS'cl de'
p5
aS'jus de pamplemousses'
p6
aa(lp7
S'4.5'
p8
aS'cl de'
p9
aS'vodka'
p10
aa(lp11
S'0.5'
p12
aS'cuill\xc3\xa8re \xc3\xa0 caf\xc3\xa9 de'
p13
aS'sel'
p14
aaa.