(lp0
S'Le G by LEJAY'
p1
aF3.2
aI14
a(lp2
(lp3
S'2.0'
p4
aS'cl de'
p5
aS'cr\xc3\xa8me de cassis'
p6
aa(lp7
S'4.0'
p8
aS'cl de '
p9
aS'vodka'
p10
aa(lp11
S'1.0'
p12
aS'cl de'
p13
aS'jus de pommes'
p14
aa(lp15
S'1.0'
p16
aS'tranche de'
p17
aS'gingembre'
p18
aaa.