(lp0
S'Green Hope'
p1
aF3.0
aI1
a(lp2
(lp3
S'0.25'
p4
aS'volumes de'
p5
aS'vodka'
p6
aa(lp7
S'0.25'
p8
aS'volumes de'
p9
aS'cura\xc3\xa7ao bleu'
p10
aa(lp11
S'0.125'
p12
aS'volumes de'
p13
aS'cr\xc3\xa8me de bananes'
p14
aa(lp15
S'0.0625'
p16
aS'volumes de'
p17
aS'jus de raisin blanc'
p18
aa(lp19
S'0.0625'
p20
aS'volumes de'
p21
aS'jus de citrons'
p22
aaa.