(lp0
S'Gogole'
p1
aF3.5
aI76
a(lp2
(lp3
S'0.5'
p4
aS'tasse de'
p5
aS'bleuets'
p6
aa(lp7
S'0.5'
p8
aS'tasse de'
p9
aS'fraises'
p10
aa(lp11
S'12.5'
p12
aS'cl de'
p13
aS'yaourt nature'
p14
aa(lp15
S'12.5'
p16
aS'cl de'
p17
aS'jus de pommes'
p18
aa(lp19
S'0.5'
p20
aS'cuill\xc3\xa8re \xc3\xa0 caf\xc3\xa9'
p21
aS'sirop de miel'
p22
aaa.