(lp0
S'Liqueur de c\xc3\xa9leri'
p1
aF3.5
aI2
a(lp2
(lp3
S'1.0'
p4
aS'litres de'
p5
aS'vodka'
p6
aa(lp7
S'50.0'
p8
aS"cl d'"
p9
aS'eau'
p10
aa(lp11
S'500.0'
p12
aS'grammes de'
p13
aS'sucre'
p14
aa(lp15
S'500.0'
p16
aS'grammes de tiges de'
p17
aS'c\xc3\xa9leri'
p18
aa(lp19
S'10.0'
p20
aS'grammes de'
p21
aS'coriandre'
p22
aa(lp23
S'10.0'
p24
aS"graines d'"
p25
aS'anis'
p26
aaa.