(lp0
S'Dame blanche'
p1
aF2.7
aI59
a(lp2
(lp3
S'2.5'
p4
aS'cl de'
p5
aS'whisky (bourbon, whiskey)'
p6
aa(lp7
S'1.0'
p8
aS'cl de'
p9
aS'liqueur de vanille'
p10
aa(lp11
S'1.0'
p12
aS'cl de'
p13
aS'bi\xc3\xa8re \xc3\xa0 la cerise (kriek)'
p14
aa(lp15
S'2.5'
p16
aS'cl de'
p17
aS'sirop de sucre de canne'
p18
aa(lp19
S'5.0'
p20
aS'cl de'
p21
aS'lait'
p22
aa(lp23
S'0.5'
p24
aS'cl de'
p25
aS'jus de citrons'
p26
aaa.