(lp0
S'Vodka Espresso'
p1
aF4.3
aI4
a(lp2
(lp3
S'5.0'
p4
aS'cl de'
p5
aS'vodka'
p6
aa(lp7
S'0.5'
p8
aS'cl de'
p9
aS'sirop de sucre de canne'
p10
aa(lp11
S'2.0'
p12
aS'cl de'
p13
aS'liqueur de caf\xc3\xa9 (kahlua, marie brizard)'
p14
aa(lp15
S'1.0'
p16
aS'None'
p17
aS'caf\xc3\xa9'
p18
aaa.