(lp0
S'Volupte aphrodisiak'
p1
aF2.9
aI36
a(lp2
(lp3
S'1.0'
p4
aS"cl d'"
p5
aS'eau'
p6
aa(lp7
S'4.0'
p8
aS'cl de'
p9
aS'porto rouge'
p10
aa(lp11
S'2.0'
p12
aS'cl de'
p13
aS'cura\xc3\xa7ao bleu'
p14
aa(lp15
S'2.0'
p16
aS'cl de'
p17
aS'cognac'
p18
aa(lp19
S'2.0'
p20
aS'morceaux de'
p21
aS'sucre'
p22
aaa.