(lp0
S'Gin Fizz Mousse'
p1
aF2.9
aI134
a(lp2
(lp3
S'15.0'
p4
aS'cl de'
p5
aS'gin'
p6
aa(lp7
S'8.0'
p8
aS"cl d'"
p9
aS'eau'
p10
aa(lp11
S'20.0'
p12
aS'cl de'
p13
aS'jus de citrons'
p14
aa(lp15
S'13.0'
p16
aS'cl de'
p17
aS'sirop de sucre de canne'
p18
aa(lp19
S'3.0'
p20
aS'feuilles de'
p21
aS'g\xc3\xa9latine'
p22
aaa.