(lp0
S"L'etincelle"
p1
aF3.0
aI2
a(lp2
(lp3
S'None'
p4
aS'None'
p5
aS'champagne'
p6
aa(lp7
S'1.0'
p8
aS'cl de'
p9
aS'amaretto'
p10
aa(lp11
S'1.0'
p12
aS'cl de'
p13
aS'eau-de-vie de framboises'
p14
aa(lp15
S'0.25'
p16
aS'morceau de'
p17
aS"sucre imbib\xc3\xa9 d'angostura"
p18
aaa.