(lp0
S'Catherine Blossom'
p1
aF4.0
aI26
a(lp2
(lp3
S'20.0'
p4
aS'cl de'
p5
aS"jus d'oranges"
p6
aa(lp7
S'1.0'
p8
aS'cl de'
p9
aS"sirop d'\xc3\xa9rable"
p10
aa(lp11
S'2.0'
p12
aS'boules de'
p13
aS"sorbet \xc3\xa0 l'orange"
p14
aaa.