(lp0
S'Sex on my bitch'
p1
aF4.8
aI49
a(lp2
(lp3
S'10.0'
p4
aS'grammes de'
p5
aS'cr\xc3\xa8me chantilly'
p6
aa(lp7
S'4.0'
p8
aS'cl de'
p9
aS'jus de cranberry (canneberges)'
p10
aa(lp11
S'8.0'
p12
aS'cl de'
p13
aS"jus d'ananas"
p14
aa(lp15
S'2.0'
p16
aS'cl de'
p17
aS'liqueur de coco (cocogif, malibu)'
p18
aa(lp19
S'4.0'
p20
aS'cl de'
p21
aS'vodka'
p22
aaa.