(lp0
S'Cauchemar de Dracula'
p1
aF3.6
aI101
a(lp2
(lp3
S'1.0'
p4
aS'trait de'
p5
aS'sirop de bubble gum'
p6
aa(lp7
S'2.0'
p8
aS'cl de'
p9
aS'vodka'
p10
aa(lp11
S'1.0'
p12
aS"cl d'"
p13
aS'eau gazeuse (perrier, salvetat)'
p14
aa(lp15
S'1.0'
p16
aS'None'
p17
aS'friandise dentier de vampire'
p18
aaa.