(lp0
S'Veuve triste'
p1
aF3.3
aI10
a(lp2
(lp3
S'3.0'
p4
aS'cl de'
p5
aS'liqueur de coco (cocogif, malibu)'
p6
aa(lp7
S'2.0'
p8
aS'cl de'
p9
aS'vodka'
p10
aa(lp11
S'0.5'
p12
aS'cl de'
p13
aS"sirop d'\xc3\xa9rable"
p14
aa(lp15
S'2.0'
p16
aS'cl de'
p17
aS'liqueur de violette'
p18
aaa.