(lp0
S'Mojito Marijuana'
p1
aF3.0
aI3
a(lp2
(lp3
S'3.0'
p4
aS'feuilles de '
p5
aS'menthe'
p6
aa(lp7
S'5.0'
p8
aS'feuilles de'
p9
aS'chanvre'
p10
aa(lp11
S'3.0'
p12
aS'cl de'
p13
aS'lime cordial'
p14
aa(lp15
S'5.0'
p16
aS'cl de'
p17
aS'rhum blanc'
p18
aa(lp19
S'None'
p20
aS'None'
p21
aS'eau gazeuse (perrier, salvetat)'
p22
aaa.