(lp0
S'Liqueur de cacao'
p1
aF3.3
aI6
a(lp2
(lp3
S'10.0'
p4
aS'grammes de'
p5
aS'cacao torr\xc3\xa9fi\xc3\xa9'
p6
aa(lp7
S'2.5'
p8
aS"cl d'"
p9
aS'eau'
p10
aa(lp11
S'2.5'
p12
aS"cl d'"
p13
aS'alcool \xc3\xa0 90\xc2\xb0'
p14
aa(lp15
S'10.0'
p16
aS'grammes de'
p17
aS'sucre'
p18
aa(lp19
S'0.05'
p20
aS'gousse de'
p21
aS'vanille'
p22
aaa.