(lp0
S'Pacifico'
p1
aF4.0
aI4
a(lp2
(lp3
S'1.0'
p4
aS'rondelles de'
p5
aS'citrons'
p6
aa(lp7
S'1.0'
p8
aS'cl de'
p9
aS'jus de citrons'
p10
aa(lp11
S'2.0'
p12
aS'cl de'
p13
aS'sirop de fruit de la passion (maracuja)'
p14
aa(lp15
S'4.0'
p16
aS'cl de'
p17
aS'tequila'
p18
aaa.