(lp0
S'Sauternes julep'
p1
aF3.0
aI6
a(lp2
(lp3
S'None'
p4
aS'None'
p5
aS'sauternes'
p6
aa(lp7
S'4.0'
p8
aS'None'
p9
aS'feuilles de menthe'
p10
aa(lp11
S'0.5'
p12
aS'cl de'
p13
aS'sirop de sucre de canne'
p14
aaa.