(lp0
S"Chris' & Angel"
p1
aF3.1
aI16
a(lp2
(lp3
S'3.0'
p4
aS'cl de'
p5
aS'cognac'
p6
aa(lp7
S'2.0'
p8
aS'cl de'
p9
aS'pousse rapi\xc3\xa8re'
p10
aa(lp11
S'2.0'
p12
aS'cl de'
p13
aS'concentr\xc3\xa9 de noisettes'
p14
aa(lp15
S'5.0'
p16
aS'cl de'
p17
aS'jus de pomme-coing'
p18
aa(lp19
S'0.5'
p20
aS'cl de'
p21
aS'sirop de cerise'
p22
aaa.