(lp0
S'The Green Velvet'
p1
aF3.0
aI1
a(lp2
(lp3
S'3.5'
p4
aS'cl de'
p5
aS'cognac'
p6
aa(lp7
S'1.0'
p8
aS'cl de'
p9
aS'midori'
p10
aa(lp11
S'8.0'
p12
aS'cl de'
p13
aS'nectar de poires'
p14
aa(lp15
S'2.5'
p16
aS'cuill\xc3\xa8re de'
p17
aS'cannelle en poudre'
p18
aa(lp19
S'2.5'
p20
aS'trait de'
p21
aS'cura\xc3\xa7ao bleu'
p22
aa(lp23
S'4.5'
p24
aS'gouttes de'
p25
aS'citrons'
p26
aaa.