(lp0
S'Scubac (Usquebac)'
p1
aF4.3
aI3
a(lp2
(lp3
S'1.0'
p4
aS'gousse de'
p5
aS'vanille'
p6
aa(lp7
S'4.0'
p8
aS'gramms de'
p9
aS'macis'
p10
aa(lp11
S'2.0'
p12
aS'grammes de'
p13
aS'safran'
p14
aa(lp15
S'2.0'
p16
aS'grammes de'
p17
aS'clous de girofle'
p18
aa(lp19
S'2.0'
p20
aS'grammes de'
p21
aS'coriandre'
p22
aa(lp23
S'1.0'
p24
aS'None'
p25
aS'citron'
p26
aa(lp27
S'4.0'
p28
aS'litres de'
p29
aS'vodka'
p30
aa(lp31
S'4.0'
p32
aS'grammes de'
p33
aS"graines d'ang\xc3\xa9lique"
p34
aaa.