(lp0
S'U stracciu'
p1
aF2.8
aI4
a(lp2
(lp3
S'4.0'
p4
aS'cl de'
p5
aS'vermouth blanc (martini, cinzano)'
p6
aa(lp7
S'2.0'
p8
aS'cl de'
p9
aS'vodka rouge (eristoff)'
p10
aa(lp11
S'1.0'
p12
aS'cl de'
p13
aS'gin'
p14
aa(lp15
S'8.0'
p16
aS'cl de'
p17
aS'jus de fruits exotiques'
p18
aaa.