(lp0
S'Nikolaschka'
p1
aF4.5
aI10
a(lp2
(lp3
S'5.0'
p4
aS'cl de'
p5
aS'cognac'
p6
aa(lp7
S'1.0'
p8
aS'disque \xc3\xa9pluch\xc3\xa9 de'
p9
aS'citrons'
p10
aa(lp11
S'0.5'
p12
aS'cl de'
p13
aS'caf\xc3\xa9 en poudre'
p14
aa(lp15
S'0.5'
p16
aS'cl de'
p17
aS'sucre'
p18
aaa.