(lp0
S'Quark'
p1
aF3.5
aI2
a(lp2
(lp3
S'10.0'
p4
aS'cl de'
p5
aS"jus d'oranges"
p6
aa(lp7
S'3.0'
p8
aS'cl de'
p9
aS'cr\xc3\xa8me de framboise'
p10
aa(lp11
S'1.0'
p12
aS'cl de'
p13
aS'chartreuse verte'
p14
aaa.