(lp0
S'Da\xc3\xafquiri Floridita /Frozen Da\xc3\xafquiri'
p1
aF4.1
aI61
a(lp2
(lp3
S'4.5'
p4
aS'cl de'
p5
aS'rhum cubain'
p6
aa(lp7
S'None'
p8
aS"jus d'un"
p9
aS'citrons verts'
p10
aa(lp11
S'1.0'
p12
aS'cuill\xc3\xa8re \xc3\xa0 caf\xc3\xa9 de'
p13
aS'sucre'
p14
aa(lp15
S'None'
p16
aS'quelques gouttes de'
p17
aS'marasquin'
p18
aaa.