(lp0
S'Orange squash'
p1
aF3.8
aI17
a(lp2
(lp3
S'None'
p4
aS'None'
p5
aS'eau'
p6
aa(lp7
S'10.0'
p8
aS'cl de'
p9
aS"jus d'oranges"
p10
aa(lp11
S'3.0'
p12
aS'cl de'
p13
aS'jus de citrons'
p14
aa(lp15
S'0.5'
p16
aS'cl de'
p17
aS'sucre'
p18
aaa.