(lp0
S'Th\xc3\xa9 \xc3\xa0 la Menthe'
p1
aF3.5
aI12
a(lp2
(lp3
S'1.0'
p4
aS'cuill\xc3\xa8re \xc3\xa0 caf\xc3\xa9 de'
p5
aS'th\xc3\xa9 vert'
p6
aa(lp7
S'1.0'
p8
aS'poign\xc3\xa9e de feuilles de'
p9
aS'menthe'
p10
aa(lp11
S'6.0'
p12
aS'cubes de'
p13
aS'sucre'
p14
aaa.