(lp0
S'Manhattan Julep'
p1
aF3.3
aI60
a(lp2
(lp3
S'3.0'
p4
aS'cl de'
p5
aS'vermouth blanc (martini, cinzano)'
p6
aa(lp7
S'6.0'
p8
aS'cl de'
p9
aS'whisky (bourbon, whiskey)'
p10
aa(lp11
S'1.0'
p12
aS'bouquet de'
p13
aS'menthe'
p14
aa(lp15
S'None'
p16
aS'None'
p17
aS'sucre'
p18
aaa.