(lp0
S'Ginger fizz'
p1
aF3.5
aI2
a(lp2
(lp3
S'10.0'
p4
aS'cl de'
p5
aS'rhum'
p6
aa(lp7
S'2.5'
p8
aS'cl de'
p9
aS'cr\xc3\xa8me de cassis'
p10
aa(lp11
S'3.0'
p12
aS'morceaux de'
p13
aS'gingembre'
p14
aa(lp15
S'10.0'
p16
aS'cl de'
p17
aS'limonade (soda, sprite, 7up)'
p18
aa(lp19
S'1.0'
p20
aS'morceau de'
p21
aS'sucre'
p22
aaa.