(lp0
S'Light America'
p1
aF3.0
aI2
a(lp2
(lp3
S'1.0'
p4
aS'cl de'
p5
aS'sirop de sucre de canne'
p6
aa(lp7
S'5.0'
p8
aS'cl de'
p9
aS'rhum blanc'
p10
aa(lp11
S'1.0'
p12
aS'peu de'
p13
aS'citrons verts'
p14
aa(lp15
S'1.0'
p16
aS'pinc\xc3\xa9e de'
p17
aS'cacao'
p18
aa(lp19
S'1.0'
p20
aS'cl de'
p21
aS'sirop de fraises'
p22
aaa.