(lp0
S'Rasta Colada'
p1
aF4.3
aI3
a(lp2
(lp3
S'8.0'
p4
aS'cl de'
p5
aS'rhum blanc'
p6
aa(lp7
S'4.0'
p8
aS'cl de'
p9
aS'sirop de pina colada'
p10
aa(lp11
S'2.0'
p12
aS'cl de'
p13
aS'sirop de fraises'
p14
aa(lp15
S'2.0'
p16
aS'cl de'
p17
aS'pur\xc3\xa9e de mangue'
p18
aa(lp19
S'2.0'
p20
aS'cl de'
p21
aS'sirop de banane verte'
p22
aaa.