(lp0
S'Mix attitude'
p1
aF4.3
aI3
a(lp2
(lp3
S'2.0'
p4
aS'cl de'
p5
aS'fraises'
p6
aa(lp7
S'2.0'
p8
aS'cl de'
p9
aS'citronnelle'
p10
aa(lp11
S'4.0'
p12
aS'cl de'
p13
aS'tequila'
p14
aa(lp15
S'3.0'
p16
aS'cl de'
p17
aS'liqueur mandarine napol\xc3\xa9on'
p18
aaa.