(lp0
S'Champs-Elys\xc3\xa9es'
p1
aF3.8
aI13
a(lp2
(lp3
S'0.5'
p4
aS'cl de'
p5
aS'angostura bitters'
p6
aa(lp7
S'0.5'
p8
aS'cuill\xc3\xa8re \xc3\xa0 caf\xc3\xa9 de'
p9
aS'sucre'
p10
aa(lp11
S'1.0'
p12
aS'cl de'
p13
aS'jus de citrons'
p14
aa(lp15
S'4.0'
p16
aS'cl de'
p17
aS'cognac'
p18
aa(lp19
S'1.0'
p20
aS'cl de'
p21
aS'chartreuse verte'
p22
aaa.