(lp0
S'Citrik'
p1
aF3.6
aI41
a(lp2
(lp3
S'300.0'
p4
aS'grammes de'
p5
aS'framboises'
p6
aa(lp7
S'4.0'
p8
aS'cuill\xc3\xa8res de'
p9
aS'sorbet citron'
p10
aa(lp11
S'None'
p12
aS'None'
p13
aS"jus d'oranges"
p14
aaa.