(lp0
S'Chocolat \xc3\xa0 la jama\xc3\xafcaine'
p1
aF3.9
aI25
a(lp2
(lp3
S'1.0'
p4
aS"litre d'"
p5
aS'eau'
p6
aa(lp7
S'150.0'
p8
aS'grammes de'
p9
aS'chocolat noir'
p10
aa(lp11
S'50.0'
p12
aS'grammes de'
p13
aS'sucre roux (cassonade)'
p14
aa(lp15
S'10.0'
p16
aS'cl de'
p17
aS'rhum ambr\xc3\xa9'
p18
aaa.