(lp0
S'Tomato-cucumber'
p1
aF3.8
aI5
a(lp2
(lp3
S'5.0'
p4
aS'None'
p5
aS'tomates'
p6
aa(lp7
S'0.5'
p8
aS'None'
p9
aS'concombre'
p10
aa(lp11
S'0.5'
p12
aS'None'
p13
aS'poivron rouge'
p14
aa(lp15
S'1.0'
p16
aS'None'
p17
aS'oignon'
p18
aa(lp19
S'2.0'
p20
aS'cuill\xc3\xa8res \xc3\xa0 soupe de'
p21
aS'huile v\xc3\xa9g\xc3\xa9tale'
p22
aa(lp23
S'2.0'
p24
aS'feuilles de'
p25
aS'basilic'
p26
aa(lp27
S'1.0'
p28
aS'cuill\xc3\xa8re \xc3\xa0 soupe'
p29
aS'vinaigre de cidre'
p30
aa(lp31
S'2.0'
p32
aS'gouttes de'
p33
aS'tabasco'
p34
aaa.