(lp0
S'Kiss me quick'
p1
aF3.9
aI19
a(lp2
(lp3
S'0.2'
p4
aS'de'
p5
aS'triple sec (cointreau, grand marnier)'
p6
aa(lp7
S'0.8'
p8
aS'de'
p9
aS'spiritueux anis\xc3\xa9 (pastis, ricard, pernod)'
p10
aa(lp11
S'1.0'
p12
aS"trait d'"
p13
aS'angostura bitters'
p14
aaa.