(lp0
S'Maraca\xc3\xafbos'
p1
aF1.8
aI5
a(lp2
(lp3
S'None'
p4
aS'None'
p5
aS'sirop de fraises'
p6
aa(lp7
S'None'
p8
aS'None'
p9
aS'jus de goyaves'
p10
aa(lp11
S'2.0'
p12
aS'cl de'
p13
aS'jus de citrons verts'
p14
aa(lp15
S'4.0'
p16
aS'cl de'
p17
aS'rhum cubain'
p18
aaa.