(lp0
S'Punch Coco Soleil'
p1
aF3.1
aI50
a(lp2
(lp3
S'6.25'
p4
aS'cl de'
p5
aS'rhum blanc'
p6
aa(lp7
S'0.25'
p8
aS'bo\xc3\xaetes de'
p9
aS'lait de coco'
p10
aa(lp11
S'0.125'
p12
aS'bo\xc3\xaete de'
p13
aS'lait concentr\xc3\xa9 sucr\xc3\xa9'
p14
aa(lp15
S'0.125'
p16
aS'pinc\xc3\xa9e de'
p17
aS'muscade'
p18
aa(lp19
S'0.125'
p20
aS'pinc\xc3\xa9e de poudre de'
p21
aS'gingembre'
p22
aa(lp23
S'0.125'
p24
aS'cuill\xc3\xa8re \xc3\xa0 caf\xc3\xa9 de'
p25
aS'cannelle'
p26
aa(lp27
S'0.125'
p28
aS'gousse de'
p29
aS'vanille'
p30
aaa.