(lp0
S'Rhum bibasse'
p1
aF3.2
aI42
a(lp2
(lp3
S'100.0'
p4
aS'cl de'
p5
aS'rhum blanc'
p6
aa(lp7
S'6.0'
p8
aS'None'
p9
aS'grains de bibasse (bibas)'
p10
aa(lp11
S'5.0'
p12
aS'cuill\xc3\xa8res \xc3\xa0 soupe de'
p13
aS'sucre roux (cassonade)'
p14
aaa.