(lp0
S'Madam'
p1
aF4.7
aI6
a(lp2
(lp3
S'2.0'
p4
aS'cl de'
p5
aS'vodka au citron'
p6
aa(lp7
S'2.0'
p8
aS'cl de'
p9
aS'midori'
p10
aa(lp11
S'2.0'
p12
aS'cl de'
p13
aS'lime cordial'
p14
aa(lp15
S'12.0'
p16
aS'cl de'
p17
aS'nectar de fruits exotiques'
p18
aaa.