(lp0
S'D\xc3\xa9lice des \xc3\xaeles'
p1
aF3.1
aI178
a(lp2
(lp3
S'2.0'
p4
aS'cl de'
p5
aS"jus d'ananas"
p6
aa(lp7
S'0.5'
p8
aS'cl de'
p9
aS'jus de citrons'
p10
aa(lp11
S'0.5'
p12
aS'cl de'
p13
aS'liqueur de fraises'
p14
aa(lp15
S'3.0'
p16
aS'cl de'
p17
aS'rhum blanc'
p18
aaa.