(lp0
S'Vin de noix'
p1
aF3.0
aI209
a(lp2
(lp3
S'0.075'
p4
aS'kilo de'
p5
aS'sucre'
p6
aa(lp7
S'2.5'
p8
aS"cl d'"
p9
aS'alcool \xc3\xa0 95\xc2\xb0'
p10
aa(lp11
S'0.1'
p12
aS'litres de'
p13
aS'vin'
p14
aa(lp15
S'0.1'
p16
aS'None'
p17
aS'oranges'
p18
aa(lp19
S'4.0'
p20
aS'None'
p21
aS'noix vertes'
p22
aaa.