(lp0
S'Mer de Chine'
p1
aF3.3
aI3
a(lp2
(lp3
S'0.5'
p4
aS'de'
p5
aS'gin'
p6
aa(lp7
S'0.2'
p8
aS'de'
p9
aS'liqueur de coco (cocogif, malibu)'
p10
aa(lp11
S'0.3'
p12
aS'de'
p13
aS'cura\xc3\xa7ao bleu'
p14
aaa.