(lp0
S'Ipady'
p1
aF2.0
aI3
a(lp2
(lp3
S'0.5'
p4
aS'None'
p5
aS'concombre'
p6
aa(lp7
S'3.0'
p8
aS'None'
p9
aS'asperges'
p10
aa(lp11
S'4.0'
p12
aS'feuilles de'
p13
aS'menthe'
p14
aa(lp15
S'15.0'
p16
aS'cl de'
p17
aS'eau gazeuse (perrier, salvetat)'
p18
aaa.