(lp0
S'Salutem'
p1
aF3.4
aI5
a(lp2
(lp3
S'2.0'
p4
aS'None'
p5
aS'kiwis'
p6
aa(lp7
S'2.0'
p8
aS'None'
p9
aS'oranges'
p10
aa(lp11
S'1.0'
p12
aS'None'
p13
aS'citron'
p14
aa(lp15
S'1.0'
p16
aS'None'
p17
aS'banane'
p18
aa(lp19
S'1.0'
p20
aS"cuill\xc3\xa8re \xc3\xa0 soupe d'"
p21
aS'huile de nigelle'
p22
aa(lp23
S'1.0'
p24
aS'cl de'
p25
aS'vodka'
p26
aaa.