(lp0
S'Masato'
p1
aF3.5
aI2
a(lp2
(lp3
S'1.0'
p4
aS'kilo de'
p5
aS'manioc'
p6
aa(lp7
S'3.0'
p8
aS'None'
p9
aS'clous de girofle'
p10
aa(lp11
S'50.0'
p12
aS"cl d'"
p13
aS'eau'
p14
aa(lp15
S'100.0'
p16
aS'grammes de'
p17
aS'sucre'
p18
aa(lp19
S'10.0'
p20
aS'pinc\xc3\xa9es de'
p21
aS'cannelle en poudre'
p22
aaa.