(lp0
S'Caf\xc3\xa9 des Patriotes'
p1
aF3.6
aI5
a(lp2
(lp3
S'None'
p4
aS'None'
p5
aS'cr\xc3\xa8me chantilly'
p6
aa(lp7
S'1.0'
p8
aS'None'
p9
aS'caf\xc3\xa9'
p10
aa(lp11
S'3.0'
p12
aS'cl de'
p13
aS'cr\xc3\xa8me de whisky (baileys)'
p14
aa(lp15
S'3.0'
p16
aS'cl de'
p17
aS'sortil\xc3\xa8ge'
p18
aaa.