(lp0
S'Palotto'
p1
aF4.2
aI6
a(lp2
(lp3
S'100.0'
p4
aS'grammes de'
p5
aS'bananes'
p6
aa(lp7
S'37.5'
p8
aS'cl de'
p9
aS'lait'
p10
aa(lp11
S'2.0'
p12
aS'cl de'
p13
aS'sirop de fraises'
p14
aa(lp15
S'0.5'
p16
aS'cuill\xc3\xa8re de'
p17
aS'cannelle en poudre'
p18
aaa.