(lp0
S'Groenland'
p1
aF3.0
aI12
a(lp2
(lp3
S'0.4'
p4
aS'de'
p5
aS"jus d'ananas"
p6
aa(lp7
S'0.3'
p8
aS'de'
p9
aS'vodka'
p10
aa(lp11
S'0.2'
p12
aS'de'
p13
aS'triple sec (cointreau, grand marnier)'
p14
aa(lp15
S'0.1'
p16
aS'de'
p17
aS'jus de citron'
p18
aa(lp19
S'None'
p20
aS'None'
p21
aS'limonade (soda, sprite, 7up)'
p22
aaa.