(lp0
S'Vin de pruneaux'
p1
aF4.0
aI1
a(lp2
(lp3
S'100.0'
p4
aS'grammes de'
p5
aS'sucre'
p6
aa(lp7
S'250.0'
p8
aS'grammes de'
p9
aS'pruneaux'
p10
aa(lp11
S'75.0'
p12
aS'cl de'
p13
aS'vin rouge'
p14
aa(lp15
S'12.0'
p16
aS"cl d'"
p17
aS'armagnac'
p18
aaa.