(lp0
S'Plutonium'
p1
aF4.5
aI4
a(lp2
(lp3
S'2.0'
p4
aS'cl de'
p5
aS'melocot\xc3\xb3n'
p6
aa(lp7
S'3.0'
p8
aS'cl de'
p9
aS"jus d'ananas"
p10
aa(lp11
S'2.0'
p12
aS'cl de'
p13
aS"jus d'oranges"
p14
aa(lp15
S'1.0'
p16
aS'cl de'
p17
aS'liqueur de coco (cocogif, malibu)'
p18
aa(lp19
S'2.5'
p20
aS'cl de'
p21
aS'vodka'
p22
aa(lp23
S'1.0'
p24
aS'cl de'
p25
aS'gin'
p26
aa(lp27
S'1.0'
p28
aS'trait de'
p29
aS'liqueur de menthe verte (get 27)'
p30
aaa.