(lp0
S'Perfect lady cocktail'
p1
aF4.2
aI17
a(lp2
(lp3
S'4.0'
p4
aS'cl de'
p5
aS'gin'
p6
aa(lp7
S'2.0'
p8
aS'cl de'
p9
aS'jus de citrons'
p10
aa(lp11
S'2.0'
p12
aS'cl de'
p13
aS"liqueur d'abricots (abricot brandy)"
p14
aaa.