(lp0
S'Mate la cerise'
p1
aF2.8
aI5
a(lp2
(lp3
S'4.0'
p4
aS'cl de'
p5
aS'bi\xc3\xa8re \xc3\xa0 la cerise (kriek)'
p6
aa(lp7
S'4.0'
p8
aS"go\xc3\xbbtes d'"
p9
aS'angostura bitters'
p10
aa(lp11
S'None'
p12
aS'None'
p13
aS'vin mousseux'
p14
aaa.