(lp0
S'Aztec punch'
p1
aF3.5
aI2
a(lp2
(lp3
S'2.5'
p4
aS'cl de'
p5
aS'th\xc3\xa9 noir'
p6
aa(lp7
S'0.3125'
p8
aS'cl de'
p9
aS'triple sec (cointreau, grand marnier)'
p10
aa(lp11
S'0.15'
p12
aS'cl de'
p13
aS'sirop de cannelle'
p14
aa(lp15
S'0.05'
p16
aS'litres de'
p17
aS'jus de pamplemousses'
p18
aa(lp19
S'0.05'
p20
aS'litres de'
p21
aS'tequila'
p22
aa(lp23
S'0.0375'
p24
aS'cl de'
p25
aS'angostura bitters'
p26
aa(lp27
S'0.45'
p28
aS'cl de'
p29
aS"sirop d'orgeat"
p30
aa(lp31
S'0.3125'
p32
aS'cl de'
p33
aS'jus de citrons'
p34
aaa.