(lp0
S'Gen\xc3\xa9pi'
p1
aF3.2
aI357
a(lp2
(lp3
S'40.0'
p4
aS'brins de'
p5
aS'g\xc3\xa9n\xc3\xa9pi'
p6
aa(lp7
S'0.5'
p8
aS"litre d'"
p9
aS'alcool \xc3\xa0 90\xc2\xb0'
p10
aa(lp11
S'0.5'
p12
aS"litre d'"
p13
aS'eau'
p14
aa(lp15
S'40.0'
p16
aS'morceaux de'
p17
aS'sucre'
p18
aaa.