(lp0
S"Merveille d'Alice"
p1
aF2.5
aI2
a(lp2
(lp3
S'5.0'
p4
aS'cl de'
p5
aS'jus de bananes'
p6
aa(lp7
S'4.0'
p8
aS'cl de'
p9
aS'cr\xc3\xa8me de myrtilles'
p10
aa(lp11
S'2.0'
p12
aS'cl de'
p13
aS'liqueur de lychees (soho, litchao)'
p14
aa(lp15
S'2.0'
p16
aS'cl de'
p17
aS'rhum blanc'
p18
aa(lp19
S'1.0'
p20
aS'cl de'
p21
aS'sirop de noix de coco'
p22
aaa.