(lp0
S'Liquid Cookie'
p1
aF4.0
aI1
a(lp2
(lp3
S'2.0'
p4
aS'cl de'
p5
aS'sirop de chocolat cookie'
p6
aa(lp7
S'1.0'
p8
aS'cl de'
p9
aS'liqueur de cacao blanc'
p10
aa(lp11
S'1.0'
p12
aS'cl de'
p13
aS'sirop de noix de macadamia'
p14
aa(lp15
S'1.0'
p16
aS'cl de'
p17
aS'sirop de noisette'
p18
aa(lp19
S'5.0'
p20
aS'cl de'
p21
aS'vodka'
p22
aaa.