(lp0
S'Rose Afternoon'
p1
aF3.8
aI9
a(lp2
(lp3
S'10.0'
p4
aS'cl de'
p5
aS"jus d'oranges"
p6
aa(lp7
S'6.0'
p8
aS'cl de'
p9
aS"jus d'ananas"
p10
aa(lp11
S'3.0'
p12
aS'cl de'
p13
aS'jus de citrons'
p14
aa(lp15
S'6.0'
p16
aS'cl de'
p17
aS'cr\xc3\xa8me fra\xc3\xaeche liquide'
p18
aa(lp19
S'6.0'
p20
aS'goutes de'
p21
aS'sirop de grenadine'
p22
aaa.