(lp0
S'Abricotier'
p1
aF3.2
aI92
a(lp2
(lp3
S'1.0'
p4
aS'cl de'
p5
aS'sirop de fraises'
p6
aa(lp7
S'2.0'
p8
aS'cl de'
p9
aS"liqueur d'abricots (abricot brandy)"
p10
aa(lp11
S'3.0'
p12
aS'cl de'
p13
aS"jus d'oranges"
p14
aa(lp15
S'3.0'
p16
aS'cl de'
p17
aS'gin'
p18
aaa.