(lp0
S"Pousse l'amour"
p1
aF4.2
aI5
a(lp2
(lp3
S'2.0'
p4
aS'cl de'
p5
aS'cognac'
p6
aa(lp7
S'2.0'
p8
aS'cl de'
p9
aS'marasquin'
p10
aa(lp11
S'2.0'
p12
aS'cl de'
p13
aS'liqueur de cacao brun'
p14
aa(lp15
S'1.0'
p16
aS"jaune d'"
p17
aS'oeufs'
p18
aaa.