(lp0
S'Day dream'
p1
aF3.2
aI29
a(lp2
(lp3
S'None'
p4
aS'None'
p5
aS'champagne'
p6
aa(lp7
S'1.5'
p8
aS'cl de'
p9
aS'gin'
p10
aa(lp11
S'0.5'
p12
aS'cl de'
p13
aS'cura\xc3\xa7ao bleu'
p14
aa(lp15
S'1.0'
p16
aS'cl de'
p17
aS'vermouth blanc (martini, cinzano)'
p18
aa(lp19
S'1.0'
p20
aS'cl de'
p21
aS'jus de raisin blanc'
p22
aaa.