(lp0
S"China's dream"
p1
aF2.4
aI9
a(lp2
(lp3
S'0.333333333333'
p4
aS'None'
p5
aS'liqueur de lychees (soho, litchao)'
p6
aa(lp7
S'0.333333333333'
p8
aS'None'
p9
aS'sirop de rose'
p10
aa(lp11
S'0.333333333333'
p12
aS'None'
p13
aS'jus de cerise'
p14
aa(lp15
S'1.0'
p16
aS'pinc\xc3\xa9e de'
p17
aS'poudre de gingembre'
p18
aaa.