(lp0
S'Quent\xc3\xa3o'
p1
aF4.0
aI4
a(lp2
(lp3
S'6.0'
p4
aS'cl de'
p5
aS'cacha\xc3\xa7a'
p6
aa(lp7
S'3.0'
p8
aS'None'
p9
aS'clous de girofle'
p10
aa(lp11
S'10.0'
p12
aS'grammes de'
p13
aS'sucre'
p14
aa(lp15
S'1.0'
p16
aS"zeste d'"
p17
aS'oranges'
p18
aa(lp19
S'1.0'
p20
aS'zeste de'
p21
aS'citrons verts'
p22
aa(lp23
S'10.0'
p24
aS"cl d'"
p25
aS'eau'
p26
aaa.