(lp0
S'Ratafia de framboises'
p1
aF3.6
aI9
a(lp2
(lp3
S'500.0'
p4
aS'grammes de'
p5
aS'framboises'
p6
aa(lp7
S'200.0'
p8
aS'grammes de'
p9
aS'sucre'
p10
aa(lp11
S'0.5'
p12
aS"litre d'"
p13
aS'alcool de fruits'
p14
aa(lp15
S'1.0'
p16
aS'b\xc3\xa2ton de'
p17
aS'cannelle'
p18
aa(lp19
S'1.0'
p20
aS'gousse de'
p21
aS'vanille'
p22
aaa.