(lp0
S'Moppy'
p1
aF2.6
aI8
a(lp2
(lp3
S'4.0'
p4
aS'cl de'
p5
aS'rhum blanc'
p6
aa(lp7
S'4.0'
p8
aS'cl de'
p9
aS'rhum ambr\xc3\xa9'
p10
aa(lp11
S'2.0'
p12
aS'cl de'
p13
aS'cura\xc3\xa7ao bleu'
p14
aa(lp15
S'8.0'
p16
aS'cl de'
p17
aS'jus de pommes'
p18
aa(lp19
S'1.0'
p20
aS'trait de'
p21
aS'sirop de grenadine'
p22
aaa.