(lp0
S'Soleil des Antilles'
p1
aF3.5
aI124
a(lp2
(lp3
S'0.5'
p4
aS'cl de'
p5
aS'sirop de grenadine'
p6
aa(lp7
S'5.0'
p8
aS'cl de'
p9
aS'liqueur de coco (cocogif, malibu)'
p10
aa(lp11
S'10.0'
p12
aS'cl de'
p13
aS'jus de goyaves'
p14
aaa.