(lp0
S'Mona lisa'
p1
aF4.2
aI6
a(lp2
(lp3
S'5.0'
p4
aS'cl de'
p5
aS'ginger ale (canada dry)'
p6
aa(lp7
S'1.5'
p8
aS'cl de'
p9
aS'gin'
p10
aa(lp11
S'1.5'
p12
aS'cl de'
p13
aS'chartreuse verte'
p14
aa(lp15
S'1.0'
p16
aS'cl de'
p17
aS'angostura bitters'
p18
aaa.