(lp0
S'Advocaat'
p1
aF2.7
aI10
a(lp2
(lp3
S'10.0'
p4
aS"jaunes d'"
p5
aS'oeufs'
p6
aa(lp7
S'200.0'
p8
aS'grammes de'
p9
aS'sucre'
p10
aa(lp11
S'10.0'
p12
aS'sachets de'
p13
aS'sucre vanille'
p14
aa(lp15
S'380.0'
p16
aS'grammes de'
p17
aS'lait concentr\xc3\xa9 non sucr\xc3\xa9'
p18
aa(lp19
S'15.0'
p20
aS"cl d'"
p21
aS'alcool \xc3\xa0 90\xc2\xb0'
p22
aaa.