(lp0
S'Vice city'
p1
aF3.3
aI15
a(lp2
(lp3
S'4.0'
p4
aS'cl de'
p5
aS'liqueur de coco (cocogif, malibu)'
p6
aa(lp7
S'2.0'
p8
aS'cl de'
p9
aS'amaretto'
p10
aa(lp11
S'6.0'
p12
aS'cl de'
p13
aS"jus d'oranges"
p14
aa(lp15
S'4.0'
p16
aS'cl de'
p17
aS'jus de fraises'
p18
aa(lp19
S'1.0'
p20
aS'trait de'
p21
aS'sirop de fraises'
p22
aaa.