(lp0
S'Hammerhead'
p1
aF2.5
aI2
a(lp2
(lp3
S'4.0'
p4
aS"cl d'"
p5
aS'amaretto'
p6
aa(lp7
S'4.0'
p8
aS'cl de'
p9
aS'triple sec (cointreau, grand marnier)'
p10
aa(lp11
S'4.0'
p12
aS'cl de'
p13
aS'rhum ambr\xc3\xa9'
p14
aa(lp15
S'0.5'
p16
aS'cl de'
p17
aS'liqueur de p\xc3\xaaches'
p18
aaa.