(lp0
S'Grzane wino'
p1
aF4.0
aI1
a(lp2
(lp3
S'75.0'
p4
aS'cl de'
p5
aS'vin rouge'
p6
aa(lp7
S'150.0'
p8
aS'grammes de'
p9
aS'sucre'
p10
aa(lp11
S'1.0'
p12
aS'None'
p13
aS'orange'
p14
aa(lp15
S'1.0'
p16
aS'd\xc3\xa9 de'
p17
aS'gingembre'
p18
aa(lp19
S'2.0'
p20
aS'b\xc3\xa2tons de'
p21
aS'cannelle'
p22
aa(lp23
S'10.0'
p24
aS'None'
p25
aS'clous de girofle'
p26
aa(lp27
S'1.0'
p28
aS'poign\xc3\xa9e de'
p29
aS'raisins secs'
p30
aa(lp31
S'4.0'
p32
aS'graines de'
p33
aS'cardamome'
p34
aaa.