(lp0
S'Aperitissimo'
p1
aF4.2
aI10
a(lp2
(lp3
S'3.0'
p4
aS'cl de'
p5
aS'vodka'
p6
aa(lp7
S'1.0'
p8
aS'cl de'
p9
aS'cr\xc3\xa8me de fruit de la passion'
p10
aa(lp11
S'3.0'
p12
aS'cl de'
p13
aS'jus de guanabana'
p14
aa(lp15
S'2.0'
p16
aS'cl de'
p17
aS'jus de cranberry (canneberges)'
p18
aa(lp19
S'None'
p20
aS'None'
p21
aS'limonade (soda, sprite, 7up)'
p22
aaa.