(lp0
S'Mai Tai'
p1
aF3.1
aI193
a(lp2
(lp3
S'3.0'
p4
aS'cl de'
p5
aS'rhum blanc'
p6
aa(lp7
S'3.0'
p8
aS'cl de'
p9
aS'rhum ambr\xc3\xa9'
p10
aa(lp11
S'2.0'
p12
aS'cl de'
p13
aS'triple sec (cointreau, grand marnier)'
p14
aa(lp15
S'1.0'
p16
aS'cl de'
p17
aS'sirop de sucre de canne'
p18
aa(lp19
S'3.0'
p20
aS'cl de'
p21
aS'jus de citrons verts'
p22
aa(lp23
S'1.0'
p24
aS'cl de'
p25
aS"sirop d'orgeat"
p26
aaa.