(lp0
S'Bubble premium'
p1
aF3.0
aI5
a(lp2
(lp3
S'2.0'
p4
aS'cl de'
p5
aS'sirop de bubble gum'
p6
aa(lp7
S'5.0'
p8
aS'cl de'
p9
aS'jus de pamplemousses'
p10
aa(lp11
S'None'
p12
aS'None'
p13
aS'champagne'
p14
aaa.