(lp0
S'Antioxenergy'
p1
aF3.0
aI2
a(lp2
(lp3
S'2.0'
p4
aS'grosses poign\xc3\xa9es de'
p5
aS'kale'
p6
aa(lp7
S'15.0'
p8
aS"cl d'"
p9
aS'eau'
p10
aa(lp11
S'90.0'
p12
aS'grammes de'
p13
aS'canneberges (cranberries)'
p14
aa(lp15
S'2.0'
p16
aS'None'
p17
aS'oranges'
p18
aa(lp19
S'2.0'
p20
aS'None'
p21
aS'bananes'
p22
aa(lp23
S'4.0'
p24
aS'None'
p25
aS'fraises'
p26
aaa.