(lp0
S'Sangria espagnole'
p1
aF3.2
aI881
a(lp2
(lp3
S'1.0'
p4
aS'bouteille de'
p5
aS'vin'
p6
aa(lp7
S'8.0'
p8
aS'cl de'
p9
aS'porto rouge'
p10
aa(lp11
S'8.0'
p12
aS'cl de'
p13
aS'triple sec (cointreau, grand marnier)'
p14
aa(lp15
S'None'
p16
aS'None'
p17
aS'gingembre'
p18
aa(lp19
S'8.0'
p20
aS'cl de'
p21
aS'cognac'
p22
aa(lp23
S'None'
p24
aS"le jus et le zeste d'une"
p25
aS'oranges'
p26
aa(lp27
S'None'
p28
aS"le jus et le zeste d'un"
p29
aS'citrons'
p30
aa(lp31
S'None'
p32
aS'None'
p33
aS'cannelle'
p34
aa(lp35
S'None'
p36
aS'None'
p37
aS'fruits de saison'
p38
aa(lp39
S'None'
p40
aS'None'
p41
aS'sucre'
p42
aaa.