(lp0
S'Rhum Cristal'
p1
aF2.6
aI9
a(lp2
(lp3
S'0.142857142857'
p4
aS'de'
p5
aS'rhum ambr\xc3\xa9'
p6
aa(lp7
S'0.142857142857'
p8
aS'de'
p9
aS'rhum blanc'
p10
aa(lp11
S'0.142857142857'
p12
aS'de'
p13
aS'sirop de p\xc3\xaache'
p14
aa(lp15
S'0.142857142857'
p16
aS'de'
p17
aS"sirop d'abricot"
p18
aa(lp19
S'0.428571428571'
p20
aS'de'
p21
aS"jus d'ananas"
p22
aaa.