(lp0
S'Playa'
p1
aF4.4
aI5
a(lp2
(lp3
S'4.0'
p4
aS'cl de'
p5
aS'vodka'
p6
aa(lp7
S'6.0'
p8
aS'cl de'
p9
aS"sirop d'orgeat"
p10
aa(lp11
S'0.666666666667'
p12
aS'de'
p13
aS'jus de goyaves'
p14
aa(lp15
S'0.333333333333'
p16
aS'de'
p17
aS"jus d'anana"
p18
aaa.