(lp0
S'Rhum Vanille'
p1
aF3.0
aI221
a(lp2
(lp3
S'5.0'
p4
aS'cuill\xc3\xa8re \xc3\xa0 caf\xc3\xa9 de'
p5
aS'sucre roux (cassonade)'
p6
aa(lp7
S'5.0'
p8
aS'None'
p9
aS'gousses de vanille'
p10
aa(lp11
S'1.0'
p12
aS'litres de'
p13
aS'rhum blanc'
p14
aaa.