(lp0
S'Pure Apple'
p1
aF3.0
aI110
a(lp2
(lp3
S'70.0'
p4
aS'cl de'
p5
aS'lait'
p6
aa(lp7
S'4.0'
p8
aS'None'
p9
aS'pommes'
p10
aa(lp11
S'3.0'
p12
aS'cuill\xc3\xa8res \xc3\xa0 soupe de'
p13
aS'sucre'
p14
aa(lp15
S'8.0'
p16
aS'None'
p17
aS'petits beurre'
p18
aaa.