(lp0
S'Coco letchee fizz'
p1
aF2.7
aI7
a(lp2
(lp3
S'None'
p4
aS'None'
p5
aS'limonade (soda, sprite, 7up)'
p6
aa(lp7
S'0.5'
p8
aS'cuill\xc3\xa8re \xc3\xa0 caf\xc3\xa9 de'
p9
aS'sucre'
p10
aa(lp11
S'0.1'
p12
aS'de'
p13
aS'jus de citron'
p14
aa(lp15
S'0.2'
p16
aS'de'
p17
aS'jus de lychees (litchis)'
p18
aa(lp19
S'0.3'
p20
aS'de'
p21
aS'batida de coco'
p22
aa(lp23
S'0.4'
p24
aS'de'
p25
aS'rhum blanc'
p26
aaa.