(lp0
S'Picador'
p1
aF4.0
aI3
a(lp2
(lp3
S'4.0'
p4
aS'cl de'
p5
aS'tequila'
p6
aa(lp7
S'2.0'
p8
aS'cl de'
p9
aS'liqueur de caf\xc3\xa9 (kahlua, marie brizard)'
p10
aa(lp11
S'0.5'
p12
aS'None'
p13
aS'citrons vert'
p14
aaa.