(lp0
S'Liqueur de vanille'
p1
aF3.8
aI12
a(lp2
(lp3
S'75.0'
p4
aS'cl de'
p5
aS'rhum blanc'
p6
aa(lp7
S'3.0'
p8
aS'gousses de'
p9
aS'vanille'
p10
aa(lp11
S'30.0'
p12
aS'cl de'
p13
aS'sirop de sucre de canne'
p14
aaa.