(lp0
S'Fidel Castro'
p1
aF2.8
aI4
a(lp2
(lp3
S'6.0'
p4
aS'cl de'
p5
aS'rhum cubain'
p6
aa(lp7
S'3.0'
p8
aS'cl de'
p9
aS'sirop de speculoos'
p10
aa(lp11
S'None'
p12
aS'None'
p13
aS'ginger ale (canada dry)'
p14
aaa.