(lp0
S'Frozen Strawberry'
p1
aF3.5
aI45
a(lp2
(lp3
S'4.0'
p4
aS'cl de'
p5
aS'tequila'
p6
aa(lp7
S'4.0'
p8
aS'cl de'
p9
aS'liqueur de fraises'
p10
aa(lp11
S'4.0'
p12
aS'None'
p13
aS'fraises'
p14
aa(lp15
S'1.0'
p16
aS'cl de'
p17
aS'jus de citrons'
p18
aaa.