(lp0
S'Isba'
p1
aF3.5
aI2
a(lp2
(lp3
S'4.0'
p4
aS'cl de'
p5
aS'vodka'
p6
aa(lp7
S'1.5'
p8
aS'cl de'
p9
aS"liqueur d'abricots (abricot brandy)"
p10
aa(lp11
S'1.5'
p12
aS'cl de'
p13
aS'vermouth blanc (martini, cinzano)'
p14
aa(lp15
S'1.0'
p16
aS'cl de'
p17
aS'jus de citrons'
p18
aaa.