(lp0
S'Big foot'
p1
aF3.6
aI5
a(lp2
(lp3
S'5.0'
p4
aS'cl de'
p5
aS"jus d'oranges"
p6
aa(lp7
S'3.0'
p8
aS'cl de'
p9
aS'gin'
p10
aa(lp11
S'2.0'
p12
aS'cl de'
p13
aS'jus de citrons'
p14
aa(lp15
S'1.0'
p16
aS"jaune d'"
p17
aS'oeufs'
p18
aa(lp19
S'0.5'
p20
aS'cl de'
p21
aS'sirop de grenadine'
p22
aaa.