(lp0
S'Cr\xc3\xa8me de limoncello'
p1
aF3.5
aI14
a(lp2
(lp3
S'750.0'
p4
aS'grammes de'
p5
aS'sucre'
p6
aa(lp7
S'50.0'
p8
aS"cl d'"
p9
aS'alcool \xc3\xa0 90\xc2\xb0'
p10
aa(lp11
S'4.0'
p12
aS'None'
p13
aS'citrons'
p14
aa(lp15
S'1.0'
p16
aS'cuill\xc3\xa8re \xc3\xa0 soupe de'
p17
aS'brandy'
p18
aa(lp19
S'1.0'
p20
aS'sachet de'
p21
aS'vanille'
p22
aa(lp23
S'250.0'
p24
aS'grammes de'
p25
aS'cr\xc3\xa8me fra\xc3\xaeche liquide'
p26
aaa.