(lp0
S'Sunshine'
p1
aF4.0
aI2
a(lp2
(lp3
S'2.0'
p4
aS'cl de'
p5
aS'cognac'
p6
aa(lp7
S'4.0'
p8
aS'cl de'
p9
aS'rhum'
p10
aa(lp11
S'1.0'
p12
aS'cuil\xc3\xa8re \xc3\xa0 soupe de'
p13
aS'sirop de sucre de canne'
p14
aa(lp15
S'2.0'
p16
aS'cl de'
p17
aS'jus de citrons verts'
p18
aaa.