(lp0
S'Hawaii Eye'
p1
aF3.7
aI3
a(lp2
(lp3
S'4.0'
p4
aS'cl de'
p5
aS'whisky (bourbon, whiskey)'
p6
aa(lp7
S'2.0'
p8
aS'cl de'
p9
aS'vodka'
p10
aa(lp11
S'2.0'
p12
aS'cl de'
p13
aS'liqueur de caf\xc3\x83\xc2\xa9 (kahlua, marie brizard)'
p14
aa(lp15
S'1.0'
p16
aS'cl de'
p17
aS'spiritueux anis\xc3\x83\xc2\xa9 (pastis, ricard, pernod)'
p18
aa(lp19
S'1.0'
p20
aS'cl de'
p21
aS'lait'
p22
aa(lp23
S'1.0'
p24
aS'cl de'
p25
aS'cr\xc3\x83\xc2\xa8me fra\xc3\x83\xc2\xaeche liquide'
p26
aa(lp27
S'1.0'
p28
aS"blanc d'"
p29
aS'oeufs'
p30
aaa.