(lp0
S'Th\xc3\x83\xc2\xa9 antillais'
p1
aF2.9
aI7
a(lp2
(lp3
S'1.0'
p4
aS'cl de'
p5
aS'sirop de sucre de canne'
p6
aa(lp7
S'1.0'
p8
aS'cl de'
p9
aS'jus de citrons'
p10
aa(lp11
S'3.0'
p12
aS'cl de'
p13
aS'jus de pommes'
p14
aa(lp15
S'1.5'
p16
aS'cl de'
p17
aS'vin blanc'
p18
aa(lp19
S'1.5'
p20
aS'cl de'
p21
aS'rhum blanc'
p22
aa(lp23
S'9.0'
p24
aS"cl d'"
p25
aS'infusion de th\xc3\x83\xc2\xa9'
p26
aaa.