(lp0
S'Klimt special'
p1
aF3.0
aI44
a(lp2
(lp3
S'None'
p4
aS'None'
p5
aS'champagne'
p6
aa(lp7
S'0.5'
p8
aS'cl de'
p9
aS'angostura bitters'
p10
aa(lp11
S'1.5'
p12
aS'cl de'
p13
aS'rhum blanc'
p14
aa(lp15
S'2.0'
p16
aS'cl de'
p17
aS'liqueur de cacao brun'
p18
aa(lp19
S'0.5'
p20
aS'cl de'
p21
aS'vodka'
p22
aaa.