(lp0
S"Marsala \xc3\xa0 l'amande am\xc3\xa8re"
p1
aF3.0
aI57
a(lp2
(lp3
S'1.0'
p4
aS'litres de'
p5
aS'vin blanc'
p6
aa(lp7
S'3.0'
p8
aS'cuill\xc3\xa8res \xc3\xa0 soupe de'
p9
aS'chicor\xc3\xa9e'
p10
aa(lp11
S'1.0'
p12
aS"verre d'"
p13
aS'eau-de-vie'
p14
aa(lp15
S'250.0'
p16
aS'grammes de'
p17
aS'coriandre'
p18
aa(lp19
S'25.0'
p20
aS'None'
p21
aS'amandes am\xc3\xa8res'
p22
aa(lp23
S'300.0'
p24
aS'grammes de'
p25
aS'sucre'
p26
aaa.