(lp0
S'Nuit de folie'
p1
aF3.0
aI169
a(lp2
(lp3
S'2.0'
p4
aS'cl de'
p5
aS'vodka'
p6
aa(lp7
S'1.0'
p8
aS'cl de'
p9
aS'sirop de gingembre'
p10
aa(lp11
S'2.0'
p12
aS'cl de'
p13
aS'chambord'
p14
aa(lp15
S'2.0'
p16
aS'cl de'
p17
aS'jus de cranberry (canneberges)'
p18
aa(lp19
S'None'
p20
aS'None'
p21
aS'champagne'
p22
aaa.