(lp0
S'Prairie oyster'
p1
aF3.7
aI34
a(lp2
(lp3
S'3.0'
p4
aS'cl de'
p5
aS'x\xc3\xa9r\xc3\xa8s (sherry)'
p6
aa(lp7
S'0.5'
p8
aS'cl de'
p9
aS'ketchup'
p10
aa(lp11
S'0.5'
p12
aS'cl de'
p13
aS'sauce worcestershire'
p14
aa(lp15
S'0.5'
p16
aS'cl de'
p17
aS'vinaigre'
p18
aa(lp19
S'1.0'
p20
aS"jaune d'"
p21
aS'oeufs'
p22
aaa.