(lp0
S'Soupe africaine'
p1
aF4.0
aI8
a(lp2
(lp3
S'20.0'
p4
aS'cl de'
p5
aS'triple sec (cointreau, grand marnier)'
p6
aa(lp7
S'15.0'
p8
aS'cl de'
p9
aS'sirop de citrons'
p10
aa(lp11
S'10.0'
p12
aS'cl de'
p13
aS'sirop de sucre de canne'
p14
aa(lp15
S'75.0'
p16
aS'cl de'
p17
aS'champagne'
p18
aa(lp19
S'1.0'
p20
aS'cl de'
p21
aS'sirop de grenadine'
p22
aaa.