(lp0
S'Cabrioletti'
p1
aF3.0
aI12
a(lp2
(lp3
S'1.0'
p4
aS'cl de'
p5
aS'vodka'
p6
aa(lp7
S'3.0'
p8
aS'morceaux de'
p9
aS'citrons verts'
p10
aa(lp11
S'2.0'
p12
aS'petites cuill\xc3\xa8res de'
p13
aS'sucre'
p14
aa(lp15
S'None'
p16
aS'None'
p17
aS'cidre'
p18
aaa.