(lp0
S'Bi\xc3\xa8re : Le baiser de la princesse'
p1
aF3.3
aI9
a(lp2
(lp3
S'0.76'
p4
aS'kilos de'
p5
aS'malt pilsner'
p6
aa(lp7
S'0.1'
p8
aS'kilos de'
p9
aS'malt caramel'
p10
aa(lp11
S'0.08'
p12
aS'kilos de'
p13
aS'sucre'
p14
aa(lp15
S'4.0'
p16
aS'grammes de'
p17
aS'houblon east kent goldings'
p18
aa(lp19
S'4.0'
p20
aS'grammes de'
p21
aS'bourgeons de conif\xc3\xa8res'
p22
aaa.