(lp0
S"Chi-Chi d'hawah\xc3\xaf"
p1
aF4.1
aI19
a(lp2
(lp3
S'6.0'
p4
aS'onces de'
p5
aS'rhum blanc'
p6
aa(lp7
S'6.0'
p8
aS'onces de'
p9
aS"jus d'ananas"
p10
aa(lp11
S'0.5'
p12
aS'tasse de'
p13
aS'cr\xc3\xa8me fra\xc3\xaeche liquide'
p14
aa(lp15
S'1.0'
p16
aS'cl de'
p17
aS'jus de cerises'
p18
aa(lp19
S'1.0'
p20
aS'cl de'
p21
aS'beurre de coco'
p22
aaa.