(lp0
S'Flambeau'
p1
aF2.3
aI4
a(lp2
(lp3
S'2.0'
p4
aS'cl de'
p5
aS'cr\xc3\xa8me de p\xc3\xaache'
p6
aa(lp7
S'2.0'
p8
aS'cl de'
p9
aS'gin'
p10
aa(lp11
S'1.5'
p12
aS'cl de'
p13
aS'jus de goyaves'
p14
aa(lp15
S'1.5'
p16
aS'cl de'
p17
aS'jus de citrons'
p18
aaa.