(lp0
S'Tremblement de terre'
p1
aF2.7
aI7
a(lp2
(lp3
S'1.0'
p4
aS'tiers de'
p5
aS'whisky (bourbon, whiskey)'
p6
aa(lp7
S'1.0'
p8
aS'tiers de'
p9
aS'spiritueux anis\xc3\xa9 (pastis, ricard, pernod)'
p10
aa(lp11
S'1.0'
p12
aS'tiers de'
p13
aS'gin'
p14
aaa.