(lp0
S'Violette exotique'
p1
aF3.2
aI18
a(lp2
(lp3
S'4.0'
p4
aS'cl de'
p5
aS'liqueur de bananes (pisang ambon)'
p6
aa(lp7
S'8.0'
p8
aS'cl de'
p9
aS"jus d'ananas"
p10
aa(lp11
S'2.0'
p12
aS'cl de'
p13
aS'sirop de violette'
p14
aaa.