(lp0
S'Harvey Wallbanger'
p1
aF4.3
aI23
a(lp2
(lp3
S'4.0'
p4
aS'cl de'
p5
aS'vodka'
p6
aa(lp7
S'1.5'
p8
aS'cl de'
p9
aS'liqueur galliano'
p10
aa(lp11
S'12.0'
p12
aS'cl de'
p13
aS"jus d'oranges"
p14
aaa.