(lp0
S'D\xc3\xa9mangeaison tropicale'
p1
aF3.3
aI8
a(lp2
(lp3
S'1.0'
p4
aS'mesure de'
p5
aS'rhum blanc'
p6
aa(lp7
S'1.0'
p8
aS'mesure de'
p9
aS'rhum ambr\xc3\xa9'
p10
aa(lp11
S'1.0'
p12
aS'mesure de'
p13
aS'vodka'
p14
aa(lp15
S'1.0'
p16
aS'mesure de'
p17
aS'triple sec (cointreau, grand marnier)'
p18
aa(lp19
S'0.25'
p20
aS'de mesure de'
p21
aS'jus de citrons verts'
p22
aa(lp23
S'4.0'
p24
aS'mesures de'
p25
aS'jus de mangues'
p26
aaa.