(lp0
S"Alexander's Sister"
p1
aF2.7
aI7
a(lp2
(lp3
S'4.0'
p4
aS'cl de'
p5
aS'gin'
p6
aa(lp7
S'2.0'
p8
aS'cl de'
p9
aS'liqueur de menthe blanche (get 31)'
p10
aa(lp11
S'2.0'
p12
aS'cl de'
p13
aS'lait'
p14
aa(lp15
S'1.0'
p16
aS'cl de'
p17
aS'cr\xc3\xa8me fra\xc3\xaeche liquide'
p18
aa(lp19
S'1.0'
p20
aS'pinc\xc3\xa9e de'
p21
aS'noix de muscade r\xc3\xa2p\xc3\xa9e'
p22
aaa.