(lp0
S'Le M'
p1
aF4.1
aI23
a(lp2
(lp3
S'2.0'
p4
aS'cl de'
p5
aS'sirop de grenadine'
p6
aa(lp7
S'3.0'
p8
aS'cl de'
p9
aS'vodka'
p10
aa(lp11
S'5.0'
p12
aS'cl de'
p13
aS'bi\xc3\xa8re blonde'
p14
aa(lp15
S'5.0'
p16
aS'cl de'
p17
aS'jus de pommes'
p18
aa(lp19
S'None'
p20
aS'quelques d\xc3\xa9s de'
p21
aS'pommes'
p22
aaa.