(lp0
S'Deelight'
p1
aF3.5
aI2
a(lp2
(lp3
S'None'
p4
aS'None'
p5
aS'limonade (soda, sprite, 7up)'
p6
aa(lp7
S'2.0'
p8
aS'cl de'
p9
aS'cr\xc3\xa8me de bananes'
p10
aa(lp11
S'1.0'
p12
aS'None'
p13
aS'citrons vert'
p14
aa(lp15
S'4.0'
p16
aS'cl de'
p17
aS'cognac'
p18
aaa.