(lp0
S'White Canadian'
p1
aF2.7
aI12
a(lp2
(lp3
S'6.0'
p4
aS'cl de'
p5
aS'vodka'
p6
aa(lp7
S'6.0'
p8
aS'cl de'
p9
aS'liqueur de caf\xc3\x83\xc2\xa9 (kahlua, marie brizard)'
p10
aa(lp11
S'6.0'
p12
aS'cl de'
p13
aS'lait de ch\xc3\x83\xc2\xa8vre'
p14
aaa.