(lp0
S'Bite Of the Apple'
p1
aF4.0
aI9
a(lp2
(lp3
S'12.0'
p4
aS'cl de'
p5
aS'jus de pommes'
p6
aa(lp7
S'2.0'
p8
aS'cl de'
p9
aS'jus de citrons verts'
p10
aa(lp11
S'1.0'
p12
aS'cl de'
p13
aS"sirop d'orgeat"
p14
aa(lp15
S'1.0'
p16
aS'cl de'
p17
aS'compote de pomme'
p18
aa(lp19
S'1.0'
p20
aS'cl de'
p21
aS'sirop de cannelle'
p22
aaa.