(lp0
S'Vin de Colette'
p1
aF3.1
aI46
a(lp2
(lp3
S'25.0'
p4
aS'grammes de'
p5
aS'sucre'
p6
aa(lp7
S'0.1'
p8
aS'None'
p9
aS'oranges'
p10
aa(lp11
S'1.25'
p12
aS"cl d'"
p13
aS'armagnac'
p14
aa(lp15
S'0.1'
p16
aS'litres de'
p17
aS'vin blanc'
p18
aaa.