(lp0
S'Canadian squash'
p1
aF2.8
aI4
a(lp2
(lp3
S'6.0'
p4
aS'cl de'
p5
aS"jus d'oranges"
p6
aa(lp7
S'4.0'
p8
aS'cl de'
p9
aS'whisky (bourbon, whiskey)'
p10
aa(lp11
S'1.0'
p12
aS'cl de'
p13
aS'cr\xc3\xa8me de whisky (baileys)'
p14
aa(lp15
S'1.0'
p16
aS'cl de'
p17
aS'jus de citrons'
p18
aaa.