(lp0
S'Troncard 27'
p1
aF4.0
aI1
a(lp2
(lp3
S'3.0'
p4
aS'cl de'
p5
aS'sirop de citrons'
p6
aa(lp7
S'7.0'
p8
aS'cl de'
p9
aS'liqueur de menthe verte (get 27)'
p10
aa(lp11
S'7.0'
p12
aS'cl de'
p13
aS'anisette (berger blanc)'
p14
aaa.