(lp0
S'Punch au muscadet'
p1
aF2.9
aI104
a(lp2
(lp3
S'10.0'
p4
aS'cl de'
p5
aS'sirop de sucre de canne'
p6
aa(lp7
S'8.0'
p8
aS'cl de'
p9
aS"sirop d'orange sanguine"
p10
aa(lp11
S'10.0'
p12
aS'cl de'
p13
aS'rhum blanc'
p14
aa(lp15
S'1.0'
p16
aS'bouteille de'
p17
aS'muscadet'
p18
aaa.