(lp0
S'Alicante'
p1
aF3.5
aI8
a(lp2
(lp3
S'25.0'
p4
aS'cl de'
p5
aS'vin rouge'
p6
aa(lp7
S'2.0'
p8
aS"litres d'"
p9
aS'alcool \xc3\xa0 90\xc2\xb0'
p10
aa(lp11
S'1.0'
p12
aS'litres de'
p13
aS'jus de raisins'
p14
aa(lp15
S'150.0'
p16
aS'grammes de'
p17
aS'broux de noix'
p18
aa(lp19
S'100.0'
p20
aS'grammes de'
p21
aS'cannelle'
p22
aaa.