(lp0
S'Capuccino de chocolat'
p1
aF3.8
aI29
a(lp2
(lp3
S'150.0'
p4
aS'grammes de'
p5
aS'chocolat'
p6
aa(lp7
S'4.0'
p8
aS'cuill\xc3\xa8res \xc3\xa0 caf\xc3\xa9 de'
p9
aS'sucre'
p10
aa(lp11
S'1.0'
p12
aS'sachet de'
p13
aS'sucre vanille'
p14
aa(lp15
S'1.0'
p16
aS'pinc\xc3\xa9e de'
p17
aS'sel'
p18
aa(lp19
S'None'
p20
aS'None'
p21
aS'eau'
p22
aa(lp23
S'10.0'
p24
aS'cl de'
p25
aS'cr\xc3\xa8me fra\xc3\xaeche liquide'
p26
aaa.