(lp0
S'Apiconuts'
p1
aF4.0
aI3
a(lp2
(lp3
S'8.0'
p4
aS'cl de'
p5
aS'nectar de p\xc3\xaaches'
p6
aa(lp7
S'8.0'
p8
aS'cl de'
p9
aS"jus d'abricots"
p10
aa(lp11
S'4.0'
p12
aS'cl de'
p13
aS'lait de coco'
p14
aa(lp15
S'3.0'
p16
aS'cl de'
p17
aS'sirop de noisette'
p18
aaa.