(lp0
S'Energy'
p1
aF3.5
aI23
a(lp2
(lp3
S'2.0'
p4
aS'None'
p5
aS'tomates'
p6
aa(lp7
S'1.0'
p8
aS'branche de'
p9
aS'celeri'
p10
aa(lp11
S'None'
p12
aS"jus d'1/2"
p13
aS'citrons'
p14
aa(lp15
S'0.5'
p16
aS'cl de'
p17
aS'moutarde'
p18
aaa.