(lp0
S'Hypocras aux figues'
p1
aF4.0
aI1
a(lp2
(lp3
S'200.0'
p4
aS'grammes de'
p5
aS'figues'
p6
aa(lp7
S'20.0'
p8
aS"cl d'"
p9
aS'eau-de-vie \xc3\xa0 70\xc2\xb0'
p10
aa(lp11
S'10.0'
p12
aS'None'
p13
aS'baies de geni\xc3\xa8vre'
p14
aa(lp15
S'20.0'
p16
aS'cl de'
p17
aS'vin rouge'
p18
aaa.