(lp0
S'Dynasty (Camjjd)'
p1
aF4.0
aI5
a(lp2
(lp3
S'6.0'
p4
aS'cl de'
p5
aS'tequila'
p6
aa(lp7
S'6.0'
p8
aS'cl de'
p9
aS'vodka'
p10
aa(lp11
S'6.0'
p12
aS'cl de'
p13
aS'liqueur de menthe blanche (get 31)'
p14
aa(lp15
S'1.0'
p16
aS'cl de'
p17
aS'liqueur de menthe verte (get 27)'
p18
aaa.