(lp0
S'Tomato cocktail'
p1
aF4.0
aI4
a(lp2
(lp3
S'None'
p4
aS'None'
p5
aS'sel de c\xc3\xa9leri'
p6
aa(lp7
S'0.5'
p8
aS'jus'
p9
aS'citrons'
p10
aa(lp11
S'0.5'
p12
aS'cl de'
p13
aS'tabasco'
p14
aa(lp15
S'1.0'
p16
aS'cl de'
p17
aS'sauce anglaise'
p18
aa(lp19
S'None'
p20
aS'jus'
p21
aS'tomates'
p22
aaa.