(lp0
S'Caf\xc3\xa9 chocolat'
p1
aF2.8
aI5
a(lp2
(lp3
S'None'
p4
aS'None'
p5
aS'cr\xc3\xa8me chantilly'
p6
aa(lp7
S'500.0'
p8
aS'grammes de'
p9
aS'caf\xc3\xa9 en poudre'
p10
aa(lp11
S'200.0'
p12
aS'grammes de'
p13
aS'chocolat en poudre'
p14
aa(lp15
S'50.0'
p16
aS"cl d'"
p17
aS'eau'
p18
aa(lp19
S'1.0'
p20
aS"sachet d'"
p21
aS'aspartame'
p22
aaa.