(lp0
S'Rhum la Paille'
p1
aF3.0
aI5
a(lp2
(lp3
S'1.0'
p4
aS'litres de'
p5
aS'rhum blanc'
p6
aa(lp7
S'2.0'
p8
aS'branches de'
p9
aS'fahan'
p10
aa(lp11
S'1.0'
p12
aS'gousse de'
p13
aS'vanille'
p14
aa(lp15
S'1.0'
p16
aS"branche d'"
p17
aS'anis'
p18
aa(lp19
S'4.0'
p20
aS'grains de'
p21
aS'caf\xc3\xa9'
p22
aa(lp23
S'6.0'
p24
aS'cuill\xc3\xa8res \xc3\xa0 soupe de'
p25
aS'sucre roux (cassonade)'
p26
aa(lp27
S'2.0'
p28
aS'cuill\xc3\xa8res \xc3\xa0 soupe de'
p29
aS'sirop de miel'
p30
aaa.