(lp0
S'Liqueur de rhubarbe'
p1
aF2.5
aI19
a(lp2
(lp3
S'500.0'
p4
aS'grammes de tiges de'
p5
aS'rhubarbe'
p6
aa(lp7
S'500.0'
p8
aS'grammes de'
p9
aS'sucre'
p10
aa(lp11
S'50.0'
p12
aS'cl de'
p13
aS'vodka'
p14
aa(lp15
S'3.0'
p16
aS'gousses de'
p17
aS'cardamome'
p18
aaa.