(lp0
S'Mangalore Sangria'
p1
aF2.9
aI19
a(lp2
(lp3
S'2.0'
p4
aS'bouteilles de'
p5
aS'jus de fraises'
p6
aa(lp7
S'1.0'
p8
aS'bouteille de'
p9
aS'mangalore'
p10
aa(lp11
S'None'
p12
aS'None'
p13
aS'fruits de saison'
p14
aaa.