(lp0
S'Raspberries by vanilla'
p1
aF4.1
aI19
a(lp2
(lp3
S'100.0'
p4
aS'grammes de'
p5
aS'framboises'
p6
aa(lp7
S'30.0'
p8
aS'grammes de'
p9
aS'sucre'
p10
aa(lp11
S'2.0'
p12
aS'None'
p13
aS'yaourt nature'
p14
aa(lp15
S'80.0'
p16
aS'gramme de'
p17
aS'sorbet \xc3\xa0 la vanille'
p18
aaa.