(lp0
S'Purple Sour'
p1
aF4.5
aI4
a(lp2
(lp3
S'1.0'
p4
aS'cl de'
p5
aS'sour puss'
p6
aa(lp7
S'1.0'
p8
aS'cl de'
p9
aS'cura\xc3\xa7ao bleu'
p10
aa(lp11
S'2.0'
p12
aS'cl de'
p13
aS'jus de cranberry (canneberges)'
p14
aa(lp15
S'6.0'
p16
aS'cl de'
p17
aS'bar mix'
p18
aaa.