(lp0
S'Cr\xc3\xa8me de Menthe'
p1
aF3.8
aI17
a(lp2
(lp3
S'1.0'
p4
aS'kilo de'
p5
aS'sucre'
p6
aa(lp7
S'0.5'
p8
aS"litre d'"
p9
aS'eau'
p10
aa(lp11
S'250.0'
p12
aS'grammes de'
p13
aS'feuilles de menthe'
p14
aa(lp15
S'1.0'
p16
aS"litre d'"
p17
aS'eau-de-vie'
p18
aaa.