(lp0
S'Nuage bleu'
p1
aF3.1
aI123
a(lp2
(lp3
S'1.0'
p4
aS'cl de'
p5
aS'cura\xc3\xa7ao bleu'
p6
aa(lp7
S'1.0'
p8
aS'cl de'
p9
aS'triple sec (cointreau, grand marnier)'
p10
aa(lp11
S'2.0'
p12
aS'cl de'
p13
aS'gin'
p14
aa(lp15
S'None'
p16
aS'None'
p17
aS'vin mousseux'
p18
aaa.