(lp0
S'Mad Spicy Red Gin Tonic'
p1
aF2.8
aI5
a(lp2
(lp3
S'3.0'
p4
aS'cl de'
p5
aS'gin'
p6
aa(lp7
S'1.0'
p8
aS'cl de'
p9
aS'liqueur de fraises'
p10
aa(lp11
S'1.0'
p12
aS'cl de'
p13
aS'sirop de framboises'
p14
aa(lp15
S'1.0'
p16
aS'cl de'
p17
aS"sirop d'\xc3\xa9pices (spicy)"
p18
aa(lp19
S'None'
p20
aS'None'
p21
aS'tonic (schweppes)'
p22
aaa.