(lp0
S'Karneval'
p1
aF4.0
aI1
a(lp2
(lp3
S'0.5'
p4
aS'cl de'
p5
aS'coco lopez'
p6
aa(lp7
S'2.0'
p8
aS'cl de'
p9
aS'x\xc3\xa9r\xc3\xa8s sec (sherry dry)'
p10
aa(lp11
S'2.0'
p12
aS'cl de'
p13
aS'liqueur de coco (cocogif, malibu)'
p14
aa(lp15
S'2.0'
p16
aS'cl de'
p17
aS'midori'
p18
aaa.