(lp0
S'Chicano'
p1
aF3.5
aI2
a(lp2
(lp3
S'3.0'
p4
aS'cl de'
p5
aS'tequila'
p6
aa(lp7
S'2.0'
p8
aS'cl de'
p9
aS"sirop d'\xc3\xa9pices (spicy)"
p10
aa(lp11
S'5.0'
p12
aS'cl de'
p13
aS'jus de goyaves'
p14
aa(lp15
S'1.0'
p16
aS'cl de'
p17
aS'lime cordial'
p18
aaa.