(lp0
S'Punch cr\xc3\xa9ole'
p1
aF2.7
aI14
a(lp2
(lp3
S'0.05'
p4
aS'litres de'
p5
aS'rhum blanc'
p6
aa(lp7
S'0.05'
p8
aS'gousse de'
p9
aS'vanille'
p10
aa(lp11
S'0.5'
p12
aS'cl de'
p13
aS'sirop de sucre de canne'
p14
aa(lp15
S'0.05'
p16
aS'None'
p17
aS'citrons vert'
p18
aa(lp19
S'0.1'
p20
aS'None'
p21
aS'oranges'
p22
aa(lp23
S'2.5'
p24
aS'cl de'
p25
aS'jus de goyaves'
p26
aa(lp27
S'2.5'
p28
aS'cl de'
p29
aS'jus de mangues'
p30
aa(lp31
S'1.5'
p32
aS'cl de'
p33
aS'jus de bananes'
p34
aa(lp35
S'0.05'
p36
aS'pinc\xc3\xa9e de'
p37
aS'cannelle'
p38
aaa.