(lp0
S'Red Flame'
p1
aF4.5
aI2
a(lp2
(lp3
S'8.0'
p4
aS'cl de'
p5
aS'vodka'
p6
aa(lp7
S'10.0'
p8
aS'cl de'
p9
aS"jus d'oranges sanguines"
p10
aa(lp11
S'10.0'
p12
aS'cl de'
p13
aS'jus de pamplemousses'
p14
aa(lp15
S'5.0'
p16
aS'cl de'
p17
aS'jus de cranberry (canneberges)'
p18
aa(lp19
S'2.0'
p20
aS'cl de'
p21
aS'liqueur de p\xc3\xaaches'
p22
aaa.