(lp0
S'Bi\xc3\xa8re chaude'
p1
aF3.2
aI5
a(lp2
(lp3
S'1.0'
p4
aS'fine tranche de'
p5
aS'gingembre'
p6
aa(lp7
S'0.5'
p8
aS'gousse de'
p9
aS'vanille'
p10
aa(lp11
S'3.0'
p12
aS'None'
p13
aS'clous de girofle'
p14
aa(lp15
S'1.0'
p16
aS'pinc\xc3\xa9e de'
p17
aS'cannelle'
p18
aa(lp19
S'1.0'
p20
aS'litre de'
p21
aS'bi\xc3\xa8re'
p22
aa(lp23
S'100.0'
p24
aS'grammes de'
p25
aS'sucre'
p26
aa(lp27
S'0.5'
p28
aS'None'
p29
aS'citron'
p30
aa(lp31
S'0.5'
p32
aS'None'
p33
aS'orange'
p34
aa(lp35
S'1.0'
p36
aS'None'
p37
aS'citrons vert'
p38
aaa.