(lp0
S'Batido de fraise'
p1
aF3.5
aI167
a(lp2
(lp3
S'15.0'
p4
aS'grammes de'
p5
aS'fraises'
p6
aa(lp7
S'5.0'
p8
aS'grammes de'
p9
aS'sucre'
p10
aa(lp11
S'3.0'
p12
aS'cl de'
p13
aS'cr\xc3\xa8me fra\xc3\xaeche liquide'
p14
aa(lp15
S'0.1'
p16
aS'None'
p17
aS'yaourt nature'
p18
aaa.