(lp0
S'Laetitia special'
p1
aF3.8
aI12
a(lp2
(lp3
S'6.0'
p4
aS'cl de'
p5
aS'jus de fruit de la passion (maracuja)'
p6
aa(lp7
S'4.0'
p8
aS'cl de'
p9
aS'jus de citrons'
p10
aa(lp11
S'4.0'
p12
aS'cl de'
p13
aS"jus d'ananas"
p14
aa(lp15
S'1.0'
p16
aS'cl de'
p17
aS'sirop de menthe'
p18
aaa.