(lp0
S'Treacle'
p1
aF3.0
aI11
a(lp2
(lp3
S'1.0'
p4
aS'cl de'
p5
aS'sirop de gomme'
p6
aa(lp7
S'2.0'
p8
aS"traits d'"
p9
aS'angostura bitters'
p10
aa(lp11
S'5.0'
p12
aS'cl de'
p13
aS'rhum ambr\xc3\xa9'
p14
aa(lp15
S'None'
p16
aS'None'
p17
aS'jus de pommes'
p18
aa(lp19
S'1.0'
p20
aS'None'
p21
aS"zestes d'orange"
p22
aaa.