(lp0
S'Casino'
p1
aF3.5
aI2
a(lp2
(lp3
S'1.5'
p4
aS'cl de'
p5
aS'cr\xc3\xa8me fra\xc3\xaeche liquide'
p6
aa(lp7
S'1.5'
p8
aS'cl de'
p9
aS'amaretto'
p10
aa(lp11
S'1.5'
p12
aS'cl de'
p13
aS'safari'
p14
aa(lp15
S'3.0'
p16
aS'cl de'
p17
aS'p\xc3\xa9cher mignon'
p18
aaa.