(lp0
S"L'amoroso"
p1
aF2.5
aI6
a(lp2
(lp3
S'6.0'
p4
aS'cl de'
p5
aS'champagne'
p6
aa(lp7
S'2.0'
p8
aS'cl de'
p9
aS'sirop de violette'
p10
aa(lp11
S'2.0'
p12
aS'cl de'
p13
aS'liqueur de farigoule'
p14
aaa.