(lp0
S'Silk Stocking 2'
p1
aF4.0
aI4
a(lp2
(lp3
S'8.0'
p4
aS'cl de'
p5
aS'lait'
p6
aa(lp7
S'1.0'
p8
aS'cl de'
p9
aS'sirop de grenadine'
p10
aa(lp11
S'1.0'
p12
aS'cl de'
p13
aS'liqueur de cacao blanc'
p14
aa(lp15
S'4.0'
p16
aS'cl de'
p17
aS'tequila'
p18
aaa.