(lp0
S'Coca cola cock'
p1
aF3.2
aI90
a(lp2
(lp3
S'4.0'
p4
aS'cl de'
p5
aS'gin'
p6
aa(lp7
S'6.0'
p8
aS'cl de'
p9
aS'cola (coca cola, pepsi)'
p10
aa(lp11
S'None'
p12
aS'quelques gouttes de'
p13
aS'jus de citrons'
p14
aaa.