(lp0
S'Special applejack'
p1
aF2.7
aI3
a(lp2
(lp3
S'200.0'
p4
aS'g de'
p5
aS'pommes reinettes'
p6
aa(lp7
S'20.0'
p8
aS'cl de'
p9
aS'eau-de-vie de pommes'
p10
aa(lp11
S'40.0'
p12
aS'cl de'
p13
aS'cidre'
p14
aaa.