(lp0
S'Picon'
p1
aF3.2
aI5
a(lp2
(lp3
S'0.65'
p4
aS'grammes de'
p5
aS'quinquina rouge'
p6
aa(lp7
S'0.65'
p8
aS'grammes de'
p9
aS'racine de gentiane'
p10
aa(lp11
S'0.35'
p12
aS"grammes d'"
p13
aS"\xc3\xa9corce d'orange"
p14
aa(lp15
S'0.05'
p16
aS"litre d'"
p17
aS'alcool \xc3\xa0 90\xc2\xb0'
p18
aa(lp19
S'0.3'
p20
aS'None'
p21
aS'oranges'
p22
aa(lp23
S'0.1'
p24
aS'kilos de'
p25
aS'sucre'
p26
aa(lp27
S'1.0'
p28
aS'cl de'
p29
aS'sirop de caramel'
p30
aa(lp31
S'0.2'
p32
aS"litres d'"
p33
aS'eau'
p34
aaa.