(lp0
S'Sazerac'
p1
aF3.8
aI14
a(lp2
(lp3
S'1.0'
p4
aS'cl de'
p5
aS'spiritueux anis\xc3\xa9 (pastis, ricard, pernod)'
p6
aa(lp7
S'4.0'
p8
aS"gouttes d'"
p9
aS'angostura bitters'
p10
aa(lp11
S'1.0'
p12
aS'cl de'
p13
aS'sirop de sucre de canne'
p14
aa(lp15
S'6.0'
p16
aS'cl de'
p17
aS'whisky (bourbon, whiskey)'
p18
aa(lp19
S'1.0'
p20
aS'zeste de'
p21
aS'citrons'
p22
aaa.