(lp0
S'Traumschiff'
p1
aF3.7
aI7
a(lp2
(lp3
S'10.0'
p4
aS'cl de'
p5
aS"jus d'ananas"
p6
aa(lp7
S'2.0'
p8
aS'cl de'
p9
aS'cura\xc3\xa7ao bleu'
p10
aa(lp11
S'1.0'
p12
aS'cl de'
p13
aS'liqueur de coco (cocogif, malibu)'
p14
aa(lp15
S'4.0'
p16
aS'cl de'
p17
aS'licor 43'
p18
aaa.