(lp0
S'Ti pilou royal'
p1
aF3.0
aI5
a(lp2
(lp3
S'1.5'
p4
aS'cl de'
p5
aS'triple sec (cointreau, grand marnier)'
p6
aa(lp7
S'3.0'
p8
aS'cl de'
p9
aS'jus de bananes'
p10
aa(lp11
S'6.0'
p12
aS'cl de'
p13
aS'jus de mangues'
p14
aa(lp15
S'6.0'
p16
aS'cl de'
p17
aS'champagne'
p18
aaa.