(lp0
S'Strawberry Famous Shake'
p1
aF4.0
aI1
a(lp2
(lp3
S'3.0'
p4
aS'cl de'
p5
aS'sirop de fraises'
p6
aa(lp7
S'15.0'
p8
aS'cl de'
p9
aS'lait'
p10
aa(lp11
S'2.0'
p12
aS'cl de'
p13
aS'lime cordial'
p14
aa(lp15
S'None'
p16
aS'None'
p17
aS'cr\xc3\xa8me chantilly'
p18
aaa.