(lp0
S'Smoothie Coach'
p1
aF4.0
aI1
a(lp2
(lp3
S'3.0'
p4
aS'cl de'
p5
aS'pur\xc3\xa9e de fraise'
p6
aa(lp7
S'2.0'
p8
aS'cl de'
p9
aS'pur\xc3\xa9e de p\xc3\xaache'
p10
aa(lp11
S'4.0'
p12
aS'cl de'
p13
aS'jus de framboises'
p14
aa(lp15
S'1.0'
p16
aS'cl de'
p17
aS'sirop de gingembre'
p18
aaa.