(lp0
S'Shrubb'
p1
aF3.2
aI51
a(lp2
(lp3
S'7.5'
p4
aS'cl de'
p5
aS'sirop de sucre de canne'
p6
aa(lp7
S'0.5'
p8
aS'None'
p9
aS'oranges'
p10
aa(lp11
S'1.25'
p12
aS'None'
p13
aS'mandarines'
p14
aa(lp15
S'0.25'
p16
aS'litre de'
p17
aS'rhum blanc'
p18
aa(lp19
S'0.25'
p20
aS'gousse de'
p21
aS'vanille'
p22
aa(lp23
S'0.25'
p24
aS'b\xc3\xa2ton de'
p25
aS'cannelle'
p26
aa(lp27
S'0.25'
p28
aS'pinc\xc3\xa9e de'
p29
aS'noix de muscade r\xc3\xa2p\xc3\xa9e'
p30
aaa.