(lp0
S'V\xc3\xa9suve'
p1
aF4.5
aI2
a(lp2
(lp3
S'3.0'
p4
aS'cl de'
p5
aS'sirop de cranberry'
p6
aa(lp7
S'2.0'
p8
aS'cl de'
p9
aS'jus de citrons'
p10
aa(lp11
S'None'
p12
aS'None'
p13
aS'eau gazeuse (perrier, salvetat)'
p14
aaa.