(lp0
S'Ba-Bu'
p1
aF3.0
aI1
a(lp2
(lp3
S'2.0'
p4
aS'cl de'
p5
aS'vermouth blanc (martini, cinzano)'
p6
aa(lp7
S'2.0'
p8
aS'cl de'
p9
aS'eau-de-vie de poires williams'
p10
aa(lp11
S'4.0'
p12
aS'cl de'
p13
aS'liqueur de fraises'
p14
aaa.