(lp0
S'Cabanis Cocktail'
p1
aF3.0
aI1
a(lp2
(lp3
S'1.5'
p4
aS'cl de'
p5
aS'sirop de grenadine'
p6
aa(lp7
S'2.0'
p8
aS"cl d'"
p9
aS'anisette (berger blanc)'
p10
aa(lp11
S'4.0'
p12
aS'cl de'
p13
aS'whisky (bourbon, whiskey)'
p14
aaa.