(lp0
S'Silvia'
p1
aF3.3
aI4
a(lp2
(lp3
S'8.0'
p4
aS'cl de'
p5
aS'jus de corossol'
p6
aa(lp7
S'2.0'
p8
aS'cl de'
p9
aS'tequila'
p10
aa(lp11
S'2.0'
p12
aS'cl de'
p13
aS'liqueur de bananes (pisang ambon)'
p14
aaa.