(lp0
S'Brandy shanteralla'
p1
aF4.0
aI1
a(lp2
(lp3
S'1.5'
p4
aS'cl de'
p5
aS'cura\xc3\xa7ao bleu'
p6
aa(lp7
S'1.5'
p8
aS'cl de'
p9
aS'chartreuse jaune'
p10
aa(lp11
S'1.5'
p12
aS"cl d'"
p13
aS'anisette (berger blanc)'
p14
aa(lp15
S'5.0'
p16
aS'cl de'
p17
aS'brandy'
p18
aaa.