(lp0
S'Tomato-cooler'
p1
aF4.4
aI5
a(lp2
(lp3
S'1.0'
p4
aS'pinc\xc3\xa9e de'
p5
aS'sel'
p6
aa(lp7
S'1.0'
p8
aS'cl de'
p9
aS'sauce worcestershire'
p10
aa(lp11
S'1.0'
p12
aS'cl de'
p13
aS'jus de citrons'
p14
aa(lp15
S'30.0'
p16
aS'g de'
p17
aS'concombres'
p18
aa(lp19
S'15.0'
p20
aS'cl de'
p21
aS'jus de tomates'
p22
aaa.