(lp0
S'Brise du soir'
p1
aF3.3
aI139
a(lp2
(lp3
S'6.0'
p4
aS'cl de'
p5
aS"jus d'ananas"
p6
aa(lp7
S'2.0'
p8
aS'cl de'
p9
aS'cr\xc3\xa8me de fraise des bois'
p10
aa(lp11
S'2.0'
p12
aS'cl de'
p13
aS'triple sec (cointreau, grand marnier)'
p14
aa(lp15
S'5.0'
p16
aS'cl de'
p17
aS'vodka'
p18
aaa.