(lp0
S'Papa Hemingway'
p1
aF3.2
aI98
a(lp2
(lp3
S'6.0'
p4
aS'cl de'
p5
aS'rhum cubain'
p6
aa(lp7
S'None'
p8
aS"jus d'un"
p9
aS'citrons verts'
p10
aa(lp11
S'0.5'
p12
aS'cuill\xc3\xa8res de'
p13
aS'marasquin'
p14
aaa.