(lp0
S'Neo mushroom'
p1
aF3.0
aI41
a(lp2
(lp3
S'2.0'
p4
aS'cl de'
p5
aS'liqueur de poire'
p6
aa(lp7
S'6.0'
p8
aS'cl de'
p9
aS'vodka'
p10
aa(lp11
S'1.0'
p12
aS'morceau de'
p13
aS'truffe'
p14
aa(lp15
S'2.0'
p16
aS'cl de'
p17
aS'sirop de fleurs de sureau'
p18
aaa.