(lp0
S'Cappuccino \xc3\xa9pices'
p1
aF3.2
aI24
a(lp2
(lp3
S'5.0'
p4
aS'cl de'
p5
aS'caf\xc3\xa9'
p6
aa(lp7
S'10.0'
p8
aS'cl de'
p9
aS'lait'
p10
aa(lp11
S'1.0'
p12
aS'cuill\xc3\xa8res \xc3\xa0 soupe de'
p13
aS'sucre'
p14
aa(lp15
S'0.5'
p16
aS'cuill\xc3\xa8re \xc3\xa0 soupe de'
p17
aS'cacao en poudre'
p18
aa(lp19
S'0.5'
p20
aS'None'
p21
aS'clous de girofle'
p22
aa(lp23
S'0.5'
p24
aS'pinc\xc3\xa9e de'
p25
aS'cannelle'
p26
aa(lp27
S'0.5'
p28
aS'pinc\xc3\xa9e de'
p29
aS'vanille'
p30
aa(lp31
S'0.5'
p32
aS'pinc\xc3\xa9e de'
p33
aS'noix de muscade'
p34
aa(lp35
S'0.5'
p36
aS'zeste de'
p37
aS'oranges'
p38
aaa.