(lp0
S'Rhum r\xc3\xa9glisse anis'
p1
aF3.3
aI6
a(lp2
(lp3
S'1.0'
p4
aS'litres de'
p5
aS'rhum blanc'
p6
aa(lp7
S'4.0'
p8
aS'grammes de'
p9
aS'b\xc3\xa2tons de reglisse'
p10
aa(lp11
S'6.0'
p12
aS'grammes de'
p13
aS'badiane'
p14
aa(lp15
S'4.0'
p16
aS'grammes de'
p17
aS'cardamome'
p18
aa(lp19
S'250.0'
p20
aS'grammes de'
p21
aS'sirop de sucre de canne'
p22
aaa.