(lp0
S'Candie pink'
p1
aF3.8
aI10
a(lp2
(lp3
S'4.0'
p4
aS'cl de'
p5
aS'liqueur de lychees (soho, litchao)'
p6
aa(lp7
S'4.0'
p8
aS'cl de'
p9
aS'jus de lychees (litchis)'
p10
aa(lp11
S'4.0'
p12
aS'cl de'
p13
aS'lait de coco'
p14
aa(lp15
S'1.0'
p16
aS'trait de'
p17
aS'sirop de fraises'
p18
aa(lp19
S'2.0'
p20
aS'cuill\xc3\xa8re de'
p21
aS'sucre'
p22
aa(lp23
S'1.0'
p24
aS'None'
p25
aS'lychees (litchis)'
p26
aaa.