(lp0
S"Tybot's"
p1
aF3.0
aI1
a(lp2
(lp3
S'4.0'
p4
aS'cl de'
p5
aS'whisky (bourbon, whiskey)'
p6
aa(lp7
S'0.25'
p8
aS'zeste de'
p9
aS'citrons'
p10
aa(lp11
S'1.0'
p12
aS'cuill\xc3\xa8re de'
p13
aS'sucre roux (cassonade)'
p14
aaa.