(lp0
S'Moonlight'
p1
aF3.9
aI29
a(lp2
(lp3
S'0.2'
p4
aS'volumes de'
p5
aS'cr\xc3\xa8me fra\xc3\xaeche liquide'
p6
aa(lp7
S'0.4'
p8
aS'volumes de'
p9
aS'caf\xc3\xa9'
p10
aa(lp11
S'0.1'
p12
aS'volumes de'
p13
aS'cognac'
p14
aa(lp15
S'0.2'
p16
aS'volumes de'
p17
aS'liqueur mandarine napol\xc3\xa9on'
p18
aa(lp19
S'0.1'
p20
aS'volumes de'
p21
aS'sirop de gomme'
p22
aa(lp23
S'1.0'
p24
aS"zeste d'"
p25
aS'oranges'
p26
aa(lp27
S'1.0'
p28
aS'zeste de'
p29
aS'mandarines'
p30
aaa.