(lp0
S'Acuario'
p1
aF2.9
aI15
a(lp2
(lp3
S'1.0'
p4
aS'cl de'
p5
aS'liqueur de bananes (pisang ambon)'
p6
aa(lp7
S'1.0'
p8
aS'cl de'
p9
aS'jus de pamplemousses'
p10
aa(lp11
S'0.5'
p12
aS'cl de'
p13
aS'sirop de sucre de canne'
p14
aa(lp15
S'3.0'
p16
aS'cl de'
p17
aS'rhum blanc'
p18
aaa.