(lp0
S'Ginger Bull'
p1
aF2.7
aI3
a(lp2
(lp3
S'0.5'
p4
aS'cl de'
p5
aS'sirop de gingembre'
p6
aa(lp7
S'15.0'
p8
aS'cl de'
p9
aS'energy drink (red bull, pitbull, duff)'
p10
aa(lp11
S'17.5'
p12
aS'cl de'
p13
aS'bi\xc3\xa8re'
p14
aa(lp15
S'1.0'
p16
aS'pinc\xc3\xa9es de'
p17
aS'gingembre'
p18
aaa.