(lp0
S'Greenita'
p1
aF3.4
aI11
a(lp2
(lp3
S'7.0'
p4
aS'cl de'
p5
aS'vodka'
p6
aa(lp7
S'2.0'
p8
aS'cl de'
p9
aS'sirop de fleurs de sureau'
p10
aa(lp11
S'1.0'
p12
aS'cl de'
p13
aS'sirop de basilic'
p14
aa(lp15
S'2.0'
p16
aS'rondelles de'
p17
aS'concombres'
p18
aa(lp19
S'4.0'
p20
aS'feuilles de'
p21
aS'basilic'
p22
aaa.