(lp0
S'Promenade'
p1
aF3.8
aI8
a(lp2
(lp3
S'None'
p4
aS'None'
p5
aS'champagne'
p6
aa(lp7
S'3.0'
p8
aS'cl de'
p9
aS'rhum blanc'
p10
aa(lp11
S'0.5'
p12
aS'cl de'
p13
aS'lait de coco'
p14
aa(lp15
S'1.0'
p16
aS'cl de'
p17
aS'liqueur mandarine napol\xc3\xa9on'
p18
aa(lp19
S'1.0'
p20
aS'cl de'
p21
aS"jus d'ananas"
p22
aaa.