(lp0
S'Spanish temptation'
p1
aF2.7
aI6
a(lp2
(lp3
S'3.0'
p4
aS'cl de'
p5
aS'cr\xc3\xa8me fra\xc3\xaeche liquide'
p6
aa(lp7
S'2.0'
p8
aS'cl de'
p9
aS'sirop de vanille'
p10
aa(lp11
S'5.0'
p12
aS'cl de'
p13
aS'licor 43'
p14
aa(lp15
S'1.0'
p16
aS'cl de'
p17
aS'kirsch'
p18
aa(lp19
S'5.0'
p20
aS'cl de'
p21
aS"jus d'oranges"
p22
aa(lp23
S'7.0'
p24
aS'cl de'
p25
aS'jus de fruit de la passion (maracuja)'
p26
aaa.