(lp0
S'Michelada'
p1
aF3.0
aI3
a(lp2
(lp3
S'1.0'
p4
aS'None'
p5
aS'citrons vert'
p6
aa(lp7
S'3.0'
p8
aS'gouttes de'
p9
aS'tabasco'
p10
aa(lp11
S'1.0'
p12
aS'cl de'
p13
aS'sauce worcestershire'
p14
aa(lp15
S'25.0'
p16
aS'cl de'
p17
aS'bi\xc3\xa8re'
p18
aa(lp19
S'None'
p20
aS'None'
p21
aS'sel'
p22
aa(lp23
S'None'
p24
aS'None'
p25
aS'piment de cayenne'
p26
aaa.