(lp0
S'Mojita'
p1
aF2.8
aI175
a(lp2
(lp3
S'4.0'
p4
aS'cl de'
p5
aS'rhum blanc'
p6
aa(lp7
S'1.0'
p8
aS'cl de'
p9
aS'sirop de sucre de canne'
p10
aa(lp11
S'0.5'
p12
aS'cl de'
p13
aS'angostura bitters'
p14
aa(lp15
S'2.0'
p16
aS'None'
p17
aS'citrons verts'
p18
aa(lp19
S'None'
p20
aS'None'
p21
aS'eau gazeuse (perrier, salvetat)'
p22
aaa.