(lp0
S'Lola'
p1
aF1.0
aI1
a(lp2
(lp3
S'6.0'
p4
aS'cl de'
p5
aS'cr\xc3\xa8me de fruit de la passion'
p6
aa(lp7
S'2.0'
p8
aS'cl de'
p9
aS'sirop de sucre de canne'
p10
aa(lp11
S'5.0'
p12
aS'grammes de'
p13
aS'fraises'
p14
aa(lp15
S'5.0'
p16
aS'grammes de'
p17
aS'citrons verts'
p18
aa(lp19
S'4.0'
p20
aS'cl de'
p21
aS'eau gazeuse (perrier, salvetat)'
p22
aaa.