(lp0
S'Boisson isotonique'
p1
aF3.0
aI1
a(lp2
(lp3
S'50.0'
p4
aS'cl de'
p5
aS'jus de raisins'
p6
aa(lp7
S'50.0'
p8
aS"cl d'"
p9
aS'eau'
p10
aa(lp11
S'0.25'
p12
aS"d'une cuill\xc3\xa8re \xc3\xa0 caf\xc3\xa9 de"
p13
aS'sel'
p14
aaa.