(lp0
S'Embuscade'
p1
aF3.6
aI277
a(lp2
(lp3
S'6.0'
p4
aS'cl de'
p5
aS'vin blanc'
p6
aa(lp7
S'2.0'
p8
aS'cl de'
p9
aS'calvados'
p10
aa(lp11
S'1.0'
p12
aS'cl de'
p13
aS'sirop de cassis'
p14
aa(lp15
S'0.5'
p16
aS'cl de'
p17
aS'sirop de citrons'
p18
aa(lp19
S'None'
p20
aS'None'
p21
aS'bi\xc3\xa8re'
p22
aaa.