(lp0
S'1,2,3 sunlight!'
p1
aF3.7
aI21
a(lp2
(lp3
S'4.0'
p4
aS'cl de'
p5
aS'vodka'
p6
aa(lp7
S'3.0'
p8
aS'cl de'
p9
aS'cr\xc3\xa8me de fruit de la passion'
p10
aa(lp11
S'0.5'
p12
aS'cl de'
p13
aS'citrons verts'
p14
aa(lp15
S'0.5'
p16
aS'cl de'
p17
aS'sirop de sucre de canne'
p18
aa(lp19
S'0.5'
p20
aS'cl de'
p21
aS'sirop de grenadine'
p22
aa(lp23
S'10.0'
p24
aS'cl de'
p25
aS"jus d'oranges"
p26
aaa.