(lp0
S'Mississipi'
p1
aF3.6
aI5
a(lp2
(lp3
S'0.5'
p4
aS'cl de'
p5
aS'cr\xc3\xa8me de cassis'
p6
aa(lp7
S'5.5'
p8
aS'cl de'
p9
aS'whisky (bourbon, whiskey)'
p10
aa(lp11
S'1.0'
p12
aS'cl de'
p13
aS'liqueur de p\xc3\xaaches'
p14
aaa.