(lp0
S'Rhum Banane Citron'
p1
aF3.0
aI23
a(lp2
(lp3
S'5.0'
p4
aS'None'
p5
aS'bananes'
p6
aa(lp7
S'1.0'
p8
aS'None'
p9
aS'citron'
p10
aa(lp11
S'100.0'
p12
aS'grammes de'
p13
aS'sirop de miel'
p14
aa(lp15
S'4.0'
p16
aS'cuill\xc3\xa8res \xc3\xa0 soupe de'
p17
aS'sirop de sucre de canne'
p18
aa(lp19
S'70.0'
p20
aS'cl de'
p21
aS'rhum blanc'
p22
aaa.