(lp0
S'Basic martini'
p1
aF3.1
aI37
a(lp2
(lp3
S'2.0'
p4
aS'cl de'
p5
aS'vermouth blanc (martini, cinzano)'
p6
aa(lp7
S'5.0'
p8
aS'cl de'
p9
aS'vodka'
p10
aa(lp11
S'1.0'
p12
aS'zeste de'
p13
aS'citrons'
p14
aaa.