(lp0
S'Caf\xc3\xa9 \xc3\xa0 la vald\xc3\xb4taine'
p1
aF3.2
aI6
a(lp2
(lp3
S'1.0'
p4
aS'tasses de'
p5
aS'caf\xc3\xa9 chaud'
p6
aa(lp7
S'1.0'
p8
aS'petits verres de'
p9
aS'marc italien (grappa)'
p10
aa(lp11
S'0.25'
p12
aS'petit verre de'
p13
aS'g\xc3\xa9n\xc3\xa9pi'
p14
aa(lp15
S'2.25'
p16
aS'cuill\xc3\xa8res \xc3\xa0 caf\xc3\xa9 de'
p17
aS'sucre'
p18
aa(lp19
S'None'
p20
aS"quelques zestes d'"
p21
aS'oranges'
p22
aa(lp23
S'1.0'
p24
aS'None'
p25
aS'clous de girofle'
p26
aaa.