(lp0
S'Cr\xc3\xa8me de Framboise'
p1
aF2.6
aI21
a(lp2
(lp3
S'1.0'
p4
aS'kilo de'
p5
aS'framboises'
p6
aa(lp7
S'1.0'
p8
aS"litre d'"
p9
aS'alcool \xc3\xa0 90\xc2\xb0'
p10
aa(lp11
S'750.0'
p12
aS'grammes de'
p13
aS'sucre'
p14
aa(lp15
S'0.5'
p16
aS"litre d'"
p17
aS'eau'
p18
aaa.