(lp0
S'13 tones Bell!'
p1
aF3.8
aI6
a(lp2
(lp3
S'1.0'
p4
aS'trait de'
p5
aS'rhum cubain'
p6
aa(lp7
S'2.0'
p8
aS'cl de'
p9
aS'liqueur mandarine napol\xc3\xa9on'
p10
aa(lp11
S'2.0'
p12
aS'cl de'
p13
aS'frangelico'
p14
aa(lp15
S'2.0'
p16
aS'trait de'
p17
aS'butter scotch'
p18
aa(lp19
S'10.0'
p20
aS'cl de'
p21
aS'cr\xc3\xa8me fra\xc3\xaeche liquide'
p22
aa(lp23
S'4.0'
p24
aS'cl de'
p25
aS'sirop de sucre de canne'
p26
aa(lp27
S'5.0'
p28
aS'cl de'
p29
aS'fruit de la passion (maracuja)'
p30
aaa.