(lp0
S'Caramelito'
p1
aF4.3
aI6
a(lp2
(lp3
S'4.0'
p4
aS'cl de'
p5
aS'tequila'
p6
aa(lp7
S'2.0'
p8
aS'cl de'
p9
aS'sirop de vanille'
p10
aa(lp11
S'1.0'
p12
aS'cl de'
p13
aS'sirop de caramel'
p14
aa(lp15
S'10.0'
p16
aS'cl de'
p17
aS'lait'
p18
aaa.