(lp0
S'Cuba libre'
p1
aF4.5
aI912
a(lp2
(lp3
S'6.0'
p4
aS'cl de'
p5
aS'rhum cubain'
p6
aa(lp7
S'4.0'
p8
aS'cl de'
p9
aS'jus de citrons verts'
p10
aa(lp11
S'15.0'
p12
aS'cl de'
p13
aS'cola (coca cola, pepsi)'
p14
aaa.