(lp0
S'Laura'
p1
aF2.6
aI8
a(lp2
(lp3
S'2.0'
p4
aS'cl de'
p5
aS'vodka'
p6
aa(lp7
S'2.0'
p8
aS'cl de'
p9
aS"jus d'ananas"
p10
aa(lp11
S'2.0'
p12
aS'cl de'
p13
aS'jus de mangues'
p14
aa(lp15
S'1.0'
p16
aS'cl de'
p17
aS'lait de coco'
p18
aa(lp19
S'1.0'
p20
aS'trait de'
p21
aS'cura\xc3\xa7ao bleu'
p22
aaa.