(lp0
S'D\xc3\xa9lice de nectarine'
p1
aF2.9
aI7
a(lp2
(lp3
S'30.0'
p4
aS'cl de'
p5
aS'jus de pommes'
p6
aa(lp7
S'1.0'
p8
aS'zeste de'
p9
aS'jus de citrons'
p10
aa(lp11
S'1.0'
p12
aS'cuill\xc3\xa8re de'
p13
aS'sirop de miel'
p14
aaa.