(lp0
S'Eva'
p1
aF4.1
aI8
a(lp2
(lp3
S'None'
p4
aS'None'
p5
aS'tonic (schweppes)'
p6
aa(lp7
S'2.0'
p8
aS'cl de'
p9
aS'gin'
p10
aa(lp11
S'2.0'
p12
aS'cl de'
p13
aS'triple sec (cointreau, grand marnier)'
p14
aa(lp15
S'1.0'
p16
aS'cl de'
p17
aS'jus de citrons'
p18
aa(lp19
S'0.5'
p20
aS'cl de'
p21
aS'liqueur de menthe verte (get 27)'
p22
aaa.