(lp0
S'Honeymoon'
p1
aF4.0
aI75
a(lp2
(lp3
S'3.0'
p4
aS'cl de'
p5
aS"jus d'oranges"
p6
aa(lp7
S'3.0'
p8
aS'cl de'
p9
aS'jus de pommes'
p10
aa(lp11
S'3.0'
p12
aS'cl de'
p13
aS"sirop d'\xc3\xa9rable"
p14
aa(lp15
S'2.0'
p16
aS'cl de'
p17
aS'jus de citrons verts'
p18
aaa.