(lp0
S'CuPiDoN'
p1
aF4.7
aI7
a(lp2
(lp3
S'5.0'
p4
aS'cl de'
p5
aS'vodka'
p6
aa(lp7
S'2.0'
p8
aS'cl de'
p9
aS'vodka rouge (eristoff)'
p10
aa(lp11
S'2.0'
p12
aS'cl de'
p13
aS'safari'
p14
aa(lp15
S'2.0'
p16
aS'cl de'
p17
aS'pamplemousses'
p18
aa(lp19
S'5.0'
p20
aS'cl de'
p21
aS'jus de fruit de la passion (maracuja)'
p22
aa(lp23
S'5.0'
p24
aS'cl de'
p25
aS'nectar de p\xc3\xaaches'
p26
aaa.