(lp0
S'Colgate'
p1
aF3.0
aI2
a(lp2
(lp3
S'6.0'
p4
aS'cl de'
p5
aS'liqueur de menthe blanche (get 31)'
p6
aa(lp7
S'4.0'
p8
aS'cl de'
p9
aS'vodka'
p10
aa(lp11
S'2.0'
p12
aS'cl de'
p13
aS'tequila'
p14
aa(lp15
S'2.0'
p16
aS'cl de'
p17
aS'cura\xc3\xa7ao bleu'
p18
aaa.