(lp0
S'Liqueur de millepertuis'
p1
aF4.3
aI4
a(lp2
(lp3
S'1.5'
p4
aS'grammes de'
p5
aS'fleurs de millepertuis'
p6
aa(lp7
S'0.1'
p8
aS"litre d'"
p9
aS'eau-de-vie \xc3\xa0 40\xc2\xb0'
p10
aa(lp11
S'0.1'
p12
aS'None'
p13
aS'citron'
p14
aa(lp15
S'5.0'
p16
aS"cl d'"
p17
aS'eau'
p18
aa(lp19
S'60.0'
p20
aS'grammes de'
p21
aS'sucre'
p22
aaa.