(lp0
S'Purplish'
p1
aF3.0
aI1
a(lp2
(lp3
S'8.0'
p4
aS'cl de'
p5
aS'jus de fraises'
p6
aa(lp7
S'4.0'
p8
aS'cl de'
p9
aS'melocot\xc3\xb3n'
p10
aa(lp11
S'4.0'
p12
aS'cl de'
p13
aS'cura\xc3\xa7ao bleu'
p14
aaa.