(lp0
S'Th\xc3\xa9 \xc3\xa0 la Verveine'
p1
aF4.8
aI4
a(lp2
(lp3
S'1.0'
p4
aS'sachet de'
p5
aS'verveine'
p6
aa(lp7
S'2.0'
p8
aS'cuill\xc3\xa8res \xc3\xa0 caf\xc3\xa9 de'
p9
aS'th\xc3\xa9'
p10
aa(lp11
S'4.0'
p12
aS'rondelles de'
p13
aS'citrons'
p14
aaa.