(lp0
S'Sea Breeze'
p1
aF2.9
aI23
a(lp2
(lp3
S'7.0'
p4
aS'cl de'
p5
aS'jus de cranberry (canneberges)'
p6
aa(lp7
S'4.0'
p8
aS'cl de'
p9
aS'jus de pamplemousses'
p10
aa(lp11
S'4.0'
p12
aS'cl de'
p13
aS'vodka'
p14
aaa.