(lp0
S'Fruit Da\xc3\xafquiri'
p1
aF3.4
aI18
a(lp2
(lp3
S'1.5'
p4
aS'cl de'
p5
aS'jus de citrons verts'
p6
aa(lp7
S'1.0'
p8
aS'cl de'
p9
aS'sucre'
p10
aa(lp11
S'0.5'
p12
aS'cl de'
p13
aS'triple sec (cointreau, grand marnier)'
p14
aa(lp15
S'6.0'
p16
aS'cl de'
p17
aS'rhum blanc'
p18
aa(lp19
S'0.25'
p20
aS"d'une"
p21
aS'mangues'
p22
aa(lp23
S'1.0'
p24
aS'tranche de'
p25
aS'melons'
p26
aaa.