(lp0
S'My pinky valentine'
p1
aF2.9
aI13
a(lp2
(lp3
S'3.0'
p4
aS'cl de'
p5
aS'vodka'
p6
aa(lp7
S'1.5'
p8
aS'cl de'
p9
aS'liqueur de lychees (soho, litchao)'
p10
aa(lp11
S'6.0'
p12
aS'cl de'
p13
aS'jus de cranberry (canneberges)'
p14
aaa.