(lp0
S'Daiquiri aux fraises'
p1
aF3.5
aI227
a(lp2
(lp3
S'2.0'
p4
aS'cl de'
p5
aS'liqueur de fraises'
p6
aa(lp7
S'5.0'
p8
aS'cl de'
p9
aS'rhum blanc'
p10
aa(lp11
S'3.0'
p12
aS'cl de'
p13
aS'jus de citrons'
p14
aa(lp15
S'0.5'
p16
aS'cl de'
p17
aS'sucre'
p18
aa(lp19
S'0.5'
p20
aS'tasse de'
p21
aS'fraises'
p22
aaa.