(lp0
S'Gnondpom'
p1
aF3.5
aI98
a(lp2
(lp3
S'2.0'
p4
aS'cl de'
p5
aS'liqueur de pommes (manzana, manzanita)'
p6
aa(lp7
S'0.5'
p8
aS'cl de'
p9
aS'cura\xc3\xa7ao bleu'
p10
aa(lp11
S'1.0'
p12
aS'cl de'
p13
aS'citrons verts'
p14
aa(lp15
S'4.0'
p16
aS'cl de'
p17
aS'jus de pommes'
p18
aaa.