(lp0
S'Froideur Slovaque'
p1
aF4.0
aI10
a(lp2
(lp3
S'4.0'
p4
aS'cl de'
p5
aS'vodka'
p6
aa(lp7
S'2.0'
p8
aS'cl de'
p9
aS'liqueur de menthe blanche (get 31)'
p10
aa(lp11
S'1.0'
p12
aS'cl de'
p13
aS'sirop de menthe'
p14
aaa.