(lp0
S'Bleu-Argent'
p1
aF3.3
aI6
a(lp2
(lp3
S'2.0'
p4
aS'cl de'
p5
aS'gin'
p6
aa(lp7
S'2.0'
p8
aS'cl de'
p9
aS'cura\xc3\xa7ao bleu'
p10
aa(lp11
S'2.0'
p12
aS'cl de'
p13
aS'passoa'
p14
aa(lp15
S'2.0'
p16
aS'cl de'
p17
aS'jus de pommes'
p18
aa(lp19
S'1.0'
p20
aS'cuill\xc3\xa8re de'
p21
aS'sucre'
p22
aa(lp23
S'None'
p24
aS'trait de'
p25
aS'sirop de grenadine'
p26
aaa.