(lp0
S'Barbarie'
p1
aF3.1
aI56
a(lp2
(lp3
S'2.0'
p4
aS'cl de'
p5
aS'spiritueux anis\xc3\xa9 (pastis, ricard, pernod)'
p6
aa(lp7
S'5.0'
p8
aS"cl d'"
p9
aS'eau'
p10
aa(lp11
S'1.0'
p12
aS'cl de'
p13
aS'cura\xc3\xa7ao bleu'
p14
aaa.