(lp0
S'Conditum paradoxum'
p1
aF3.5
aI4
a(lp2
(lp3
S'2.0'
p4
aS'litres de'
p5
aS'vin rouge'
p6
aa(lp7
S'4.0'
p8
aS'cuill\xc3\xa8res a soupe de'
p9
aS'miel'
p10
aa(lp11
S'2.0'
p12
aS'gramme de'
p13
aS'poivre'
p14
aa(lp15
S'6.0'
p16
aS'feuilles de'
p17
aS'nard'
p18
aa(lp19
S'2.0'
p20
aS'grammes de'
p21
aS'safran'
p22
aa(lp23
S'3.0'
p24
aS'None'
p25
aS'dattes'
p26
aa(lp27
S'2.0'
p28
aS'cristaux de'
p29
aS'r\xc3\xa9sine mastic'
p30
aaa.