(lp0
S'Cura\xc3\xa7ao Bleu'
p1
aF3.1
aI154
a(lp2
(lp3
S'25.0'
p4
aS"grammes d'\xc3\xa9corces d'"
p5
aS'oranges'
p6
aa(lp7
S'4.0'
p8
aS"grammes de peaux d'"
p9
aS'oranges am\xc3\xa8res'
p10
aa(lp11
S'0.3'
p12
aS"litres d'"
p13
aS'alcool de fruits'
p14
aa(lp15
S'0.25'
p16
aS'kilos de'
p17
aS'sucre'
p18
aa(lp19
S'0.13'
p20
aS"litres d'"
p21
aS'eau'
p22
aa(lp23
S'None'
p24
aS'None'
p25
aS'colorant alimentaire'
p26
aaa.