(lp0
S'Punch'
p1
aF3.0
aI2246
a(lp2
(lp3
S'100.0'
p4
aS'cl de'
p5
aS'rhum blanc'
p6
aa(lp7
S'50.0'
p8
aS'cl de'
p9
aS'sirop de sucre de canne'
p10
aa(lp11
S'100.0'
p12
aS'cl de'
p13
aS"jus d'oranges"
p14
aa(lp15
S'100.0'
p16
aS'cl de'
p17
aS"jus d'ananas"
p18
aa(lp19
S'100.0'
p20
aS'cl de'
p21
aS'jus de pamplemousses'
p22
aa(lp23
S'1.0'
p24
aS'b\xc3\xa2ton de'
p25
aS'cannelle'
p26
aa(lp27
S'3.0'
p28
aS'sachets de'
p29
aS'th\xc3\xa9'
p30
aaa.