(lp0
S'Amour'
p1
aF2.8
aI224
a(lp2
(lp3
S'3.0'
p4
aS'cl de'
p5
aS'jus de citrons'
p6
aa(lp7
S'6.0'
p8
aS'cl de'
p9
aS'rhum blanc'
p10
aa(lp11
S'1.0'
p12
aS'cuill\xc3\xa8re de'
p13
aS'sirop de miel'
p14
aaa.