(lp0
S'Hurricane'
p1
aF3.3
aI48
a(lp2
(lp3
S'3.0'
p4
aS'cl de'
p5
aS'rhum ambr\xc3\xa9'
p6
aa(lp7
S'3.0'
p8
aS'cl de'
p9
aS'rhum blanc'
p10
aa(lp11
S'1.5'
p12
aS'cl de'
p13
aS'jus de citrons verts'
p14
aa(lp15
S'1.0'
p16
aS'cl de'
p17
aS'jus de fruit de la passion (maracuja)'
p18
aaa.