(lp0
S'Grapefruit lemonade'
p1
aF3.4
aI19
a(lp2
(lp3
S'None'
p4
aS'None'
p5
aS'limonade (soda, sprite, 7up)'
p6
aa(lp7
S'6.0'
p8
aS'cl de'
p9
aS'jus de pamplemousses'
p10
aa(lp11
S'2.0'
p12
aS'cl de'
p13
aS'sirop de grenadine'
p14
aaa.