(lp0
S'Wapplesky'
p1
aF2.0
aI3
a(lp2
(lp3
S'5.0'
p4
aS'cl de'
p5
aS'whisky (bourbon, whiskey)'
p6
aa(lp7
S'2.5'
p8
aS'cl de'
p9
aS'jus de pommes'
p10
aa(lp11
S'1.5'
p12
aS'cl de'
p13
aS'sirop de miel'
p14
aa(lp15
S'2.0'
p16
aS"traits d'"
p17
aS'angostura orange bitters'
p18
aaa.