(lp0
S'Butterfly'
p1
aF3.3
aI3
a(lp2
(lp3
S'0.5'
p4
aS'cl de'
p5
aS'cura\xc3\xa7ao bleu'
p6
aa(lp7
S'1.5'
p8
aS'cl de'
p9
aS'eau-de-vie de poires williams'
p10
aa(lp11
S'2.0'
p12
aS'cl de'
p13
aS'vermouth dry (martini, noilly prat)'
p14
aa(lp15
S'3.0'
p16
aS'cl de'
p17
aS'gin'
p18
aaa.