(lp0
S'Elisa'
p1
aF3.8
aI4
a(lp2
(lp3
S'0.5'
p4
aS'volumes de'
p5
aS'rhum ambr\xc3\xa9'
p6
aa(lp7
S'0.125'
p8
aS'volumes de'
p9
aS'amaretto'
p10
aa(lp11
S'0.125'
p12
aS'volumes de'
p13
aS"liqueur d'abricots (abricot brandy)"
p14
aa(lp15
S'0.125'
p16
aS'volumes de'
p17
aS'vermouth blanc (martini, cinzano)'
p18
aa(lp19
S'0.125'
p20
aS'volumes de'
p21
aS'aspi spumante'
p22
aa(lp23
S'1.0'
p24
aS"zeste d'"
p25
aS'oranges'
p26
aaa.