(lp0
S'Carcad\xc3\xa9'
p1
aF3.0
aI5
a(lp2
(lp3
S'0.666666666667'
p4
aS'cuill\xc3\xa8res \xc3\xa0 caf\xc3\xa9 de'
p5
aS"fleurs d'hibiscus"
p6
aa(lp7
S'0.0666666666667'
p8
aS"litre d'"
p9
aS'eau'
p10
aa(lp11
S'None'
p12
aS'None'
p13
aS'sucre'
p14
aaa.