(lp0
S'Blackberry Caipirinha'
p1
aF3.0
aI24
a(lp2
(lp3
S'3.0'
p4
aS'cl de'
p5
aS'cr\xc3\xa8me de m\xc3\xbbre'
p6
aa(lp7
S'2.0'
p8
aS'cl de'
p9
aS'sirop de sucre de canne'
p10
aa(lp11
S'6.0'
p12
aS'cl de'
p13
aS'cacha\xc3\xa7a'
p14
aa(lp15
S'2.0'
p16
aS'quartiers de'
p17
aS'citrons verts'
p18
aaa.