(lp0
S'Coconut Tequila'
p1
aF3.4
aI5
a(lp2
(lp3
S'4.0'
p4
aS'cl de'
p5
aS'tequila'
p6
aa(lp7
S'2.0'
p8
aS'cl de'
p9
aS'jus de citrons'
p10
aa(lp11
S'2.0'
p12
aS'cl de'
p13
aS'lait de coco'
p14
aa(lp15
S'3.0'
p16
aS'traits de'
p17
aS'sirop de maraschino'
p18
aaa.