(lp0
S'Bison rouge'
p1
aF3.2
aI6
a(lp2
(lp3
S'0.5'
p4
aS'cl de'
p5
aS'jus de citrons'
p6
aa(lp7
S'6.0'
p8
aS'cl de'
p9
aS"jus d'oranges sanguines"
p10
aa(lp11
S'4.0'
p12
aS'cl de'
p13
aS'vodka'
p14
aa(lp15
S'0.5'
p16
aS'cl de'
p17
aS'sirop de fruits des bois'
p18
aaa.