(lp0
S'Apricot'
p1
aF3.3
aI11
a(lp2
(lp3
S'0.5'
p4
aS'cl de'
p5
aS"sirop d'abricot"
p6
aa(lp7
S'2.0'
p8
aS'cl de'
p9
aS'gin'
p10
aa(lp11
S'2.0'
p12
aS'cl de'
p13
aS"liqueur d'abricots (abricot brandy)"
p14
aa(lp15
S'1.5'
p16
aS'cl de'
p17
aS'vermouth rose (martini, cinzano)'
p18
aa(lp19
S'1.5'
p20
aS'cl de'
p21
aS'vermouth dry (martini, noilly prat)'
p22
aaa.