(lp0
S'Rasberry punch'
p1
aF3.5
aI2
a(lp2
(lp3
S'75.0'
p4
aS'cl de'
p5
aS'rhum blanc'
p6
aa(lp7
S'250.0'
p8
aS'g de'
p9
aS'sucre roux (cassonade)'
p10
aa(lp11
S'250.0'
p12
aS'g de'
p13
aS'framboises'
p14
aaa.