(lp0
S'Vin blanc chaud'
p1
aF2.9
aI14
a(lp2
(lp3
S'5.0'
p4
aS'cl de'
p5
aS'vin blanc'
p6
aa(lp7
S'1.0'
p8
aS"cl d'"
p9
aS'eau'
p10
aa(lp11
S'0.25'
p12
aS"cl d'"
p13
aS"jus d'oranges"
p14
aa(lp15
S'0.5'
p16
aS'morceaux de'
p17
aS'sucre'
p18
aa(lp19
S'0.1'
p20
aS'b\xc3\xa2ton de'
p21
aS'cannelle'
p22
aa(lp23
S'0.2'
p24
aS'None'
p25
aS'\xc3\xa9toiles de badiane'
p26
aa(lp27
S'0.3'
p28
aS'capsules de'
p29
aS'cardamome verte'
p30
aa(lp31
S'0.1'
p32
aS'petit morceau de'
p33
aS'gingembre'
p34
aa(lp35
S'0.2'
p36
aS'cuill\xc3\xa8res \xc3\xa0 soupe de'
p37
aS'sirop de miel'
p38
aaa.