(lp0
S'Apple rose'
p1
aF4.0
aI45
a(lp2
(lp3
S'2.0'
p4
aS'cl de'
p5
aS'sirop de framboises'
p6
aa(lp7
S'6.0'
p8
aS'cl de'
p9
aS'bitter lemon'
p10
aa(lp11
S'6.0'
p12
aS'cl de'
p13
aS'jus de pommes'
p14
aaa.