(lp0
S"Mon p'tit"
p1
aF3.5
aI2
a(lp2
(lp3
S'0.5'
p4
aS'cl de'
p5
aS'liqueur mandarine napol\xc3\xa9on'
p6
aa(lp7
S'1.5'
p8
aS'cl de'
p9
aS'vodka'
p10
aa(lp11
S'1.5'
p12
aS'cl de'
p13
aS"liqueur d'abricots (abricot brandy)"
p14
aa(lp15
S'0.5'
p16
aS'cl de'
p17
aS'angostura bitters'
p18
aa(lp19
S'3.0'
p20
aS'cl de'
p21
aS"jus d'ananas"
p22
aaa.