(lp0
S'Absinthe Cocktail'
p1
aF4.4
aI39
a(lp2
(lp3
S'5.0'
p4
aS'cl de'
p5
aS'spiritueux anis\xc3\xa9 (pastis, ricard, pernod)'
p6
aa(lp7
S'2.0'
p8
aS'cl de'
p9
aS"jus d'oranges"
p10
aa(lp11
S'1.0'
p12
aS'cl de'
p13
aS'angostura bitters'
p14
aaa.