(lp0
S'Red Sombrero'
p1
aF3.8
aI42
a(lp2
(lp3
S'4.0'
p4
aS'cl de'
p5
aS"jus d'ananas"
p6
aa(lp7
S'4.0'
p8
aS'cl de'
p9
aS"jus d'oranges"
p10
aa(lp11
S'4.0'
p12
aS'cl de'
p13
aS'jus de citrons'
p14
aa(lp15
S'4.0'
p16
aS'cl de'
p17
aS'sirop de grenadine'
p18
aa(lp19
S'None'
p20
aS'None'
p21
aS'ginger ale (canada dry)'
p22
aaa.