(lp0
S'Fragola'
p1
aF2.3
aI3
a(lp2
(lp3
S'2.0'
p4
aS'cl de'
p5
aS'liqueur de fraises'
p6
aa(lp7
S'6.0'
p8
aS'cl de'
p9
aS"jus d'ananas"
p10
aa(lp11
S'8.0'
p12
aS'cl de'
p13
aS'lait'
p14
aa(lp15
S'1.5'
p16
aS'cl de'
p17
aS'sirop de vanille'
p18
aaa.