(lp0
S'Cherry ale'
p1
aF4.0
aI23
a(lp2
(lp3
S'6.0'
p4
aS'cl de'
p5
aS'jus de cerises'
p6
aa(lp7
S'1.0'
p8
aS'cl de'
p9
aS'lime cordial'
p10
aa(lp11
S'None'
p12
aS'None'
p13
aS'ginger ale (canada dry)'
p14
aaa.