(lp0
S'Le soleil Martiniquais'
p1
aF3.3
aI6
a(lp2
(lp3
S'1.0'
p4
aS'cl de'
p5
aS'sirop de sucre de canne'
p6
aa(lp7
S'0.5'
p8
aS'cl de'
p9
aS'citrons verts'
p10
aa(lp11
S'3.0'
p12
aS'cl de'
p13
aS"jus d'oranges"
p14
aa(lp15
S'3.0'
p16
aS'cl de'
p17
aS"jus d'ananas"
p18
aa(lp19
S'3.0'
p20
aS'cl de'
p21
aS'jus de fruit de la passion (maracuja)'
p22
aa(lp23
S'1.0'
p24
aS'cl de'
p25
aS'liqueur de coco (cocogif, malibu)'
p26
aa(lp27
S'2.0'
p28
aS'cl de'
p29
aS'gin'
p30
aa(lp31
S'4.0'
p32
aS'cl de'
p33
aS'rhum blanc'
p34
aa(lp35
S'1.0'
p36
aS'cl de'
p37
aS'sirop de grenadine'
p38
aaa.