(lp0
S'20th century'
p1
aF3.7
aI3
a(lp2
(lp3
S'4.5'
p4
aS'cl de'
p5
aS'gin'
p6
aa(lp7
S'2.0'
p8
aS'cl de'
p9
aS'lillet blanc'
p10
aa(lp11
S'2.0'
p12
aS'cl de'
p13
aS'liqueur de cacao brun'
p14
aa(lp15
S'2.0'
p16
aS'cl de'
p17
aS'jus de citrons'
p18
aaa.