(lp0
S'Bonbon'
p1
aF3.1
aI37
a(lp2
(lp3
S'1.5'
p4
aS'cl de'
p5
aS'cr\xc3\x83\xc2\xa8me fra\xc3\x83\xc2\xaeche liquide'
p6
aa(lp7
S'0.5'
p8
aS'cl de'
p9
aS"liqueur d'abricots (abricot brandy)"
p10
aa(lp11
S'1.5'
p12
aS'cl de'
p13
aS'liqueur de p\xc3\x83\xc2\xaaches'
p14
aa(lp15
S'1.5'
p16
aS'cl de'
p17
aS'liqueur de caf\xc3\x83\xc2\xa9 (kahlua, marie brizard)'
p18
aa(lp19
S'2.0'
p20
aS'cl de'
p21
aS'b\xc3\x83\xc2\xa9n\xc3\x83\xc2\xa9dictine'
p22
aaa.