(lp0
S'Grapefruit bitter'
p1
aF3.8
aI5
a(lp2
(lp3
S'0.05'
p4
aS'None'
p5
aS'pamplemousse'
p6
aa(lp7
S'5.0'
p8
aS'grammes de'
p9
aS'sucre roux (cassonade)'
p10
aa(lp11
S'0.5'
p12
aS"cl d'"
p13
aS'eau'
p14
aa(lp15
S'1.0'
p16
aS'cl de'
p17
aS'campari'
p18
aa(lp19
S'1.25'
p20
aS'cl de'
p21
aS'vodka'
p22
aa(lp23
S'0.75'
p24
aS'cl de'
p25
aS'vermouth rouge (martini, cinzano)'
p26
aaa.