(lp0
S'Take-off'
p1
aF3.4
aI5
a(lp2
(lp3
S'1.5'
p4
aS'cl de'
p5
aS'cr\xc3\xa8me fra\xc3\xaeche liquide'
p6
aa(lp7
S'2.0'
p8
aS'cl de'
p9
aS'vodka'
p10
aa(lp11
S'2.0'
p12
aS'cl de'
p13
aS'liqueur de bananes (pisang ambon)'
p14
aa(lp15
S'1.5'
p16
aS'cl de'
p17
aS'liqueur de cacao brun'
p18
aaa.