(lp0
S'Death Beauty'
p1
aF3.4
aI34
a(lp2
(lp3
S'4.0'
p4
aS'cl de'
p5
aS'jus de pommes'
p6
aa(lp7
S'1.0'
p8
aS'cl de'
p9
aS'sirop de bubble gum'
p10
aa(lp11
S'1.0'
p12
aS'cl de'
p13
aS'sirop de fraises'
p14
aa(lp15
S'1.0'
p16
aS'goutte de'
p17
aS'sauce picante'
p18
aaa.