(lp0
S'Il trionfo del Tempo'
p1
aF4.3
aI3
a(lp2
(lp3
S'3.0'
p4
aS'cl de'
p5
aS'vodka'
p6
aa(lp7
S'3.0'
p8
aS'cl de'
p9
aS'liqueur de pommes (manzana, manzanita)'
p10
aa(lp11
S'2.5'
p12
aS'cl de'
p13
aS'liqueur de framboises'
p14
aa(lp15
S'8.0'
p16
aS'cl de'
p17
aS'jus de bananes'
p18
aa(lp19
S'4.0'
p20
aS'cl de'
p21
aS'jus de pommes'
p22
aa(lp23
S'1.0'
p24
aS'cl de'
p25
aS'jus de citrons'
p26
aaa.