(lp0
S'Kiwizz'
p1
aF3.3
aI131
a(lp2
(lp3
S'2.0'
p4
aS'cl de'
p5
aS'sirop de kiwi'
p6
aa(lp7
S'2.0'
p8
aS'cl de'
p9
aS'gin'
p10
aa(lp11
S'1.5'
p12
aS'cl de'
p13
aS'jus de citrons'
p14
aa(lp15
S'6.0'
p16
aS'cl de'
p17
aS'eau gazeuse (perrier, salvetat)'
p18
aaa.