(lp0
S'Liqueur de bourrache'
p1
aF3.0
aI1
a(lp2
(lp3
S'60.0'
p4
aS'grammes de'
p5
aS'fleurs de bourrache'
p6
aa(lp7
S'75.0'
p8
aS'cl de'
p9
aS'gin'
p10
aa(lp11
S'40.0'
p12
aS'cl de'
p13
aS'sirop de sucre de canne'
p14
aa(lp15
S'1.0'
p16
aS'None'
p17
aS'mandarine'
p18
aaa.