(lp0
S'Nicolas'
p1
aF3.0
aI5
a(lp2
(lp3
S'None'
p4
aS'None'
p5
aS'champagne'
p6
aa(lp7
S'2.5'
p8
aS'cl de'
p9
aS'vodka'
p10
aa(lp11
S'1.0'
p12
aS'cl de'
p13
aS'liqueur de bananes (pisang ambon)'
p14
aa(lp15
S'1.0'
p16
aS'cl de'
p17
aS'eau-de-vie de poires williams'
p18
aa(lp19
S'1.0'
p20
aS'None'
p21
aS'poire'
p22
aaa.