(lp0
S'Makseb'
p1
aF4.8
aI5
a(lp2
(lp3
S'3.0'
p4
aS'cl de'
p5
aS'triple sec (cointreau, grand marnier)'
p6
aa(lp7
S'3.0'
p8
aS'cl de'
p9
aS'vodka'
p10
aa(lp11
S'3.0'
p12
aS'cl de'
p13
aS'gin'
p14
aa(lp15
S'3.0'
p16
aS'cl de'
p17
aS'cr\xc3\xa8me de fruit de la passion'
p18
aa(lp19
S'8.0'
p20
aS'cl de'
p21
aS"jus d'oranges"
p22
aa(lp23
S'1.0'
p24
aS'cuill\xc3\xa8re de'
p25
aS'sucre'
p26
aa(lp27
S'1.0'
p28
aS'trait de'
p29
aS'citrons'
p30
aaa.