(lp0
S'Down Home Punch'
p1
aF2.5
aI2
a(lp2
(lp3
S'2.0'
p4
aS'cl de'
p5
aS'whisky (bourbon, whiskey)'
p6
aa(lp7
S'2.0'
p8
aS'cl de'
p9
aS'liqueur de p\xc3\xaaches'
p10
aa(lp11
S'2.0'
p12
aS'cl de'
p13
aS'lime cordial'
p14
aa(lp15
S'1.0'
p16
aS'cl de'
p17
aS'sirop de grenadine'
p18
aa(lp19
S'None'
p20
aS'None'
p21
aS"jus d'oranges"
p22
aaa.