(lp0
S'Tramonto sul garda'
p1
aF3.6
aI5
a(lp2
(lp3
S'None'
p4
aS'None'
p5
aS'champagne'
p6
aa(lp7
S'3.0'
p8
aS'cl de'
p9
aS'gin'
p10
aa(lp11
S'2.0'
p12
aS'cl de'
p13
aS'jus de pamplemousses'
p14
aa(lp15
S'1.5'
p16
aS'cl de'
p17
aS'triple sec (cointreau, grand marnier)'
p18
aaa.