(lp0
S'Girls on Sunrise'
p1
aF4.4
aI8
a(lp2
(lp3
S'4.0'
p4
aS'cl de'
p5
aS'vodka'
p6
aa(lp7
S'3.0'
p8
aS'cl de'
p9
aS'triple sec (cointreau, grand marnier)'
p10
aa(lp11
S'10.0'
p12
aS'cl de'
p13
aS"jus d'oranges"
p14
aa(lp15
S'1.0'
p16
aS'trait de'
p17
aS'sirop de grenadine'
p18
aaa.