(lp0
S'Dark Mai'
p1
aF4.0
aI2
a(lp2
(lp3
S'7.5'
p4
aS'cl de'
p5
aS'vodka'
p6
aa(lp7
S'2.5'
p8
aS'cl de'
p9
aS'tequila'
p10
aa(lp11
S'5.0'
p12
aS'cl de'
p13
aS'cura\xc3\xa7ao bleu'
p14
aa(lp15
S'5.0'
p16
aS'cl de'
p17
aS'sirop de grenadine'
p18
aa(lp19
S'10.0'
p20
aS'cl de'
p21
aS'cola (coca cola, pepsi)'
p22
aa(lp23
S'30.0'
p24
aS'cl de'
p25
aS'th\xc3\xa9 vert'
p26
aaa.