(lp0
S"Chocolat chaud \xc3\xa0 l'ancienne"
p1
aF3.9
aI43
a(lp2
(lp3
S'12.0'
p4
aS"cl d'"
p5
aS'eau'
p6
aa(lp7
S'150.0'
p8
aS'grammes de'
p9
aS'chocolat amer'
p10
aa(lp11
S'65.0'
p12
aS'cl de'
p13
aS'lait'
p14
aa(lp15
S'1.0'
p16
aS'pinc\xc3\xa9e de'
p17
aS'cannelle'
p18
aa(lp19
S'None'
p20
aS'extrait de'
p21
aS'vanille'
p22
aaa.