(lp0
S'Tropic menthe'
p1
aF3.6
aI25
a(lp2
(lp3
S'2.0'
p4
aS'cl de'
p5
aS"jus d'ananas"
p6
aa(lp7
S'3.0'
p8
aS'cl de'
p9
aS'jus de goyaves'
p10
aa(lp11
S'4.0'
p12
aS'cl de'
p13
aS'jus de mangues'
p14
aa(lp15
S'1.0'
p16
aS'cl de'
p17
aS'sirop de menthe'
p18
aaa.