(lp0
S"Reve d'amour"
p1
aF4.0
aI14
a(lp2
(lp3
S'None'
p4
aS'None'
p5
aS'champagne'
p6
aa(lp7
S'2.0'
p8
aS'None'
p9
aS'cerises au kirsch'
p10
aa(lp11
S'0.5'
p12
aS'cl de'
p13
aS'sirop de grenadine'
p14
aa(lp15
S'2.0'
p16
aS'cl de'
p17
aS'champagne'
p18
aa(lp19
S'2.0'
p20
aS'cl de'
p21
aS'amaretto'
p22
aaa.