(lp0
S'Chocolat Guimauve'
p1
aF4.4
aI19
a(lp2
(lp3
S'30.0'
p4
aS'cl de'
p5
aS'lait'
p6
aa(lp7
S'30.0'
p8
aS'cl de'
p9
aS'cr\xc3\xa8me fra\xc3\xaeche liquide'
p10
aa(lp11
S'80.0'
p12
aS'grammes de'
p13
aS'chocolat'
p14
aa(lp15
S'8.0'
p16
aS'None'
p17
aS'marshmallows (chamallows)'
p18
aaa.