(lp0
S'Chocolat viennois'
p1
aF3.8
aI42
a(lp2
(lp3
S'1.0'
p4
aS'tablettes de'
p5
aS'chocolat'
p6
aa(lp7
S'16.6666666667'
p8
aS'cl de'
p9
aS'lait'
p10
aa(lp11
S'0.5'
p12
aS"jaunes d'"
p13
aS'oeufs'
p14
aa(lp15
S'1.0'
p16
aS'cuill\xc3\xa8res \xc3\xa0 soupe de'
p17
aS'cr\xc3\xa8me chantilly'
p18
aaa.