(lp0
S'Chocomenthe'
p1
aF3.3
aI3
a(lp2
(lp3
S'2.0'
p4
aS'cl de'
p5
aS'rhum blanc'
p6
aa(lp7
S'2.0'
p8
aS'cl de'
p9
aS'liqueur de cacao brun'
p10
aa(lp11
S'2.0'
p12
aS'cl de'
p13
aS'triple sec (cointreau, grand marnier)'
p14
aa(lp15
S'0.5'
p16
aS'cl de'
p17
aS'liqueur de menthe verte (get 27)'
p18
aaa.