(lp0
S'Morango Doce'
p1
aF3.4
aI407
a(lp2
(lp3
S'2.0'
p4
aS'litres de'
p5
aS'limonade (soda, sprite, 7up)'
p6
aa(lp7
S'50.0'
p8
aS'cl de'
p9
aS"jus d'oranges"
p10
aa(lp11
S'5.0'
p12
aS'cl de'
p13
aS'sirop de fraises'
p14
aa(lp15
S'500.0'
p16
aS'g de'
p17
aS'fraises'
p18
aaa.