(lp0
S'Doudou 2'
p1
aF3.0
aI6
a(lp2
(lp3
S'None'
p4
aS"quelques go\xc3\xbbtes d'"
p5
aS'angostura bitters'
p6
aa(lp7
S'0.5'
p8
aS'cl de'
p9
aS'sirop de grenadine'
p10
aa(lp11
S'5.0'
p12
aS"cl d'"
p13
aS'tonic (schweppes)'
p14
aa(lp15
S'5.0'
p16
aS'cl de'
p17
aS'jus de pamplemousses'
p18
aa(lp19
S'10.0'
p20
aS'cl de'
p21
aS'rhum blanc'
p22
aaa.