(lp0
S'H\xc3\xa9lo\xc3\xafse'
p1
aF3.1
aI7
a(lp2
(lp3
S'1.0'
p4
aS'zeste de'
p5
aS'citrons'
p6
aa(lp7
S'None'
p8
aS'None'
p9
aS'limonade (soda, sprite, 7up)'
p10
aa(lp11
S'4.0'
p12
aS'cl de'
p13
aS'liqueur de lychees (soho, litchao)'
p14
aaa.