(lp0
S'Orange dream'
p1
aF4.0
aI6
a(lp2
(lp3
S'5.0'
p4
aS'cl de'
p5
aS'cr\xc3\xa8me fra\xc3\xaeche liquide'
p6
aa(lp7
S'5.0'
p8
aS'cl de'
p9
aS"jus d'oranges"
p10
aa(lp11
S'3.0'
p12
aS'cl de'
p13
aS'liqueur de cacao brun'
p14
aaa.