(lp0
S'Le Diable en Saint'
p1
aF3.8
aI6
a(lp2
(lp3
S'1.0'
p4
aS'cl de'
p5
aS'liqueur de lychees (soho, litchao)'
p6
aa(lp7
S'2.0'
p8
aS'cl de'
p9
aS'nectar de p\xc3\xaaches'
p10
aa(lp11
S'5.0'
p12
aS'cl de'
p13
aS"jus d'oranges"
p14
aa(lp15
S'5.0'
p16
aS'cl de'
p17
aS'jus de bananes'
p18
aa(lp19
S'3.0'
p20
aS'cl de'
p21
aS'liqueur de pommes (manzana, manzanita)'
p22
aa(lp23
S'1.0'
p24
aS'cl de'
p25
aS'triple sec (cointreau, grand marnier)'
p26
aa(lp27
S'1.0'
p28
aS'cl de'
p29
aS'cr\xc3\xa8me de fruit de la passion'
p30
aa(lp31
S'2.0'
p32
aS'cl de'
p33
aS'liqueur de p\xc3\xaaches'
p34
aaa.