(lp0
S'Pink Panty Dropper'
p1
aF3.1
aI7
a(lp2
(lp3
S'1.0'
p4
aS'cl de'
p5
aS'tequila'
p6
aa(lp7
S'1.0'
p8
aS'cl de'
p9
aS'lime cordial'
p10
aa(lp11
S'1.0'
p12
aS'cl de'
p13
aS"sirop d'\xc3\xa9pices (spicy)"
p14
aa(lp15
S'1.0'
p16
aS'cl de'
p17
aS"sirop d'hibiscus"
p18
aa(lp19
S'None'
p20
aS'None'
p21
aS'eau gazeuse (perrier, salvetat)'
p22
aaa.