(lp0
S'Cremant cup'
p1
aF3.0
aI25
a(lp2
(lp3
S'1.0'
p4
aS'bouteille de'
p5
aS'vin mousseux'
p6
aa(lp7
S'12.0'
p8
aS'cl de'
p9
aS'kirsch'
p10
aa(lp11
S'12.0'
p12
aS'cl de'
p13
aS'triple sec (cointreau, grand marnier)'
p14
aa(lp15
S'3.0'
p16
aS'cuill\xc3\xa8re \xc3\xa0 caf\xc3\xa9 de'
p17
aS'sucre'
p18
aa(lp19
S'None'
p20
aS'None'
p21
aS'quelques fruits'
p22
aaa.