(lp0
S'Black Irish'
p1
aF2.6
aI8
a(lp2
(lp3
S'2.0'
p4
aS'cl de'
p5
aS'vodka'
p6
aa(lp7
S'2.0'
p8
aS'cl de'
p9
aS'cr\xc3\xa8me de whisky (baileys)'
p10
aa(lp11
S'2.0'
p12
aS'cl de'
p13
aS'liqueur de caf\xc3\xa9 (kahlua, marie brizard)'
p14
aa(lp15
S'2.0'
p16
aS'boules de'
p17
aS'sorbet \xc3\xa0 la vanille'
p18
aaa.