(lp0
S'GG Passion Breeze'
p1
aF3.8
aI21
a(lp2
(lp3
S'6.0'
p4
aS'cl de'
p5
aS"jus d'oranges"
p6
aa(lp7
S'6.0'
p8
aS'cl de'
p9
aS'jus de fruit de la passion (maracuja)'
p10
aa(lp11
S'4.0'
p12
aS'cl de'
p13
aS'jus de pamplemousses'
p14
aa(lp15
S'2.0'
p16
aS'cl de'
p17
aS'jus de citrons'
p18
aa(lp19
S'0.5'
p20
aS'cl de'
p21
aS'sirop de grenadine'
p22
aa(lp23
S'0.5'
p24
aS'cl de'
p25
aS'limonade (soda, sprite, 7up)'
p26
aaa.