(lp0
S'Batida de laranja'
p1
aF3.0
aI5
a(lp2
(lp3
S'6.0'
p4
aS'cl de'
p5
aS'lait concentr\xc3\xa9 sucr\xc3\xa9'
p6
aa(lp7
S'18.0'
p8
aS'cl de'
p9
aS"jus d'oranges"
p10
aa(lp11
S'9.0'
p12
aS'cl de'
p13
aS'cacha\xc3\xa7a'
p14
aaa.