(lp0
S'Liqueur de pissenlit'
p1
aF2.9
aI10
a(lp2
(lp3
S'100.0'
p4
aS'grammes de'
p5
aS'pissenlits'
p6
aa(lp7
S'1.0'
p8
aS"litre d'"
p9
aS'vodka'
p10
aa(lp11
S'1.0'
p12
aS"zeste d'"
p13
aS'oranges am\xc3\xa8res'
p14
aa(lp15
S'500.0'
p16
aS'grammes de'
p17
aS'sucre'
p18
aa(lp19
S'35.0'
p20
aS"cl d'"
p21
aS'eau'
p22
aaa.