(lp0
S'Rhum Pomme Cannelle'
p1
aF3.0
aI65
a(lp2
(lp3
S'0.15'
p4
aS'None'
p5
aS'pommes'
p6
aa(lp7
S'0.05'
p8
aS'b\xc3\xa2ton de'
p9
aS'cannelle'
p10
aa(lp11
S'None'
p12
aS'None'
p13
aS'sirop de miel'
p14
aa(lp15
S'5.0'
p16
aS'cl de'
p17
aS'rhum blanc'
p18
aaa.