(lp0
S'Merida'
p1
aF4.0
aI2
a(lp2
(lp3
S'None'
p4
aS'None'
p5
aS'ginger ale (canada dry)'
p6
aa(lp7
S'4.0'
p8
aS'cl de'
p9
aS'armagnac'
p10
aa(lp11
S'1.0'
p12
aS'cl de'
p13
aS'cr\xc3\xa8me de cerises'
p14
aa(lp15
S'0.5'
p16
aS'cl de'
p17
aS'safari'
p18
aaa.