(lp0
S'Sirop de mandarine'
p1
aF2.7
aI3
a(lp2
(lp3
S'0.2'
p4
aS'None'
p5
aS'mandarines'
p6
aa(lp7
S'0.0666666666667'
p8
aS'None'
p9
aS'citron'
p10
aa(lp11
S'50.0'
p12
aS'grammes de'
p13
aS'sucre'
p14
aa(lp15
S'0.0666666666667'
p16
aS'litre de'
p17
aS'jus de mandarines'
p18
aa(lp19
S'1.33333333333'
p20
aS'cl de'
p21
aS'eau'
p22
aaa.