(lp0
S'Tango C'
p1
aF3.0
aI2
a(lp2
(lp3
S'3.0'
p4
aS'cl de'
p5
aS'gin'
p6
aa(lp7
S'1.0'
p8
aS'cl de'
p9
aS'triple sec (cointreau, grand marnier)'
p10
aa(lp11
S'1.5'
p12
aS'cl de'
p13
aS'vermouth blanc (martini, cinzano)'
p14
aa(lp15
S'1.5'
p16
aS'cl de'
p17
aS'vermouth rouge (martini, cinzano)'
p18
aa(lp19
S'1.0'
p20
aS'cl de'
p21
aS"jus d'oranges"
p22
aaa.