(lp0
S'Exotic Green'
p1
aF3.5
aI15
a(lp2
(lp3
S'3.0'
p4
aS'cl de'
p5
aS'jus de pamplemousses'
p6
aa(lp7
S'3.0'
p8
aS'cl de'
p9
aS'jus de poires'
p10
aa(lp11
S'1.0'
p12
aS'cl de'
p13
aS'sirop de cura\xc3\xa7ao bleu'
p14
aaa.