(lp0
S"Vin d'\xc3\xa9pine vinette"
p1
aF2.8
aI4
a(lp2
(lp3
S'20.0'
p4
aS'kilos de'
p5
aS"baies d'\xc3\xa9pine vinette"
p6
aa(lp7
S'8.0'
p8
aS'kilos de'
p9
aS'sucre'
p10
aa(lp11
S'27.0'
p12
aS"litres d'"
p13
aS'eau'
p14
aaa.