(lp0
S'Nixon'
p1
aF3.8
aI5
a(lp2
(lp3
S'3.0'
p4
aS'cl de'
p5
aS'whisky (bourbon, whiskey)'
p6
aa(lp7
S'3.0'
p8
aS'cl de'
p9
aS'liqueur de prunes'
p10
aa(lp11
S'0.5'
p12
aS"cl d'"
p13
aS'alcool de p\xc3\xaache'
p14
aaa.