(lp0
S'Latina'
p1
aF2.3
aI3
a(lp2
(lp3
S'2.5'
p4
aS'cl de'
p5
aS'gin'
p6
aa(lp7
S'2.0'
p8
aS'cl de'
p9
aS"jus d'ananas"
p10
aa(lp11
S'1.0'
p12
aS'cl de'
p13
aS'liqueur de bananes (pisang ambon)'
p14
aa(lp15
S'0.5'
p16
aS'cl de'
p17
aS'liqueur de coco (cocogif, malibu)'
p18
aa(lp19
S'0.5'
p20
aS'cl de'
p21
aS'liqueur de menthe verte (get 27)'
p22
aaa.