(lp0
S'Uncharted 3 Drinks Reception'
p1
aF4.1
aI8
a(lp2
(lp3
S'18.0'
p4
aS'cl de'
p5
aS'bi\xc3\xa8re'
p6
aa(lp7
S'2.0'
p8
aS'cl de'
p9
aS'sirop de gingembre'
p10
aa(lp11
S'5.0'
p12
aS'cl de'
p13
aS'rhum ambr\xc3\xa9'
p14
aa(lp15
S'None'
p16
aS'None'
p17
aS'cannelle en poudre'
p18
aa(lp19
S'None'
p20
aS'None'
p21
aS'sucre'
p22
aaa.