(lp0
S'Caruso cocktail'
p1
aF2.5
aI2
a(lp2
(lp3
S'2.0'
p4
aS'cl de'
p5
aS'gin'
p6
aa(lp7
S'2.0'
p8
aS'cl de'
p9
aS'vermouth dry (martini, noilly prat)'
p10
aa(lp11
S'2.0'
p12
aS'cl de'
p13
aS'liqueur de menthe verte (get 27)'
p14
aaa.