(lp0
S"R\xc3\xaave d'un soir"
p1
aF2.5
aI2
a(lp2
(lp3
S'5.0'
p4
aS'cl de'
p5
aS'cura\xc3\xa7ao bleu'
p6
aa(lp7
S'1.0'
p8
aS'cl de'
p9
aS'rhum blanc'
p10
aa(lp11
S'1.5'
p12
aS'cl de'
p13
aS'sirop de citrons'
p14
aa(lp15
S'1.5'
p16
aS'cl de'
p17
aS"jus d'ananas"
p18
aa(lp19
S'4.0'
p20
aS'cl de'
p21
aS'jus de pamplemousses'
p22
aa(lp23
S'1.0'
p24
aS'traits'
p25
aS'sirop de grenadine'
p26
aaa.