(lp0
S'Vodka-piment'
p1
aF4.0
aI10
a(lp2
(lp3
S'55.0'
p4
aS'cl de'
p5
aS'vodka'
p6
aa(lp7
S'15.0'
p8
aS'cl de'
p9
aS'sirop de sucre de canne'
p10
aa(lp11
S'3.0'
p12
aS'None'
p13
aS'piments rouges'
p14
aaa.