(lp0
S'Gluon'
p1
aF4.3
aI3
a(lp2
(lp3
S'5.0'
p4
aS'cl de'
p5
aS'jus de papaye'
p6
aa(lp7
S'2.0'
p8
aS'cl de'
p9
aS'rhum blanc'
p10
aa(lp11
S'2.0'
p12
aS'cl de'
p13
aS'cr\xc3\xa8me de fruit de la passion'
p14
aa(lp15
S'1.0'
p16
aS'cl de'
p17
aS"sirop d'ananas"
p18
aaa.