(lp0
S'Liqueur de cassis'
p1
aF3.2
aI157
a(lp2
(lp3
S'125.0'
p4
aS'grammes de'
p5
aS'sucre'
p6
aa(lp7
S'1.0'
p8
aS"verre d'"
p9
aS'eau'
p10
aa(lp11
S'500.0'
p12
aS'grammes de'
p13
aS'cassis'
p14
aa(lp15
S'0.5'
p16
aS"litre d'"
p17
aS'eau-de-vie \xc3\xa0 40\xc2\xb0'
p18
aaa.