(lp0
S'Rock and Troll'
p1
aF4.7
aI3
a(lp2
(lp3
S'1.0'
p4
aS'cl de'
p5
aS'vodka'
p6
aa(lp7
S'0.5'
p8
aS'cl de'
p9
aS'sirop de cassis'
p10
aa(lp11
S'3.0'
p12
aS'cl de'
p13
aS"jus d'oranges"
p14
aa(lp15
S'1.0'
p16
aS'cl de'
p17
aS'tequila'
p18
aaa.