(lp0
S'Jouvence'
p1
aF2.0
aI2
a(lp2
(lp3
S'4.0'
p4
aS'cuill\xc3\xa8res \xc3\xa0 soupe'
p5
aS'feuilles de thym'
p6
aa(lp7
S'4.0'
p8
aS'cuill\xc3\xa8res \xc3\xa0 soupe'
p9
aS'feuilles de sauge'
p10
aa(lp11
S'4.0'
p12
aS'cuill\xc3\xa8res \xc3\xa0 soupe'
p13
aS'feuilles de m\xc3\xa9lisse'
p14
aa(lp15
S'4.0'
p16
aS'cuill\xc3\xa8res \xc3\xa0 soupe'
p17
aS'feuilles de menthe'
p18
aa(lp19
S'4.0'
p20
aS'cuill\xc3\xa8res \xc3\xa0 soupe'
p21
aS'feuilles de romarin'
p22
aaa.