(lp0
S'Princess Acidul\xc3\xa9e'
p1
aF4.3
aI7
a(lp2
(lp3
S'4.0'
p4
aS'cl de'
p5
aS'vodka'
p6
aa(lp7
S'2.0'
p8
aS'cl de'
p9
aS'cr\xc3\xa8me de bananes'
p10
aa(lp11
S'1.0'
p12
aS'cl de'
p13
aS'sirop de fraises'
p14
aa(lp15
S'1.0'
p16
aS'cl de'
p17
aS'sirop de violette'
p18
aa(lp19
S'2.0'
p20
aS'cl de'
p21
aS'jus de bananes'
p22
aa(lp23
S'2.0'
p24
aS'cl de'
p25
aS'jus de citrons'
p26
aaa.