(lp0
S'Stripper'
p1
aF4.3
aI6
a(lp2
(lp3
S'2.0'
p4
aS'cl de'
p5
aS"jus d'oranges"
p6
aa(lp7
S'1.0'
p8
aS'cl de'
p9
aS'sirop de grenadine'
p10
aa(lp11
S'1.0'
p12
aS'cl de'
p13
aS'sirop de sucre de canne'
p14
aa(lp15
S'3.0'
p16
aS'cl de'
p17
aS'vodka'
p18
aa(lp19
S'1.0'
p20
aS'cl de'
p21
aS'liqueur de cacao blanc'
p22
aa(lp23
S'2.0'
p24
aS'cl de'
p25
aS'liqueur de coco (cocogif, malibu)'
p26
aaa.