(lp0
S'Royal Temptation'
p1
aF3.0
aI3
a(lp2
(lp3
S'0.4'
p4
aS'volumes de'
p5
aS'amaretto'
p6
aa(lp7
S'0.3'
p8
aS'volumes de'
p9
aS'liqueur de caf\xc3\x83\xc2\xa9 (kahlua, marie brizard)'
p10
aa(lp11
S'0.2'
p12
aS'volumes de'
p13
aS'midori'
p14
aa(lp15
S'0.1'
p16
aS'volumes de'
p17
aS'cr\xc3\x83\xc2\xa8me fra\xc3\x83\xc2\xaeche liquide'
p18
aaa.