(lp0
S'Liqueur de citronnelle'
p1
aF3.1
aI12
a(lp2
(lp3
S'15.0'
p4
aS'feuilles de'
p5
aS'citronnelle'
p6
aa(lp7
S'1.0'
p8
aS"litre d'"
p9
aS'alcool de fruits'
p10
aa(lp11
S'500.0'
p12
aS'grammes de'
p13
aS'sucre'
p14
aaa.