(lp0
S'Essiac'
p1
aF3.0
aI3
a(lp2
(lp3
S'20.0'
p4
aS'grammes de'
p5
aS'racines de bardane'
p6
aa(lp7
S'3.0'
p8
aS'pieds de'
p9
aS'petite oseille'
p10
aa(lp11
S'15.0'
p12
aS"grammes d'"
p13
aS'\xc3\xa9corce interne d\xe2\x80\x99orme rouge'
p14
aa(lp15
S'10.0'
p16
aS'grammes de'
p17
aS'racine de rhubarbe'
p18
aa(lp19
S'1.0'
p20
aS"branche d'"
p21
aS'orties'
p22
aa(lp23
S'1.0'
p24
aS'cuill\xc3\xa8re \xc3\xa0 soupe de'
p25
aS'miel de manuka'
p26
aaa.