(lp0
S'Rhum violette'
p1
aF3.2
aI17
a(lp2
(lp3
S'7.0'
p4
aS'cl de'
p5
aS'rhum blanc'
p6
aa(lp7
S'2.0'
p8
aS'cl de'
p9
aS'sirop de sucre de canne'
p10
aa(lp11
S'2.0'
p12
aS'grammes de'
p13
aS'fleurs de violettes'
p14
aaa.