(lp0
S'Route des \xc3\xa9pices'
p1
aF3.3
aI3
a(lp2
(lp3
S'1.0'
p4
aS'pinc\xc3\xa9e de'
p5
aS'noix de muscade r\xc3\xa2p\xc3\xa9e'
p6
aa(lp7
S'4.0'
p8
aS'cl de'
p9
aS"jus d'ananas"
p10
aa(lp11
S'2.0'
p12
aS"cl d'"
p13
aS'amaretto'
p14
aa(lp15
S'4.0'
p16
aS'cl de'
p17
aS'gin'
p18
aaa.