(lp0
S'Raspberry Da\xc3\xafquiri'
p1
aF3.4
aI46
a(lp2
(lp3
S'2.0'
p4
aS'cl de'
p5
aS'sirop de sucre de canne'
p6
aa(lp7
S'7.0'
p8
aS'None'
p9
aS'framboises'
p10
aa(lp11
S'5.0'
p12
aS'cl de'
p13
aS'rhum cubain'
p14
aa(lp15
S'3.0'
p16
aS'cl de'
p17
aS'jus de citrons'
p18
aa(lp19
S'1.0'
p20
aS'trait de'
p21
aS'liqueur de framboises'
p22
aaa.