(lp0
S'Magic Star'
p1
aF3.4
aI10
a(lp2
(lp3
S'0.3'
p4
aS'volumes de'
p5
aS'liqueur de cacao blanc'
p6
aa(lp7
S'0.3'
p8
aS'volumes de'
p9
aS'liqueur de bananes (pisang ambon)'
p10
aa(lp11
S'0.2'
p12
aS'volumes de'
p13
aS'liqueur de kiwis'
p14
aa(lp15
S'0.2'
p16
aS'volumes de'
p17
aS'cr\xc3\xa8me fra\xc3\xaeche liquide'
p18
aa(lp19
S'1.0'
p20
aS'cl de'
p21
aS'sirop de grenadine'
p22
aaa.