(lp0
S'Vin de poire'
p1
aF2.9
aI10
a(lp2
(lp3
S'2.0'
p4
aS'cl de'
p5
aS'eau-de-vie de poires williams'
p6
aa(lp7
S'3.0'
p8
aS'cl de'
p9
aS'sirop de poire'
p10
aa(lp11
S'4.0'
p12
aS'cl de'
p13
aS'vin blanc'
p14
aa(lp15
S'0.5'
p16
aS'cl de'
p17
aS'sirop de fraises'
p18
aa(lp19
S'1.0'
p20
aS'None'
p21
aS'poire'
p22
aaa.