(lp0
S'Punch Planteur'
p1
aF2.8
aI263
a(lp2
(lp3
S'2.0'
p4
aS'pinc\xc3\xa9es de '
p5
aS'noix de muscade r\xc3\xa2p\xc3\xa9e'
p6
aa(lp7
S'10.0'
p8
aS'cl de'
p9
aS'sirop de sucre de canne'
p10
aa(lp11
S'1.0'
p12
aS'litre de'
p13
aS"jus d'ananas"
p14
aa(lp15
S'1.0'
p16
aS'litre de'
p17
aS"jus d'oranges"
p18
aa(lp19
S'1.0'
p20
aS'litre de'
p21
aS'jus de goyaves'
p22
aa(lp23
S'1.0'
p24
aS'litre de'
p25
aS'rhum blanc'
p26
aa(lp27
S'2.0'
p28
aS'pinc\xc3\xa9es de'
p29
aS'cannelle en poudre'
p30
aa(lp31
S'1.0'
p32
aS'None'
p33
aS'citrons vert'
p34
aa(lp35
S'2.0'
p36
aS'gousses de'
p37
aS'vanille'
p38
aaa.