(lp0
S'Cr\xc3\xa9puscule'
p1
aF0.0
aI0
a(lp2
(lp3
S'None'
p4
aS'jus'
p5
aS"jus d'ananas"
p6
aa(lp7
S'4.0'
p8
aS'cl de'
p9
aS'vodka'
p10
aa(lp11
S'1.5'
p12
aS'cl de'
p13
aS'cr\xc3\xa8me de p\xc3\xaache'
p14
aa(lp15
S'1.5'
p16
aS'cl de'
p17
aS'angostura bitters'
p18
aaa.