(lp0
S"Baillet's"
p1
aF3.0
aI1
a(lp2
(lp3
S'2.0'
p4
aS'cl de'
p5
aS'gin'
p6
aa(lp7
S'1.0'
p8
aS'cl de'
p9
aS'angostura bitters'
p10
aa(lp11
S'4.0'
p12
aS'cl de'
p13
aS'vermouth rouge (martini, cinzano)'
p14
aaa.