(lp0
S'Vin de sureau'
p1
aF3.1
aI154
a(lp2
(lp3
S'1.0'
p4
aS'litres de'
p5
aS'vin blanc'
p6
aa(lp7
S'6.0'
p8
aS'None'
p9
aS'fleurs de sureau'
p10
aa(lp11
S'15.0'
p12
aS'cl de'
p13
aS'vodka'
p14
aa(lp15
S'150.0'
p16
aS'grammes de'
p17
aS'sucre'
p18
aaa.