(lp0
S'Glace de macadamia'
p1
aF3.7
aI34
a(lp2
(lp3
S'2.0'
p4
aS'None'
p5
aS'oeufs'
p6
aa(lp7
S'60.0'
p8
aS'grammes de'
p9
aS'sucre'
p10
aa(lp11
S'40.0'
p12
aS'cl de'
p13
aS'lait'
p14
aa(lp15
S'10.0'
p16
aS'cl de'
p17
aS'cr\xc3\xa8me fra\xc3\xaeche liquide'
p18
aa(lp19
S'200.0'
p20
aS'grammes de'
p21
aS'noix de macadamia'
p22
aa(lp23
S'50.0'
p24
aS'grammes de'
p25
aS'caramel'
p26
aaa.