(lp0
S'Malibu Beach'
p1
aF3.4
aI260
a(lp2
(lp3
S'5.0'
p4
aS'cl de'
p5
aS'liqueur de coco (cocogif, malibu)'
p6
aa(lp7
S'5.0'
p8
aS'cl de'
p9
aS'cr\xc3\xa8me de fruit de la passion'
p10
aa(lp11
S'10.0'
p12
aS'cl de'
p13
aS'jus de fruit de la passion (maracuja)'
p14
aa(lp15
S'0.5'
p16
aS'cl de'
p17
aS'sirop de fraises'
p18
aaa.