(lp0
S"Liqueur d'asp\xc3\xa9rule"
p1
aF3.2
aI20
a(lp2
(lp3
S'1.0'
p4
aS"poign\xc3\xa9e d'"
p5
aS'asp\xc3\xa9rule'
p6
aa(lp7
S'450.0'
p8
aS'grammes de'
p9
aS'sucre'
p10
aa(lp11
S'1.0'
p12
aS"litre d'"
p13
aS'eau-de-vie'
p14
aaa.