(lp0
S'Green goblin'
p1
aF4.3
aI6
a(lp2
(lp3
S'5.0'
p4
aS'cl de'
p5
aS'th\xc3\xa9'
p6
aa(lp7
S'1.0'
p8
aS'cl de'
p9
aS'kiwis'
p10
aa(lp11
S'1.0'
p12
aS'None'
p13
aS'clous de girofle'
p14
aa(lp15
S'1.0'
p16
aS'cl de'
p17
aS'gin'
p18
aa(lp19
S'1.0'
p20
aS'cl de'
p21
aS'triple sec (cointreau, grand marnier)'
p22
aa(lp23
S'1.0'
p24
aS'cl de'
p25
aS'guacamole'
p26
aaa.