(lp0
S'Regent star'
p1
aF2.0
aI1
a(lp2
(lp3
S'3.5'
p4
aS'cl de'
p5
aS'gin'
p6
aa(lp7
S'2.0'
p8
aS'cl de'
p9
aS'triple sec (cointreau, grand marnier)'
p10
aa(lp11
S'1.5'
p12
aS'cl de'
p13
aS'vermouth dry (martini, noilly prat)'
p14
aa(lp15
S'1.0'
p16
aS'cl de'
p17
aS'jus de fruit de la passion (maracuja)'
p18
aaa.