(lp0
S'Sari'
p1
aF2.6
aI5
a(lp2
(lp3
S'4.0'
p4
aS'cl de'
p5
aS'jus de mangues'
p6
aa(lp7
S'2.0'
p8
aS'cl de'
p9
aS'triple sec (cointreau, grand marnier)'
p10
aa(lp11
S'2.0'
p12
aS'cl de'
p13
aS'gin'
p14
aaa.