(lp0
S'Liqueur de kaki'
p1
aF2.0
aI5
a(lp2
(lp3
S'50.0'
p4
aS'grammes de'
p5
aS'sucre'
p6
aa(lp7
S'1.0'
p8
aS"litre d'"
p9
aS'alcool \xc3\xa0 45\xc2\xb0'
p10
aa(lp11
S'2.0'
p12
aS'None'
p13
aS'kakis'
p14
aaa.