(lp0
S'Port sanary'
p1
aF3.7
aI61
a(lp2
(lp3
S'3.0'
p4
aS'cl de'
p5
aS'rhum blanc'
p6
aa(lp7
S'2.0'
p8
aS'cl de'
p9
aS'tequila'
p10
aa(lp11
S'1.0'
p12
aS'cl de'
p13
aS'liqueur de bananes (pisang ambon)'
p14
aa(lp15
S'2.0'
p16
aS'cl de'
p17
aS'liqueur de cacao blanc'
p18
aa(lp19
S'6.0'
p20
aS'cl de'
p21
aS'lait de coco'
p22
aa(lp23
S'0.5'
p24
aS'cl de'
p25
aS'sirop de grenadine'
p26
aaa.