(lp0
S'Captain ara'
p1
aF2.6
aI15
a(lp2
(lp3
S'3.0'
p4
aS'cl de'
p5
aS'rhum blanc'
p6
aa(lp7
S'1.0'
p8
aS'None'
p9
aS'oeuf'
p10
aa(lp11
S'4.0'
p12
aS'cl de'
p13
aS"jus d'oranges"
p14
aa(lp15
S'0.5'
p16
aS'cl de'
p17
aS'sirop de cassis'
p18
aaa.