(lp0
S"Horse's neck"
p1
aF3.5
aI6
a(lp2
(lp3
S'None'
p4
aS'None'
p5
aS'ginger ale (canada dry)'
p6
aa(lp7
S'6.0'
p8
aS'cl de'
p9
aS'cognac'
p10
aa(lp11
S'1.0'
p12
aS'cl de'
p13
aS'angostura bitters'
p14
aaa.