(lp0
S'Krutenau Bounce Ice Tea'
p1
aF4.0
aI3
a(lp2
(lp3
S'3.0'
p4
aS'cl de'
p5
aS'brandy'
p6
aa(lp7
S'1.0'
p8
aS'zeste de'
p9
aS'citrons'
p10
aa(lp11
S'9.0'
p12
aS'cl de'
p13
aS'th\xc3\xa9 \xc3\xa0 la p\xc3\xaache'
p14
aaa.