(lp0
S'Fleur c\xc3\xa9leste boupha savanh'
p1
aF4.3
aI31
a(lp2
(lp3
S'10.0'
p4
aS'cl de'
p5
aS'jus de fruits rouges'
p6
aa(lp7
S'8.0'
p8
aS'cl de'
p9
aS"jus d'oranges"
p10
aa(lp11
S'2.0'
p12
aS'cl de'
p13
aS'jus de citrons verts'
p14
aaa.