(lp0
S'Wilder'
p1
aF4.0
aI1
a(lp2
(lp3
S'3.0'
p4
aS'cl de'
p5
aS'triple sec (cointreau, grand marnier)'
p6
aa(lp7
S'1.0'
p8
aS'cl de'
p9
aS'sirop de basilic'
p10
aa(lp11
S'1.0'
p12
aS'cl de'
p13
aS'sirop de concombre'
p14
aa(lp15
S'1.0'
p16
aS'cl de'
p17
aS'lime cordial'
p18
aa(lp19
S'None'
p20
aS'None'
p21
aS'eau gazeuse (perrier, salvetat)'
p22
aaa.