(lp0
S'Red Orange'
p1
aF4.3
aI10
a(lp2
(lp3
S'12.0'
p4
aS'cl de'
p5
aS"jus d'oranges"
p6
aa(lp7
S'8.0'
p8
aS'cl de'
p9
aS'jus de cerises'
p10
aa(lp11
S'1.0'
p12
aS'cl de'
p13
aS'jus de citrons'
p14
aaa.