(lp0
S'Pisco sour'
p1
aF3.9
aI107
a(lp2
(lp3
S'10.0'
p4
aS'cl de'
p5
aS'pisco'
p6
aa(lp7
S'3.0'
p8
aS'cl de'
p9
aS'jus de citrons verts'
p10
aa(lp11
S'1.0'
p12
aS'cl de'
p13
aS'sirop de sucre de canne'
p14
aa(lp15
S'1.0'
p16
aS"blanc d'"
p17
aS'oeufs'
p18
aa(lp19
S'None'
p20
aS"quelques goutes d'"
p21
aS'angostura bitters'
p22
aaa.