(lp0
S'Relayeur'
p1
aF3.8
aI9
a(lp2
(lp3
S'4.0'
p4
aS'cl de'
p5
aS'triple sec (cointreau, grand marnier)'
p6
aa(lp7
S'6.0'
p8
aS'cl de'
p9
aS'nectar de p\xc3\xaaches'
p10
aa(lp11
S'2.0'
p12
aS'cl de'
p13
aS'jus de citrons verts'
p14
aa(lp15
S'1.0'
p16
aS'cl de'
p17
aS'liqueur de coco (cocogif, malibu)'
p18
aa(lp19
S'1.0'
p20
aS'cl de'
p21
aS'sirop de grenadine'
p22
aa(lp23
S'1.0'
p24
aS'cl de'
p25
aS'rhum blanc'
p26
aa(lp27
S'1.0'
p28
aS'cl de'
p29
aS'cura\xc3\xa7ao bleu'
p30
aaa.