(lp0
S'Agua de valencia'
p1
aF3.6
aI66
a(lp2
(lp3
S'2.0'
p4
aS'None'
p5
aS'oranges'
p6
aa(lp7
S'70.0'
p8
aS'cl de'
p9
aS'vin mousseux'
p10
aa(lp11
S'5.0'
p12
aS'cl de'
p13
aS'vodka'
p14
aa(lp15
S'5.0'
p16
aS'cl de'
p17
aS'gin'
p18
aa(lp19
S'10.0'
p20
aS'cl de'
p21
aS'sirop de sucre de canne'
p22
aaa.