(lp0
S'Cactus jack'
p1
aF3.1
aI7
a(lp2
(lp3
S'1.0'
p4
aS'cl de'
p5
aS'tequila'
p6
aa(lp7
S'0.75'
p8
aS'cl de'
p9
aS'cura\xc3\xa7ao bleu'
p10
aa(lp11
S'1.25'
p12
aS'cl de'
p13
aS"jus d'oranges"
p14
aa(lp15
S'1.0'
p16
aS'cl de'
p17
aS"jus d'ananas"
p18
aa(lp19
S'0.5'
p20
aS'cl de'
p21
aS'jus de citrons verts'
p22
aaa.