(lp0
S'Bishop cup'
p1
aF3.0
aI2
a(lp2
(lp3
S'2.0'
p4
aS'cuill\xc3\xa8res de'
p5
aS'sucre'
p6
aa(lp7
S'1.0'
p8
aS'cl de'
p9
aS'cognac'
p10
aa(lp11
S'1.0'
p12
aS"verre d'"
p13
aS'eau'
p14
aa(lp15
S'10.0'
p16
aS'None'
p17
aS'clous de girofle'
p18
aa(lp19
S'2.0'
p20
aS'None'
p21
aS'citrons'
p22
aa(lp23
S'0.5'
p24
aS'b\xc3\xa2ton de'
p25
aS'cannelle'
p26
aa(lp27
S'15.0'
p28
aS'cl de'
p29
aS'porto rouge'
p30
aaa.