(lp0
S'Prestige'
p1
aF3.9
aI9
a(lp2
(lp3
S'1.0'
p4
aS'cl de'
p5
aS'cr\xc3\xa8me de m\xc3\xbbre'
p6
aa(lp7
S'3.0'
p8
aS'cl de'
p9
aS'eau-de-vie de poires williams'
p10
aa(lp11
S'3.0'
p12
aS'cl de'
p13
aS'jus de poires'
p14
aaa.