(lp0
S'Frozen Mojito Limonade'
p1
aF4.0
aI1
a(lp2
(lp3
S'1.5'
p4
aS'cl de'
p5
aS'limonade mix'
p6
aa(lp7
S'1.5'
p8
aS'cl de'
p9
aS'sirop de mojito'
p10
aa(lp11
S'10.0'
p12
aS'cl de'
p13
aS"jus d'oranges"
p14
aa(lp15
S'3.0'
p16
aS'feuilles de'
p17
aS'menthe'
p18
aaa.