(lp0
S'V.s.d.'
p1
aF3.0
aI1
a(lp2
(lp3
S'2.5'
p4
aS'cl de'
p5
aS'gin'
p6
aa(lp7
S'1.0'
p8
aS'cl de'
p9
aS'triple sec (cointreau, grand marnier)'
p10
aa(lp11
S'1.0'
p12
aS'cl de'
p13
aS'angostura bitters'
p14
aa(lp15
S'1.0'
p16
aS'cl de'
p17
aS'b\xc3\xa9n\xc3\xa9dictine'
p18
aa(lp19
S'0.5'
p20
aS'cl de'
p21
aS'cura\xc3\xa7ao bleu'
p22
aaa.