(lp0
S"Liqueur d'oeuf"
p1
aF3.5
aI18
a(lp2
(lp3
S'8.0'
p4
aS'None'
p5
aS'oeufs'
p6
aa(lp7
S'350.0'
p8
aS'grammes de'
p9
aS'sucre'
p10
aa(lp11
S'2.0'
p12
aS'sachets de'
p13
aS'sucre vanill\xc3\xa9'
p14
aa(lp15
S'400.0'
p16
aS'grammes de'
p17
aS'lait concentr\xc3\xa9 non sucr\xc3\xa9'
p18
aa(lp19
S'15.0'
p20
aS"cl d'"
p21
aS'eau-de-vie'
p22
aa(lp23
S'5.0'
p24
aS"cl d'"
p25
aS'eau'
p26
aaa.