(lp0
S'Milk-shake vitabon'
p1
aF3.6
aI22
a(lp2
(lp3
S'200.0'
p4
aS'grammes de'
p5
aS'fraises'
p6
aa(lp7
S'2.0'
p8
aS'None'
p9
aS'kiwis'
p10
aa(lp11
S'1.0'
p12
aS'None'
p13
aS'pomme'
p14
aa(lp15
S'1.0'
p16
aS'None'
p17
aS'banane'
p18
aa(lp19
S'2.0'
p20
aS'None'
p21
aS'yaourt nature'
p22
aaa.