(lp0
S'Sandra in High Spirits'
p1
aF4.6
aI5
a(lp2
(lp3
S'1.0'
p4
aS'cuill\xc3\xa8re de'
p5
aS'sirop de sucre de canne'
p6
aa(lp7
S'0.5'
p8
aS'cl de'
p9
aS'citrons verts'
p10
aa(lp11
S'7.0'
p12
aS'pinc\xc3\xa9es de'
p13
aS'menthe'
p14
aa(lp15
S'4.0'
p16
aS'cl de'
p17
aS'vodka'
p18
aa(lp19
S'None'
p20
aS'cl de'
p21
aS'cola (coca cola, pepsi)'
p22
aaa.