(lp0
S'Florida Dream'
p1
aF3.7
aI7
a(lp2
(lp3
S'1.0'
p4
aS'cuill\xc3\xa8re \xc3\xa0 caf\xc3\xa9 de'
p5
aS'liqueur de cerises (cherry brandy)'
p6
aa(lp7
S'1.5'
p8
aS'cl de'
p9
aS'gin'
p10
aa(lp11
S'1.0'
p12
aS'cuill\xc3\xa8re \xc3\xa0 caf\xc3\xa9 de'
p13
aS'triple sec (cointreau, grand marnier)'
p14
aa(lp15
S'3.0'
p16
aS'cl de'
p17
aS"jus d'oranges"
p18
aa(lp19
S'1.0'
p20
aS'cuill\xc3\xa8re \xc3\xa0 caf\xc3\xa9 de'
p21
aS'jus de citrons'
p22
aaa.