(lp0
S'Le Michou'
p1
aF4.3
aI15
a(lp2
(lp3
S'4.0'
p4
aS'cl de'
p5
aS'vodka'
p6
aa(lp7
S'1.0'
p8
aS'filet de'
p9
aS'cura\xc3\xa7ao bleu'
p10
aa(lp11
S'1.0'
p12
aS'filet de'
p13
aS'sirop de grenadine'
p14
aa(lp15
S'10.0'
p16
aS"gouttes d'un"
p17
aS'citrons'
p18
aaa.