(lp0
S'Hugosse'
p1
aF3.8
aI6
a(lp2
(lp3
S'8.0'
p4
aS'cl de'
p5
aS'lait'
p6
aa(lp7
S'6.0'
p8
aS'cl de'
p9
aS'cura\xc3\xa7ao bleu'
p10
aa(lp11
S'3.0'
p12
aS'cl de'
p13
aS'liqueur de bananes (pisang ambon)'
p14
aa(lp15
S'3.0'
p16
aS'cl de'
p17
aS'lait de coco'
p18
aaa.