(lp0
S'Spice Lagoon'
p1
aF4.0
aI2
a(lp2
(lp3
S'4.0'
p4
aS'cl de'
p5
aS'liqueur de coco (cocogif, malibu)'
p6
aa(lp7
S'3.0'
p8
aS'cl de'
p9
aS'gin'
p10
aa(lp11
S'1.0'
p12
aS'cl de'
p13
aS'jus de citrons'
p14
aa(lp15
S'8.0'
p16
aS'cl de'
p17
aS'jus de bananes'
p18
aa(lp19
S'1.0'
p20
aS'trait de'
p21
aS'cura\xc3\xa7ao bleu'
p22
aa(lp23
S'None'
p24
aS'gouttes de'
p25
aS'tabasco'
p26
aaa.