(lp0
S'Beach milk 2'
p1
aF3.1
aI7
a(lp2
(lp3
S'1.0'
p4
aS'cl de'
p5
aS'cura\xc3\xa7ao bleu'
p6
aa(lp7
S'4.0'
p8
aS'cl de'
p9
aS'vermouth blanc (martini, cinzano)'
p10
aa(lp11
S'1.5'
p12
aS'cl de'
p13
aS'liqueur de coco (cocogif, malibu)'
p14
aa(lp15
S'4.0'
p16
aS'cl de'
p17
aS'lait'
p18
aaa.