(lp0
S'Green smoothie'
p1
aF3.3
aI31
a(lp2
(lp3
S'0.3'
p4
aS'None'
p5
aS'kiwis'
p6
aa(lp7
S'0.1'
p8
aS'None'
p9
aS'banane'
p10
aa(lp11
S'0.1'
p12
aS'None'
p13
aS'citrons vert'
p14
aa(lp15
S'0.1'
p16
aS'tasse de'
p17
aS'm\xc3\xa2che'
p18
aa(lp19
S'1.5'
p20
aS"cl d'"
p21
aS'eau'
p22
aa(lp23
S'0.1'
p24
aS'None'
p25
aS'avocat'
p26
aaa.