(lp0
S'Coucher de soleil'
p1
aF3.0
aI11
a(lp2
(lp3
S'None'
p4
aS'jus'
p5
aS"jus d'oranges"
p6
aa(lp7
S'3.0'
p8
aS'cl de'
p9
aS'cr\xc3\xa8me de p\xc3\xaache'
p10
aa(lp11
S'1.5'
p12
aS'cl de'
p13
aS"jus d'oranges"
p14
aa(lp15
S'1.5'
p16
aS'cl de'
p17
aS'gin'
p18
aa(lp19
S'0.5'
p20
aS'cl de'
p21
aS'liqueur de fraises'
p22
aa(lp23
S'0.5'
p24
aS'cl de'
p25
aS"jus d'ananas"
p26
aaa.