(lp0
S'Sherry cobbler'
p1
aF4.6
aI9
a(lp2
(lp3
S'6.0'
p4
aS'cl de'
p5
aS'x\xc3\xa9r\xc3\xa8s (sherry)'
p6
aa(lp7
S'6.0'
p8
aS'cl de'
p9
aS"jus d'oranges"
p10
aa(lp11
S'4.0'
p12
aS'cl de'
p13
aS'triple sec (cointreau, grand marnier)'
p14
aaa.