(lp0
S'Terre De Feu'
p1
aF3.0
aI4
a(lp2
(lp3
S'1.5'
p4
aS'cl de'
p5
aS'cr\xc3\xa8me fra\xc3\xaeche liquide'
p6
aa(lp7
S'1.0'
p8
aS'cl de'
p9
aS'sirop de grenadine'
p10
aa(lp11
S'1.5'
p12
aS'cl de'
p13
aS'liqueur de coco (cocogif, malibu)'
p14
aa(lp15
S'6.0'
p16
aS'cl de'
p17
aS"jus d'oranges"
p18
aa(lp19
S'5.0'
p20
aS'cl de'
p21
aS'sirop de fruit de la passion (maracuja)'
p22
aaa.