(lp0
S'Yellow parrot'
p1
aF3.2
aI5
a(lp2
(lp3
S'4.0'
p4
aS'cl de'
p5
aS'brandy'
p6
aa(lp7
S'4.0'
p8
aS'cl de'
p9
aS'spiritueux anis\xc3\xa9 (pastis, ricard, pernod)'
p10
aa(lp11
S'4.0'
p12
aS'cl de'
p13
aS'chartreuse verte'
p14
aaa.