(lp0
S'Banana passion'
p1
aF4.0
aI1
a(lp2
(lp3
S'1.0'
p4
aS'demi'
p5
aS'bananes'
p6
aa(lp7
S'1.0'
p8
aS'cuill\xc3\xa8re de'
p9
aS'lait de coco'
p10
aa(lp11
S'1.25'
p12
aS'Oz de'
p13
aS'liqueur de coco (cocogif, malibu)'
p14
aa(lp15
S'0.75'
p16
aS"d'Oz de"
p17
aS'cr\xc3\xa8me de bananes'
p18
aaa.