(lp0
S'Indira Long'
p1
aF1.0
aI1
a(lp2
(lp3
S'2.0'
p4
aS'cl de'
p5
aS'vodka'
p6
aa(lp7
S'2.0'
p8
aS'cl de'
p9
aS'liqueur de coco (cocogif, malibu)'
p10
aa(lp11
S'1.0'
p12
aS'cl de'
p13
aS'liqueur de bananes (pisang ambon)'
p14
aa(lp15
S'1.0'
p16
aS'cl de'
p17
aS'cura\xc3\xa7ao bleu'
p18
aa(lp19
S'3.0'
p20
aS'gouttes de'
p21
aS'jus de citrons verts'
p22
aa(lp23
S'8.0'
p24
aS'cl de'
p25
aS'limonade (soda, sprite, 7up)'
p26
aaa.