(lp0
S'Fizz Litchi'
p1
aF3.3
aI3
a(lp2
(lp3
S'1.5'
p4
aS'cl de'
p5
aS'pur\xc3\xa9e de litchi'
p6
aa(lp7
S'1.0'
p8
aS'cl de'
p9
aS'sirop de cerise'
p10
aa(lp11
S'4.5'
p12
aS'cl de'
p13
aS'gin'
p14
aa(lp15
S'4.0'
p16
aS'cl de'
p17
aS'jus de pamplemousses'
p18
aa(lp19
S'None'
p20
aS'None'
p21
aS'ginger ale (canada dry)'
p22
aaa.