(lp0
S'Lebanese snow'
p1
aF3.0
aI1
a(lp2
(lp3
S'4.5'
p4
aS'cl de'
p5
aS'liqueur de fraises'
p6
aa(lp7
S'3.0'
p8
aS'cl de'
p9
aS'cr\xc3\xa8me fra\xc3\xaeche liquide'
p10
aa(lp11
S'3.0'
p12
aS'cl de'
p13
aS'cr\xc3\xa8me de bananes'
p14
aaa.