(lp0
S'Cocktail de la folie'
p1
aF3.7
aI3
a(lp2
(lp3
S'1.0'
p4
aS'zeste de'
p5
aS'gingembre'
p6
aa(lp7
S'4.0'
p8
aS'cuill\xc3\xa8re \xc3\xa0 soupe de'
p9
aS'sirop de menthe'
p10
aa(lp11
S'0.5'
p12
aS'cl de'
p13
aS'liqueur de cerises (cherry brandy)'
p14
aa(lp15
S'3.0'
p16
aS'cl de'
p17
aS'rhum blanc'
p18
aa(lp19
S'2.0'
p20
aS'cl de'
p21
aS'vodka'
p22
aa(lp23
S'1.0'
p24
aS'cl de'
p25
aS'gin'
p26
aa(lp27
S'4.0'
p28
aS'cuill\xc3\xa8re \xc3\xa0 soupe de'
p29
aS'liqueur de coco (cocogif, malibu)'
p30
aa(lp31
S'6.0'
p32
aS'cuill\xc3\xa8re \xc3\xa0 soupe de'
p33
aS'sirop de grenadine'
p34
aaa.