(lp0
S'Chu-Hai'
p1
aF2.0
aI3
a(lp2
(lp3
S'0.666666666667'
p4
aS'de'
p5
aS'shochu'
p6
aa(lp7
S'0.333333333333'
p8
aS'de'
p9
aS'jus de pamplemousse'
p10
aa(lp11
S'None'
p12
aS'None'
p13
aS'limonade (soda, sprite, 7up)'
p14
aaa.