(lp0
S'Mojito Punch'
p1
aF2.8
aI73
a(lp2
(lp3
S'20.0'
p4
aS'branches de'
p5
aS'menthe'
p6
aa(lp7
S'15.0'
p8
aS'cl de'
p9
aS'sirop de sucre de canne'
p10
aa(lp11
S'6.0'
p12
aS'None'
p13
aS'citrons verts'
p14
aa(lp15
S'50.0'
p16
aS'cl de'
p17
aS'rhum cubain'
p18
aa(lp19
S'1.0'
p20
aS"cl d'"
p21
aS'angostura bitters'
p22
aa(lp23
S'None'
p24
aS'None'
p25
aS'eau gazeuse (perrier, salvetat)'
p26
aaa.