(lp0
S'Jersey Cocktail'
p1
aF3.0
aI1
a(lp2
(lp3
S'None'
p4
aS'None'
p5
aS'cidre'
p6
aa(lp7
S'1.0'
p8
aS"c. \xc3\xa0 soupe d'"
p9
aS'angostura bitters'
p10
aa(lp11
S'1.0'
p12
aS'cl de'
p13
aS'sirop de sucre de canne'
p14
aaa.