(lp0
S'Diplomatico Old Fashioned'
p1
aF3.8
aI4
a(lp2
(lp3
S'2.5'
p4
aS'cl de'
p5
aS'rhum'
p6
aa(lp7
S'2.5'
p8
aS'cl de'
p9
aS'sirop de sucre de canne'
p10
aa(lp11
S'3.0'
p12
aS"gouttes d'"
p13
aS'angostura bitters'
p14
aa(lp15
S'1.0'
p16
aS"zeste d'"
p17
aS'oranges'
p18
aaa.