(lp0
S'Mon Cheri'
p1
aF2.7
aI20
a(lp2
(lp3
S'8.0'
p4
aS'cl de'
p5
aS'vin blanc'
p6
aa(lp7
S'1.0'
p8
aS'cl de'
p9
aS'triple sec (cointreau, grand marnier)'
p10
aa(lp11
S'15.0'
p12
aS'cl de'
p13
aS"jus d'oranges sanguines"
p14
aaa.