(lp0
S'Punk'
p1
aF3.0
aI2
a(lp2
(lp3
S'1.0'
p4
aS'None'
p5
aS'kiwi'
p6
aa(lp7
S'4.0'
p8
aS'cl de'
p9
aS'rhum blanc'
p10
aa(lp11
S'1.0'
p12
aS'cl de'
p13
aS'lime cordial'
p14
aa(lp15
S'1.0'
p16
aS'cl de'
p17
aS'sirop de pomme verte'
p18
aaa.