(lp0
S'Retail Therapy'
p1
aF3.6
aI5
a(lp2
(lp3
S'3.0'
p4
aS'cl de'
p5
aS'vodka'
p6
aa(lp7
S'1.0'
p8
aS'cl de'
p9
aS'triple sec (cointreau, grand marnier)'
p10
aa(lp11
S'3.0'
p12
aS'cl de'
p13
aS'jus de fraises'
p14
aa(lp15
S'1.0'
p16
aS'cl de'
p17
aS'sirop de basilic'
p18
aa(lp19
S'2.0'
p20
aS'cl de'
p21
aS'jus de citrons'
p22
aaa.