(lp0
S'Banana Royale'
p1
aF2.6
aI5
a(lp2
(lp3
S'5.0'
p4
aS'cl de'
p5
aS'rhum ambr\xc3\xa9'
p6
aa(lp7
S'6.0'
p8
aS'cl de'
p9
aS'lait de coco'
p10
aa(lp11
S'12.0'
p12
aS'cl de'
p13
aS"jus d'ananas"
p14
aa(lp15
S'2.0'
p16
aS'cl de'
p17
aS'cr\xc3\xa8me fra\xc3\xaeche liquide'
p18
aa(lp19
S'1.0'
p20
aS'None'
p21
aS'banane'
p22
aaa.