(lp0
S'Sangria blanche vierge'
p1
aF3.3
aI170
a(lp2
(lp3
S'0.5'
p4
aS'b\xc3\xa2ton de'
p5
aS'cannelle'
p6
aa(lp7
S'0.5'
p8
aS"litre d'"
p9
aS'eau gazeuse (perrier, salvetat)'
p10
aa(lp11
S'100.0'
p12
aS'cl de'
p13
aS'jus de raisin blanc'
p14
aa(lp15
S'2.0'
p16
aS'cl de'
p17
aS'sucre vanille'
p18
aa(lp19
S'2.0'
p20
aS'None'
p21
aS'oranges'
p22
aa(lp23
S'1.0'
p24
aS'None'
p25
aS'citron'
p26
aa(lp27
S'250.0'
p28
aS'g de'
p29
aS'raisins blancs'
p30
aaa.