(lp0
S'Chicha morada'
p1
aF3.5
aI2
a(lp2
(lp3
S'1.0'
p4
aS'kilo de'
p5
aS'ma\xc3\xafs violet'
p6
aa(lp7
S'1.0'
p8
aS'None'
p9
aS'anana'
p10
aa(lp11
S'4.0'
p12
aS'None'
p13
aS'citrons verts'
p14
aa(lp15
S'3.0'
p16
aS'None'
p17
aS'pommes'
p18
aa(lp19
S'1.0'
p20
aS'None'
p21
aS'b\xc3\xa2tons de cannelle'
p22
aa(lp23
S'3.0'
p24
aS'None'
p25
aS'clous de girofle'
p26
aa(lp27
S'200.0'
p28
aS'grammes de'
p29
aS'sucre'
p30
aa(lp31
S'4.0'
p32
aS"litres d'"
p33
aS'eau'
p34
aaa.