(lp0
S'Cassis chaud'
p1
aF5.0
aI1
a(lp2
(lp3
S'4.0'
p4
aS'cuill\xc3\xa8res \xc3\xa0 soupe de'
p5
aS'sirop de cassis'
p6
aa(lp7
S'1.0'
p8
aS'litre de'
p9
aS'jus de pommes'
p10
aa(lp11
S'4.0'
p12
aS'cuil\xc3\xa8res \xc3\xa0 caf\xc3\xa9 de'
p13
aS'jus de citrons'
p14
aaa.