(lp0
S'Caf\xc3\xa9 Fort-Royal'
p1
aF4.0
aI1
a(lp2
(lp3
S'0.5'
p4
aS'cl de'
p5
aS'sirop de sucre de canne'
p6
aa(lp7
S'2.0'
p8
aS'cl de'
p9
aS'rhum ambr\xc3\xa9'
p10
aa(lp11
S'1.0'
p12
aS'pinc\xc3\xa9e de'
p13
aS'cannelle'
p14
aa(lp15
S'10.0'
p16
aS'cl de'
p17
aS'caf\xc3\xa9'
p18
aa(lp19
S'3.0'
p20
aS'cl de'
p21
aS'cr\xc3\xa8me fra\xc3\xaeche liquide'
p22
aaa.