(lp0
S'Bob Marley'
p1
aF3.6
aI7
a(lp2
(lp3
S'5.0'
p4
aS'cl de'
p5
aS'rhum ambr\xc3\xa9'
p6
aa(lp7
S'5.0'
p8
aS'cl de'
p9
aS'liqueur de menthe verte (get 27)'
p10
aa(lp11
S'5.0'
p12
aS'cl de'
p13
aS'sirop de grenadine'
p14
aaa.