(lp0
S'Gl\xc3\xb6gi'
p1
aF4.0
aI1
a(lp2
(lp3
S'0.2'
p4
aS'litres de'
p5
aS'vin rouge'
p6
aa(lp7
S'1.0'
p8
aS'None'
p9
aS'clous de girofle'
p10
aa(lp11
S'0.2'
p12
aS'None'
p13
aS'b\xc3\xa2tons de cannelle'
p14
aa(lp15
S'2.0'
p16
aS'grammes de'
p17
aS'sucre'
p18
aa(lp19
S'0.2'
p20
aS'None'
p21
aS'oeufs'
p22
aa(lp23
S'2.0'
p24
aS'cl de'
p25
aS'vodka'
p26
aa(lp27
S'10.0'
p28
aS"grammes d'"
p29
aS'amandes'
p30
aa(lp31
S'10.0'
p32
aS'grammes de'
p33
aS'raisins secs'
p34
aaa.