(lp0
S'Mexicain'
p1
aF3.6
aI293
a(lp2
(lp3
S'5.0'
p4
aS'cl de'
p5
aS'liqueur de fraises'
p6
aa(lp7
S'5.0'
p8
aS'cl de'
p9
aS'cr\xc3\xa8me de bananes'
p10
aa(lp11
S'10.0'
p12
aS'cl de'
p13
aS'tequila'
p14
aa(lp15
S'1.0'
p16
aS'litre  de'
p17
aS'jus de pamplemousses'
p18
aaa.