(lp0
S'Quintessence 5'
p1
aF3.0
aI5
a(lp2
(lp3
S'4.0'
p4
aS'cuill\xc3\xa8res a caf\xc3\xa9 de'
p5
aS'th\xc3\xa9 vert'
p6
aa(lp7
S'50.0'
p8
aS"cl d'"
p9
aS'eau'
p10
aa(lp11
S'50.0'
p12
aS'grammes de'
p13
aS'framboises'
p14
aa(lp15
S'50.0'
p16
aS'grammes de'
p17
aS'groseilles'
p18
aa(lp19
S'50.0'
p20
aS'grammes de'
p21
aS'cassis'
p22
aa(lp23
S'2.0'
p24
aS'None'
p25
aS'citrons verts'
p26
aa(lp27
S'2.0'
p28
aS'branches de'
p29
aS'menthe'
p30
aa(lp31
S'1.0'
p32
aS'cuill\xc3\xa8re \xc3\xa0 caf\xc3\xa9 de'
p33
aS'stevia cristallis\xc3\xa9e'
p34
aaa.