(lp0
S'Green smoothie kale mango'
p1
aF3.0
aI2
a(lp2
(lp3
S'15.0'
p4
aS'cl de'
p5
aS"lait d'amandes"
p6
aa(lp7
S'0.5'
p8
aS'None'
p9
aS'banane'
p10
aa(lp11
S'1.0'
p12
aS'poign\xc3\xa9es de feuilles de'
p13
aS'kale'
p14
aa(lp15
S'1.0'
p16
aS'cuill\xc3\xa8res \xc3\xa0 soupe de'
p17
aS'graines de chanvre'
p18
aa(lp19
S'0.5'
p20
aS'None'
p21
aS'mangue'
p22
aaa.