(lp0
S"Sirop d'amande"
p1
aF3.8
aI22
a(lp2
(lp3
S'1.5'
p4
aS'kg de'
p5
aS'sucre'
p6
aa(lp7
S'250.0'
p8
aS"grammes d'"
p9
aS'amandes douces'
p10
aa(lp11
S'60.0'
p12
aS"grammes d'"
p13
aS'alandes am\xc3\xa8res'
p14
aa(lp15
S'82.0'
p16
aS"cl d'"
p17
aS'eau'
p18
aa(lp19
S'10.0'
p20
aS"cl d'"
p21
aS"eau de fleur d'oranger"
p22
aa(lp23
S'None'
p24
aS"zeste d'un"
p25
aS'citrons'
p26
aaa.