(lp0
S'Lady sweet'
p1
aF3.0
aI2
a(lp2
(lp3
S'1.0'
p4
aS'volume de'
p5
aS'tequila'
p6
aa(lp7
S'1.0'
p8
aS'volume de'
p9
aS'liqueur de coco (cocogif, malibu)'
p10
aa(lp11
S'0.5'
p12
aS'cl de'
p13
aS'cura\xc3\xa7ao bleu'
p14
aa(lp15
S'1.5'
p16
aS'volume de'
p17
aS"jus d'ananas"
p18
aaa.