(lp0
S'Chartreuse Verte 5'
p1
aF2.9
aI129
a(lp2
(lp3
S'1.0'
p4
aS'grammes de'
p5
aS'badiane'
p6
aa(lp7
S'10.0'
p8
aS'grammes de'
p9
aS'coriandre'
p10
aa(lp11
S'1.0'
p12
aS'grammes de feuilles de'
p13
aS'sauge'
p14
aa(lp15
S'1.0'
p16
aS'grammes de feuilles de'
p17
aS'm\xc3\xa9lisse'
p18
aa(lp19
S'1.0'
p20
aS'grammes de feuilles de'
p21
aS'menthe'
p22
aa(lp23
S'1.0'
p24
aS'grammes de feuilles de'
p25
aS'ang\xc3\xa9lique'
p26
aa(lp27
S'10.0'
p28
aS'grammes de'
p29
aS'tanaisie'
p30
aa(lp31
S'0.5'
p32
aS'grammes de'
p33
aS'safran'
p34
aa(lp35
S'1.0'
p36
aS"litre d'"
p37
aS'alcool \xc3\xa0 90\xc2\xb0'
p38
aaa.