(lp0
S'Wondershaker'
p1
aF3.5
aI2
a(lp2
(lp3
S'2.0'
p4
aS'cl de'
p5
aS'cr\xc3\xa8me de fruit de la passion'
p6
aa(lp7
S'2.0'
p8
aS'cl de'
p9
aS'liqueur de coco (cocogif, malibu)'
p10
aa(lp11
S'3.0'
p12
aS'cl de'
p13
aS'tequila'
p14
aa(lp15
S'7.0'
p16
aS'cl de'
p17
aS"jus d'ananas"
p18
aa(lp19
S'7.0'
p20
aS'cl de'
p21
aS"jus d'oranges"
p22
aaa.