(lp0
S'Mille et un'
p1
aF3.5
aI67
a(lp2
(lp3
S'0.5'
p4
aS'cl de'
p5
aS'sirop de grenadine'
p6
aa(lp7
S'0.5'
p8
aS'cl de'
p9
aS"jus d'oranges"
p10
aa(lp11
S'4.0'
p12
aS'cl de'
p13
aS'gin'
p14
aa(lp15
S'1.5'
p16
aS'cl de'
p17
aS"liqueur d'abricots (abricot brandy)"
p18
aa(lp19
S'1.5'
p20
aS'cl de'
p21
aS'vermouth blanc (martini, cinzano)'
p22
aaa.