(lp0
S'Dou dou fizz'
p1
aF3.7
aI11
a(lp2
(lp3
S'2.0'
p4
aS'cl de'
p5
aS'jus de citrons'
p6
aa(lp7
S'1.0'
p8
aS"blanc d'"
p9
aS'oeufs'
p10
aa(lp11
S'1.0'
p12
aS'cl de'
p13
aS'sirop de noix de coco'
p14
aa(lp15
S'3.0'
p16
aS'cuill\xc3\xa8re \xc3\xa0 caf\xc3\xa9 de'
p17
aS'sucre'
p18
aa(lp19
S'6.0'
p20
aS"traits d'"
p21
aS'extrait de rhum'
p22
aa(lp23
S'None'
p24
aS'None'
p25
aS'eau gazeuse (perrier, salvetat)'
p26
aaa.