(lp0
S'Rocher du diamant'
p1
aF4.0
aI2
a(lp2
(lp3
S'4.0'
p4
aS'cl de'
p5
aS"jus d'ananas"
p6
aa(lp7
S'3.0'
p8
aS'cl de'
p9
aS'rhum blanc'
p10
aa(lp11
S'2.0'
p12
aS'cl de'
p13
aS'malibu citron'
p14
aa(lp15
S'1.0'
p16
aS'cl de'
p17
aS'cura\xc3\xa7ao bleu'
p18
aaa.