(lp0
S'Anc\xc3\xaatre'
p1
aF4.0
aI2
a(lp2
(lp3
S'3.0'
p4
aS'cl de'
p5
aS'calvados'
p6
aa(lp7
S'2.0'
p8
aS'cl de'
p9
aS'gin'
p10
aa(lp11
S'2.0'
p12
aS'cl de'
p13
aS'cognac'
p14
aa(lp15
S'1.0'
p16
aS'cl de'
p17
aS'chartreuse verte'
p18
aa(lp19
S'5.0'
p20
aS'cl de'
p21
aS'jus de pommes'
p22
aa(lp23
S'1.0'
p24
aS'cl de'
p25
aS'sirop de noix de coco'
p26
aa(lp27
S'1.0'
p28
aS'petite cuill\xc3\xa8re de'
p29
aS'sirop de miel'
p30
aaa.