(lp0
S'May Flower'
p1
aF3.0
aI3
a(lp2
(lp3
S'1.0'
p4
aS'cuill\xc3\xa8re de'
p5
aS'gel\xc3\xa9e de cassis'
p6
aa(lp7
S'4.0'
p8
aS'cl de'
p9
aS'liqueur de violette'
p10
aa(lp11
S'2.0'
p12
aS'cl de'
p13
aS'jus de cranberry (canneberges)'
p14
aa(lp15
S'2.0'
p16
aS'cl de'
p17
aS'tonic (schweppes)'
p18
aa(lp19
S'2.0'
p20
aS'None'
p21
aS'bonbons \xc3\xa0 la violette'
p22
aa(lp23
S'1.0'
p24
aS'None'
p25
aS'fleurs de violette'
p26
aaa.