(lp0
S'Mik-shake perfect'
p1
aF4.1
aI7
a(lp2
(lp3
S'0.625'
p4
aS'zeste de'
p5
aS'fraise tagada'
p6
aa(lp7
S'0.5'
p8
aS'cl de'
p9
aS'sirop de grenadine'
p10
aa(lp11
S'10.0'
p12
aS'cl de'
p13
aS'lait'
p14
aa(lp15
S'0.25'
p16
aS'cl de'
p17
aS'sirop de sucre de canne'
p18
aa(lp19
S'0.25'
p20
aS'cl de'
p21
aS'liqueur de coco (cocogif, malibu)'
p22
aaa.