(lp0
S'Barbarella'
p1
aF4.3
aI29
a(lp2
(lp3
S'5.0'
p4
aS"traits d'"
p5
aS'angostura bitters'
p6
aa(lp7
S'1.0'
p8
aS'cl de'
p9
aS'sirop de fraises'
p10
aa(lp11
S'None'
p12
aS'None'
p13
aS'jus de raisin noir'
p14
aaa.