(lp0
S'Carolina'
p1
aF4.3
aI4
a(lp2
(lp3
S'6.0'
p4
aS'cl de'
p5
aS'tequila'
p6
aa(lp7
S'1.0'
p8
aS'cl de'
p9
aS'lait'
p10
aa(lp11
S'1.0'
p12
aS'cl de'
p13
aS'cr\xc3\xa8me fra\xc3\xaeche liquide'
p14
aa(lp15
S'1.0'
p16
aS"cuill\xc3\xa8re \xc3\xa0 caf\xc3\xa9 d'"
p17
aS'extrait de vanille'
p18
aa(lp19
S'0.5'
p20
aS'cl de'
p21
aS'sirop de grenadine'
p22
aa(lp23
S'1.0'
p24
aS"blanc d'"
p25
aS'oeufs'
p26
aa(lp27
S'None'
p28
aS'None'
p29
aS'cannelle en poudre'
p30
aaa.