(lp0
S'Roxy Rox'
p1
aF3.3
aI3
a(lp2
(lp3
S'2.0'
p4
aS"cl d'"
p5
aS'amaretto'
p6
aa(lp7
S'1.0'
p8
aS'cl de'
p9
aS'liqueur mandarine napol\xc3\xa9on'
p10
aa(lp11
S'2.0'
p12
aS'cl de'
p13
aS"jus d'oranges"
p14
aaa.