(lp0
S'Spicy Mango Margarita'
p1
aF3.9
aI13
a(lp2
(lp3
S'5.0'
p4
aS'cl de'
p5
aS'pur\xc3\xa9e de mangue'
p6
aa(lp7
S'3.0'
p8
aS'cl de'
p9
aS"sirop d'\xc3\xa9pices (spicy)"
p10
aa(lp11
S'3.0'
p12
aS'cl de'
p13
aS'tequila'
p14
aa(lp15
S'1.0'
p16
aS'cl de'
p17
aS'lime cordial'
p18
aa(lp19
S'1.0'
p20
aS'cl de'
p21
aS'triple sec (cointreau, grand marnier)'
p22
aaa.