(lp0
S'Gimlet 2'
p1
aF2.5
aI31
a(lp2
(lp3
S'1.5'
p4
aS'cl de'
p5
aS'jus de citrons verts'
p6
aa(lp7
S'4.0'
p8
aS'cl de'
p9
aS'gin'
p10
aa(lp11
S'None'
p12
aS'None'
p13
aS'eau gazeuse (perrier, salvetat)'
p14
aa(lp15
S'1.5'
p16
aS'cl de'
p17
aS'sirop de sucre de canne'
p18
aaa.