(lp0
S'Cuban Manhattan'
p1
aF2.7
aI7
a(lp2
(lp3
S'4.0'
p4
aS'cl de'
p5
aS'rhum cubain'
p6
aa(lp7
S'2.0'
p8
aS'cl de'
p9
aS'vermouth rouge (martini, cinzano)'
p10
aa(lp11
S'0.5'
p12
aS"cl d'"
p13
aS'angostura bitters'
p14
aaa.