(lp0
S'Sanguinaire'
p1
aF4.0
aI4
a(lp2
(lp3
S'4.0'
p4
aS'cl de'
p5
aS'rhum blanc'
p6
aa(lp7
S'2.0'
p8
aS'cl de'
p9
aS'liqueur de coco (cocogif, malibu)'
p10
aa(lp11
S'2.5'
p12
aS'go\xc3\xbbttes de'
p13
aS'cura\xc3\xa7ao bleu'
p14
aa(lp15
S'1.0'
p16
aS'splatch de'
p17
aS'citrons'
p18
aa(lp19
S'0.5'
p20
aS'cl de'
p21
aS'sirop de grenadine'
p22
aa(lp23
S'None'
p24
aS'completer avec du'
p25
aS'jus de cranberry (canneberges)'
p26
aaa.