(lp0
S'Raquel'
p1
aF3.0
aI2
a(lp2
(lp3
S'0.3'
p4
aS'volumes de'
p5
aS'vodka'
p6
aa(lp7
S'0.2'
p8
aS'volumes de'
p9
aS'parfait amour'
p10
aa(lp11
S'0.2'
p12
aS'volumes de'
p13
aS'cura\xc3\xa7ao bleu'
p14
aa(lp15
S'0.2'
p16
aS'volumes de'
p17
aS'liqueur de cacao brun'
p18
aa(lp19
S'0.1'
p20
aS'volumes de'
p21
aS'cr\xc3\xa8me fra\xc3\xaeche liquide'
p22
aaa.