(lp0
S'Le Globe Trotter'
p1
aF3.6
aI8
a(lp2
(lp3
S'4.0'
p4
aS'cl de'
p5
aS'liqueur de lychees (soho, litchao)'
p6
aa(lp7
S'4.0'
p8
aS'cl de'
p9
aS'vodka'
p10
aa(lp11
S'4.0'
p12
aS'cl de'
p13
aS'energy drink (red bull, pitbull, duff)'
p14
aa(lp15
S'1.0'
p16
aS'trait de'
p17
aS'sirop de grenadine'
p18
aaa.