(lp0
S'Isabelita Cocktail'
p1
aF3.1
aI7
a(lp2
(lp3
S'0.5'
p4
aS'cuill\xc3\xa8re \xc3\xa0 caf\xc3\xa9 de'
p5
aS'sirop de grenadine'
p6
aa(lp7
S'0.5'
p8
aS'cl de'
p9
aS"jus d'oranges"
p10
aa(lp11
S'2.0'
p12
aS'cl de'
p13
aS'vermouth blanc (martini, cinzano)'
p14
aa(lp15
S'4.0'
p16
aS'cl de'
p17
aS'gin'
p18
aaa.