(lp0
S'Amarius'
p1
aF3.0
aI85
a(lp2
(lp3
S'1.0'
p4
aS'cl de'
p5
aS'vodka'
p6
aa(lp7
S'1.0'
p8
aS'cl de'
p9
aS'amaretto'
p10
aa(lp11
S'1.0'
p12
aS'cl de'
p13
aS'liqueur de fraises'
p14
aa(lp15
S'3.0'
p16
aS'cl de'
p17
aS"jus d'oranges"
p18
aaa.