(lp0
S'Crocodile'
p1
aF3.0
aI3
a(lp2
(lp3
S'3.0'
p4
aS'cl de'
p5
aS'liqueur de lychees (soho, litchao)'
p6
aa(lp7
S'3.0'
p8
aS'cl de'
p9
aS'cr\xc3\xa8me de p\xc3\xaache'
p10
aa(lp11
S'3.0'
p12
aS'cl de'
p13
aS'cura\xc3\xa7ao bleu'
p14
aa(lp15
S'2.0'
p16
aS'cl de'
p17
aS'jus de citrons'
p18
aaa.