(lp0
S'Flor'
p1
aF3.5
aI102
a(lp2
(lp3
S'10.0'
p4
aS'None'
p5
aS'fraises'
p6
aa(lp7
S'2.0'
p8
aS'None'
p9
aS'bananes'
p10
aa(lp11
S'25.0'
p12
aS'cl de'
p13
aS"jus d'oranges"
p14
aa(lp15
S'25.0'
p16
aS'cl de'
p17
aS'yaourt nature'
p18
aa(lp19
S'0.5'
p20
aS'cl de'
p21
aS'sirop de miel'
p22
aaa.