(lp0
S'Ginger orange'
p1
aF3.2
aI65
a(lp2
(lp3
S'1.0'
p4
aS'cl de'
p5
aS'tabasco'
p6
aa(lp7
S'0.5'
p8
aS'cuill\xc3\xa8re \xc3\xa0 caf\xc3\xa9 de'
p9
aS'gingembre en poudre'
p10
aa(lp11
S'20.0'
p12
aS'cl de'
p13
aS"jus d'oranges"
p14
aaa.