(lp0
S'Pastel de nata'
p1
aF3.0
aI14
a(lp2
(lp3
S'1.5'
p4
aS'cl de'
p5
aS'liqueur de cacao brun'
p6
aa(lp7
S'2.0'
p8
aS"cl d'"
p9
aS'advocaat'
p10
aa(lp11
S'None'
p12
aS'None'
p13
aS'cr\xc3\xa8me chantilly'
p14
aa(lp15
S'None'
p16
aS'None'
p17
aS'cannelle'
p18
aaa.