(lp0
S'2 Mental'
p1
aF3.4
aI62
a(lp2
(lp3
S'2.0'
p4
aS'cl de'
p5
aS'vodka'
p6
aa(lp7
S'1.0'
p8
aS'cl de'
p9
aS'campari'
p10
aa(lp11
S'1.0'
p12
aS'traits de'
p13
aS'angostura bitters'
p14
aa(lp15
S'None'
p16
aS'None'
p17
aS'jus de cranberry (canneberges)'
p18
aaa.