(lp0
S'French pink'
p1
aF3.5
aI13
a(lp2
(lp3
S'0.5'
p4
aS'cl de'
p5
aS'liqueur de fraises'
p6
aa(lp7
S'2.0'
p8
aS'cl de'
p9
aS'vodka'
p10
aa(lp11
S'2.0'
p12
aS'cl de'
p13
aS'cura\xc3\xa7ao bleu'
p14
aa(lp15
S'1.5'
p16
aS'cl de'
p17
aS'vermouth blanc (martini, cinzano)'
p18
aa(lp19
S'1.5'
p20
aS'cl de'
p21
aS'jus de goyaves'
p22
aaa.