(lp0
S'Porto mel'
p1
aF2.8
aI4
a(lp2
(lp3
S'12.0'
p4
aS'cl de'
p5
aS'porto rouge'
p6
aa(lp7
S'2.0'
p8
aS'cuill\xc3\xa8res \xc3\xa0 caf\xc3\xa9 de'
p9
aS'sirop de miel'
p10
aa(lp11
S'2.0'
p12
aS'pinc\xc3\xa9es de'
p13
aS'noix de muscade r\xc3\xa2p\xc3\xa9e'
p14
aa(lp15
S'2.0'
p16
aS"jaunes d'"
p17
aS'oeufs'
p18
aaa.