(lp0
S'Corpse reviver'
p1
aF2.8
aI15
a(lp2
(lp3
S'2.0'
p4
aS'cl de'
p5
aS'armagnac'
p6
aa(lp7
S'2.0'
p8
aS'cl de'
p9
aS'vermouth blanc (martini, cinzano)'
p10
aa(lp11
S'2.0'
p12
aS'cl de'
p13
aS'calvados'
p14
aaa.