(lp0
S'Passione'
p1
aF4.0
aI1
a(lp2
(lp3
S'2.0'
p4
aS'cl de'
p5
aS'gin'
p6
aa(lp7
S'2.0'
p8
aS'cl de'
p9
aS'rhum ambr\xc3\xa9'
p10
aa(lp11
S'3.0'
p12
aS'cl de'
p13
aS'cr\xc3\xa8me de p\xc3\xaache'
p14
aa(lp15
S'2.0'
p16
aS'cl de'
p17
aS'vermouth rose (martini, cinzano)'
p18
aa(lp19
S'0.5'
p20
aS'cl de'
p21
aS'jus de citrons verts'
p22
aaa.