(lp0
S'Vin de cerises'
p1
aF2.8
aI47
a(lp2
(lp3
S'500.0'
p4
aS'grames de'
p5
aS'sucre'
p6
aa(lp7
S'50.0'
p8
aS'cl de'
p9
aS'vodka'
p10
aa(lp11
S'1.0'
p12
aS'kg de'
p13
aS'cerises'
p14
aa(lp15
S'3.0'
p16
aS'litres de'
p17
aS'vin rouge'
p18
aaa.