(lp0
S'Splendide beaute'
p1
aF2.2
aI6
a(lp2
(lp3
S'2.0'
p4
aS'cl de'
p5
aS'sirop de menthe'
p6
aa(lp7
S'2.0'
p8
aS'cl de'
p9
aS'jus de citrons verts'
p10
aa(lp11
S'8.0'
p12
aS'cl de'
p13
aS'jus de fruit de la passion (maracuja)'
p14
aa(lp15
S'8.0'
p16
aS'cl de'
p17
aS"jus d'ananas"
p18
aaa.