(lp0
S'Smoothie banane framboises'
p1
aF3.5
aI110
a(lp2
(lp3
S'0.333333333333'
p4
aS'None'
p5
aS'bananes'
p6
aa(lp7
S'50.0'
p8
aS'grammes de'
p9
aS'framboises'
p10
aa(lp11
S'0.166666666667'
p12
aS'None'
p13
aS'yaourt velout\xc3\xa9'
p14
aa(lp15
S'0.333333333333'
p16
aS'cuill\xc3\xa8re \xc3\xa0 caf\xc3\xa9 de'
p17
aS'sirop de miel'
p18
aaa.