(lp0
S'Floc Melon'
p1
aF4.0
aI1
a(lp2
(lp3
S'5.0'
p4
aS'cl de'
p5
aS'floc de gascogne blanc'
p6
aa(lp7
S'2.0'
p8
aS'cl de'
p9
aS'midori'
p10
aa(lp11
S'1.0'
p12
aS'cl de'
p13
aS'jus de citrons'
p14
aaa.