(lp0
S'Contravalanche'
p1
aF4.0
aI3
a(lp2
(lp3
S'3.0'
p4
aS'cl de'
p5
aS'hpnotiq'
p6
aa(lp7
S'2.0'
p8
aS'cl de'
p9
aS'vodka'
p10
aa(lp11
S'4.0'
p12
aS'cl de'
p13
aS'liqueur de lychees (soho, litchao)'
p14
aa(lp15
S'2.0'
p16
aS'cl de'
p17
aS'jus de citrons'
p18
aaa.