(lp0
S'Bombay JC/DC'
p1
aF3.3
aI8
a(lp2
(lp3
S'4.0'
p4
aS'cl de'
p5
aS'gin'
p6
aa(lp7
S'1.5'
p8
aS'cl de'
p9
aS'vinaigre de gingembre'
p10
aa(lp11
S'1.5'
p12
aS'cl de'
p13
aS'cr\xc3\xa8me de framboise'
p14
aa(lp15
S'1.0'
p16
aS'None'
p17
aS"fleurs d'hibiscu"
p18
aaa.