(lp0
S'Bob-di-Dob'
p1
aF3.8
aI25
a(lp2
(lp3
S'2.0'
p4
aS'oz de'
p5
aS'amaretto'
p6
aa(lp7
S'3.0'
p8
aS'cl de'
p9
aS'sour puss'
p10
aa(lp11
S'2.0'
p12
aS'oz de'
p13
aS'jus de fruits exotiques'
p14
aa(lp15
S'2.5'
p16
aS'oz de'
p17
aS"jus d'ananas"
p18
aa(lp19
S'3.0'
p20
aS'cl de'
p21
aS'energy drink (red bull, pitbull, duff)'
p22
aaa.