(lp0
S'Liqueur de raisin'
p1
aF2.7
aI13
a(lp2
(lp3
S'4.0'
p4
aS"cl d'"
p5
aS'alcool \xc3\xa0 90\xc2\xb0'
p6
aa(lp7
S'10.0'
p8
aS'grammes de'
p9
aS'sucre'
p10
aa(lp11
S'0.05'
p12
aS'kilo de'
p13
aS'raisins blancs'
p14
aa(lp15
S'0.05'
p16
aS'b\xc3\xa2ton de'
p17
aS'cannelle'
p18
aa(lp19
S'0.15'
p20
aS'None'
p21
aS'clous de girofle'
p22
aaa.