(lp0
S'Godinette'
p1
aF2.7
aI38
a(lp2
(lp3
S'10.0'
p4
aS'cl de'
p5
aS'cr\xc3\xa8me de cassis'
p6
aa(lp7
S'30.0'
p8
aS'cl de'
p9
aS'calvados'
p10
aa(lp11
S'300.0'
p12
aS'grammes de'
p13
aS'sucre'
p14
aa(lp15
S'750.0'
p16
aS'grammes de'
p17
aS'framboises'
p18
aa(lp19
S'300.0'
p20
aS'cl de'
p21
aS'vin blanc'
p22
aaa.