(lp0
S'Chocolat bavarois'
p1
aF3.9
aI9
a(lp2
(lp3
S'125.0'
p4
aS'grammes de'
p5
aS'chocolat'
p6
aa(lp7
S'50.0'
p8
aS'cl de'
p9
aS'lait'
p10
aa(lp11
S'4.0'
p12
aS"jaunes d'"
p13
aS'oeufs'
p14
aa(lp15
S'100.0'
p16
aS'grammes de'
p17
aS'sucre'
p18
aa(lp19
S'1.0'
p20
aS'cl de'
p21
aS'sirop de miel'
p22
aa(lp23
S'10.0'
p24
aS'cl de'
p25
aS'kirsch'
p26
aaa.