(lp0
S'Dark Purple'
p1
aF3.2
aI6
a(lp2
(lp3
S'3.0'
p4
aS'cl de'
p5
aS'sirop de grenadine'
p6
aa(lp7
S'2.0'
p8
aS'cl de'
p9
aS'cura\xc3\xa7ao bleu'
p10
aa(lp11
S'2.0'
p12
aS'cl de'
p13
aS'vodka'
p14
aaa.