(lp0
S'Lemonada'
p1
aF3.5
aI13
a(lp2
(lp3
S'16.0'
p4
aS'cl de'
p5
aS'jus de citrons'
p6
aa(lp7
S'3.0'
p8
aS'cl de'
p9
aS'sirop de sucre de canne'
p10
aa(lp11
S'8.0'
p12
aS'None'
p13
aS'feuilles de menthe'
p14
aaa.