(lp0
S'Citrus'
p1
aF4.3
aI7
a(lp2
(lp3
S'4.0'
p4
aS'cl de'
p5
aS'triple sec (cointreau, grand marnier)'
p6
aa(lp7
S'6.0'
p8
aS'cl de'
p9
aS'jus de pamplemousses roses'
p10
aa(lp11
S'2.0'
p12
aS'cl de'
p13
aS'jus de citrons verts'
p14
aaa.