(lp0
S'Angel Special'
p1
aF3.6
aI18
a(lp2
(lp3
S'20.0'
p4
aS'cl de'
p5
aS"jus d'oranges"
p6
aa(lp7
S'2.0'
p8
aS'cl de'
p9
aS'sirop de grenadine'
p10
aa(lp11
S'1.0'
p12
aS'cl de'
p13
aS'angostura bitters'
p14
aa(lp15
S'2.0'
p16
aS'cl de'
p17
aS'sirop de cranberry'
p18
aaa.