(lp0
S"L'Ing\xc3\xa9nieux"
p1
aF2.2
aI11
a(lp2
(lp3
S'1.0'
p4
aS'morceau de'
p5
aS'past\xc3\xa8ques'
p6
aa(lp7
S'5.0'
p8
aS'cl de'
p9
aS'rhum cubain'
p10
aa(lp11
S'2.0'
p12
aS'cl de'
p13
aS'jus de citrons verts'
p14
aa(lp15
S'2.0'
p16
aS'cl de '
p17
aS'liqueur de menthe blanche (get 31)'
p18
aaa.