(lp0
S'Sang de Dragon'
p1
aF4.1
aI16
a(lp2
(lp3
S'2.0'
p4
aS'cl de'
p5
aS'whisky (bourbon, whiskey)'
p6
aa(lp7
S'2.0'
p8
aS'cl de'
p9
aS'vodka'
p10
aa(lp11
S'1.0'
p12
aS'cuill\xc3\xa8re de'
p13
aS'tabasco'
p14
aaa.