(lp0
S'Apple cobbler'
p1
aF3.9
aI57
a(lp2
(lp3
S'6.0'
p4
aS'cl de'
p5
aS'jus de pommes'
p6
aa(lp7
S'2.0'
p8
aS'cl de'
p9
aS'jus de citrons'
p10
aa(lp11
S'2.0'
p12
aS'trait de'
p13
aS'extrait de vanille'
p14
aaa.