(lp0
S'Orange bitter'
p1
aF4.0
aI2
a(lp2
(lp3
S'50.0'
p4
aS'cl de'
p5
aS'vodka'
p6
aa(lp7
S'250.0'
p8
aS'grammes de'
p9
aS"zestes d'oranges "
p10
aa(lp11
S'1.0'
p12
aS'cuill\xc3\xa8re \xc3\xa0 caf\xc3\xa9 de'
p13
aS'cardamome'
p14
aa(lp15
S'1.0'
p16
aS'cuill\xc3\xa8re \xc3\xa0 caf\xc3\xa9 de'
p17
aS'coriandre'
p18
aa(lp19
S'1.0'
p20
aS'cuill\xc3\xa8re \xc3\xa0 caf\xc3\xa9 de'
p21
aS'cumin'
p22
aa(lp23
S'10.0'
p24
aS'cl de'
p25
aS'sirop de sucre de canne'
p26
aa(lp27
S'80.0'
p28
aS"cl d'"
p29
aS'eau'
p30
aaa.