(lp0
S'Extradition'
p1
aF3.4
aI28
a(lp2
(lp3
S'2.0'
p4
aS'cl de'
p5
aS'vodka'
p6
aa(lp7
S'2.0'
p8
aS'cl de'
p9
aS'cura\xc3\xa7ao bleu'
p10
aa(lp11
S'20.0'
p12
aS'cl de'
p13
aS'eau gazeuse (perrier, salvetat)'
p14
aaa.