(lp0
S'Mexicola'
p1
aF2.4
aI152
a(lp2
(lp3
S'13.0'
p4
aS'cl de'
p5
aS'cola (coca cola, pepsi)'
p6
aa(lp7
S'4.0'
p8
aS'cl de'
p9
aS'tequila'
p10
aa(lp11
S'3.0'
p12
aS'quartiers de'
p13
aS'citrons verts'
p14
aaa.