(lp0
S'Soft kir'
p1
aF2.7
aI3
a(lp2
(lp3
S'5.0'
p4
aS'cl de'
p5
aS'lait'
p6
aa(lp7
S'4.0'
p8
aS'cl de'
p9
aS"jus d'ananas"
p10
aa(lp11
S'1.0'
p12
aS'cl de'
p13
aS'sirop de vanille'
p14
aa(lp15
S'1.0'
p16
aS'cl de'
p17
aS'sirop de cassis'
p18
aaa.