(lp0
S'Liqueur de cumin'
p1
aF3.0
aI3
a(lp2
(lp3
S'1.0'
p4
aS'litres de'
p5
aS'vodka'
p6
aa(lp7
S'1.0'
p8
aS"litre d'"
p9
aS'eau'
p10
aa(lp11
S'1.0'
p12
aS'kilo de'
p13
aS'sucre'
p14
aa(lp15
S'25.0'
p16
aS'grammes de graines de'
p17
aS'cumin'
p18
aa(lp19
S'2.0'
p20
aS'None'
p21
aS'citrons'
p22
aaa.