(lp0
S'Gentiane'
p1
aF3.9
aI14
a(lp2
(lp3
S'50.0'
p4
aS'grammes de'
p5
aS'racine de gentiane'
p6
aa(lp7
S'5.0'
p8
aS'grammes de'
p9
aS'cacao'
p10
aa(lp11
S'1.0'
p12
aS'grammes de'
p13
aS'fleurs de sureau'
p14
aa(lp15
S'1.0'
p16
aS'litres de'
p17
aS'vin blanc'
p18
aa(lp19
S'10.0'
p20
aS'grammes de'
p21
aS'raisins secs'
p22
aa(lp23
S'1.0'
p24
aS'grammes de'
p25
aS'cannelle'
p26
aa(lp27
S'0.1'
p28
aS"litre d'"
p29
aS'alcool \xc3\xa0 90\xc2\xb0'
p30
aaa.