(lp0
S'Inca cocktail'
p1
aF5.0
aI1
a(lp2
(lp3
S'2.0'
p4
aS'cl de'
p5
aS'gin'
p6
aa(lp7
S'2.0'
p8
aS'cl de'
p9
aS'vermouth dry (martini, noilly prat)'
p10
aa(lp11
S'2.0'
p12
aS'cl de'
p13
aS'x\xc3\xa9r\xc3\xa8s (sherry)'
p14
aa(lp15
S'1.0'
p16
aS'cl de'
p17
aS"sirop d'orgeat"
p18
aa(lp19
S'0.5'
p20
aS'cl de'
p21
aS'angostura bitters'
p22
aaa.