(lp0
S'Craps'
p1
aF4.5
aI2
a(lp2
(lp3
S'0.5'
p4
aS'cl de'
p5
aS'liqueur de cacao blanc'
p6
aa(lp7
S'0.5'
p8
aS'cl de'
p9
aS'triple sec (cointreau, grand marnier)'
p10
aa(lp11
S'1.0'
p12
aS'cl de'
p13
aS'liqueur mandarine napol\xc3\xa9on'
p14
aa(lp15
S'2.5'
p16
aS'cl de'
p17
aS"jus d'oranges"
p18
aa(lp19
S'2.0'
p20
aS'cl de'
p21
aS'gin'
p22
aaa.