(lp0
S'Jasmin Cucumber'
p1
aF3.5
aI4
a(lp2
(lp3
S'3.5'
p4
aS'cl de'
p5
aS'liqueur de jasmin'
p6
aa(lp7
S'2.5'
p8
aS'cl de'
p9
aS'gin'
p10
aa(lp11
S'6.0'
p12
aS'tranches de'
p13
aS'concombres'
p14
aa(lp15
S'11.0'
p16
aS'feuilles de'
p17
aS'menthe'
p18
aa(lp19
S'0.5'
p20
aS'cl de'
p21
aS'jus de citrons'
p22
aaa.