(lp0
S'Green Angel'
p1
aF2.2
aI6
a(lp2
(lp3
S'2.0'
p4
aS'cl de'
p5
aS'triple sec (cointreau, grand marnier)'
p6
aa(lp7
S'2.0'
p8
aS'cl de'
p9
aS'jus de citrons'
p10
aa(lp11
S'1.0'
p12
aS'trait de'
p13
aS'sirop de sapin'
p14
aaa.