(lp0
S"Vin d'abricot"
p1
aF1.9
aI18
a(lp2
(lp3
S'2.0'
p4
aS'litres de'
p5
aS'vin blanc'
p6
aa(lp7
S'1.0'
p8
aS"kilo d'"
p9
aS'abricots'
p10
aa(lp11
S'200.0'
p12
aS'grammes de'
p13
aS'sucre'
p14
aa(lp15
S'15.0'
p16
aS"cl d'"
p17
aS'eau-de-vie'
p18
aaa.