(lp0
S'S\xc3\xa9r\xc3\xa9nit\xc3\xa9'
p1
aF3.7
aI7
a(lp2
(lp3
S'10.0'
p4
aS'cl de'
p5
aS'lait'
p6
aa(lp7
S'5.0'
p8
aS'cl de'
p9
aS'jus de poires'
p10
aa(lp11
S'1.0'
p12
aS'cl de'
p13
aS'sirop de menthe'
p14
aaa.