(lp0
S'Singapore Sling'
p1
aF4.2
aI52
a(lp2
(lp3
S'4.0'
p4
aS'cl de'
p5
aS'gin'
p6
aa(lp7
S'2.0'
p8
aS'cl de'
p9
aS'liqueur de cerises (cherry brandy)'
p10
aa(lp11
S'1.0'
p12
aS'cl de'
p13
aS'sirop de grenadine'
p14
aa(lp15
S'0.5'
p16
aS'cl de'
p17
aS'triple sec (cointreau, grand marnier)'
p18
aa(lp19
S'3.0'
p20
aS'cl de'
p21
aS'jus de citrons'
p22
aa(lp23
S'8.0'
p24
aS'cl de'
p25
aS"jus d'ananas"
p26
aa(lp27
S'0.5'
p28
aS'cl de'
p29
aS'b\xc3\xa9n\xc3\xa9dictine'
p30
aa(lp31
S'1.0'
p32
aS"trait d'"
p33
aS'angostura bitters'
p34
aaa.