(lp0
S'Dada Fraise'
p1
aF3.7
aI6
a(lp2
(lp3
S'3.0'
p4
aS'cl de'
p5
aS'cr\xc3\xa8me de fraises'
p6
aa(lp7
S'3.0'
p8
aS'cl de'
p9
aS'liqueur de pommes (manzana, manzanita)'
p10
aa(lp11
S'1.5'
p12
aS'cl de'
p13
aS'sirop de vanille'
p14
aa(lp15
S'6.0'
p16
aS'cl de'
p17
aS'jus de fraises'
p18
aa(lp19
S'6.0'
p20
aS'cl de'
p21
aS'jus de pommes'
p22
aa(lp23
S'1.5'
p24
aS'cl de'
p25
aS'jus de citrons'
p26
aaa.