(lp0
S'Thomas'
p1
aF3.5
aI19
a(lp2
(lp3
S'0.5'
p4
aS'cl de'
p5
aS'sirop de grenadine'
p6
aa(lp7
S'4.0'
p8
aS'cl de'
p9
aS'jus de mangues'
p10
aa(lp11
S'4.0'
p12
aS'cl de'
p13
aS"jus d'oranges"
p14
aa(lp15
S'4.0'
p16
aS'cl de'
p17
aS'jus de fraises'
p18
aa(lp19
S'5.0'
p20
aS'cl de'
p21
aS'jus de papaye'
p22
aa(lp23
S'2.0'
p24
aS'cl de'
p25
aS'jus de citrons verts'
p26
aaa.