(lp0
S"Liqueur d'estragon"
p1
aF2.2
aI10
a(lp2
(lp3
S'0.1'
p4
aS"litre d'"
p5
aS'eau-de-vie'
p6
aa(lp7
S'0.2'
p8
aS"branchettes d'"
p9
aS'estragon'
p10
aa(lp11
S'6.0'
p12
aS'morceaux de'
p13
aS'sucre'
p14
aa(lp15
S'0.1'
p16
aS'None'
p17
aS'anis \xc3\xa9toil\xc3\xa9'
p18
aaa.