(lp0
S'Pompier'
p1
aF3.1
aI9
a(lp2
(lp3
S'9.0'
p4
aS'cl de'
p5
aS'vermouth dry (martini, noilly prat)'
p6
aa(lp7
S'2.0'
p8
aS'cl de'
p9
aS'sirop de fraises'
p10
aa(lp11
S'None'
p12
aS'None'
p13
aS'eau gazeuse (perrier, salvetat)'
p14
aaa.