(lp0
S'In the mood'
p1
aF3.1
aI14
a(lp2
(lp3
S'3.0'
p4
aS'cl de'
p5
aS'sirop de fraises'
p6
aa(lp7
S'15.0'
p8
aS'cl de'
p9
aS'jus de cranberry (canneberges)'
p10
aa(lp11
S'10.0'
p12
aS'cl de'
p13
aS'vodka'
p14
aa(lp15
S'7.0'
p16
aS'cl de'
p17
aS"liqueur d'abricots (abricot brandy)"
p18
aaa.