(lp0
S'Tequila Zombie'
p1
aF2.8
aI35
a(lp2
(lp3
S'3.0'
p4
aS'cl de'
p5
aS'tequila'
p6
aa(lp7
S'1.5'
p8
aS'cl de'
p9
aS"liqueur d'abricots (abricot brandy)"
p10
aa(lp11
S'1.5'
p12
aS'cl de'
p13
aS'rhum blanc'
p14
aa(lp15
S'1.5'
p16
aS'cl de'
p17
aS'vodka'
p18
aa(lp19
S'3.0'
p20
aS'cl de'
p21
aS'jus de pamplemousses'
p22
aa(lp23
S'3.0'
p24
aS'cl de'
p25
aS"jus d'oranges"
p26
aaa.