(lp0
S'Verveine rose'
p1
aF3.0
aI1
a(lp2
(lp3
S'0.5'
p4
aS'cl de'
p5
aS'sucre'
p6
aa(lp7
S'2.0'
p8
aS'cl de'
p9
aS'jus de citrons'
p10
aa(lp11
S'3.0'
p12
aS'cl de'
p13
aS'sirop de framboises'
p14
aa(lp15
S'10.0'
p16
aS'cl de'
p17
aS'tisane \xc3\xa0 la verveine'
p18
aaa.