(lp0
S'Hugo'
p1
aF2.9
aI59
a(lp2
(lp3
S'15.0'
p4
aS'cl de'
p5
aS'vin mousseux'
p6
aa(lp7
S'10.0'
p8
aS"cl d'"
p9
aS'eau gazeuse (perrier, salvetat)'
p10
aa(lp11
S'2.0'
p12
aS'cl de'
p13
aS'sirop de fleurs de sureau'
p14
aa(lp15
S'1.0'
p16
aS'tranche de'
p17
aS'citrons verts'
p18
aa(lp19
S'None'
p20
aS'quelques feuilles de'
p21
aS'menthe'
p22
aaa.