(lp0
S'Punch coco'
p1
aF3.3
aI299
a(lp2
(lp3
S'3.0'
p4
aS'cl de'
p5
aS'sirop de vanille'
p6
aa(lp7
S'1.0'
p8
aS'pinc\xc3\xa9e de'
p9
aS'noix de muscade r\xc3\xa2p\xc3\xa9e'
p10
aa(lp11
S'1.0'
p12
aS'pinc\xc3\xa9e de'
p13
aS'cannelle'
p14
aa(lp15
S'3.0'
p16
aS'None'
p17
aS'zestes de citron vert'
p18
aa(lp19
S'400.0'
p20
aS'grammes de'
p21
aS'lait concentr\xc3\xa9 sucr\xc3\xa9'
p22
aa(lp23
S'50.0'
p24
aS'cl de'
p25
aS'rhum blanc'
p26
aa(lp27
S'2.0'
p28
aS'None'
p29
aS'noix de coco'
p30
aaa.