(lp0
S'Apple tea'
p1
aF3.2
aI26
a(lp2
(lp3
S'0.5'
p4
aS'b\xc3\xa2ton de'
p5
aS'cannelle'
p6
aa(lp7
S'1.0'
p8
aS'cl de'
p9
aS'sirop de miel'
p10
aa(lp11
S'8.0'
p12
aS'cl de'
p13
aS'jus de pommes'
p14
aa(lp15
S'8.0'
p16
aS'cl de'
p17
aS'th\xc3\xa9'
p18
aaa.