(lp0
S'Mexican'
p1
aF3.6
aI19
a(lp2
(lp3
S'0.3'
p4
aS'volumes de'
p5
aS'gin'
p6
aa(lp7
S'0.1'
p8
aS'volumes de'
p9
aS'amaretto'
p10
aa(lp11
S'0.1'
p12
aS'volumes de'
p13
aS'porto blanc'
p14
aa(lp15
S'0.1'
p16
aS'volumes de'
p17
aS'liqueur de fraises'
p18
aa(lp19
S'0.4'
p20
aS'volumes de'
p21
aS"jus d'oranges"
p22
aaa.