(lp0
S'Woody Wood'
p1
aF2.5
aI2
a(lp2
(lp3
S'1.0'
p4
aS'cl de'
p5
aS'sirop de fraises'
p6
aa(lp7
S'5.0'
p8
aS'cl de'
p9
aS'jus de cranberry (canneberges)'
p10
aa(lp11
S'2.0'
p12
aS'cl de'
p13
aS"jus d'oranges"
p14
aa(lp15
S'4.0'
p16
aS'cl de'
p17
aS'vodka'
p18
aa(lp19
S'1.5'
p20
aS'cl de'
p21
aS'cr\xc3\xa8me de m\xc3\xbbre'
p22
aa(lp23
S'1.0'
p24
aS'cl de'
p25
aS'liqueur de bananes (pisang ambon)'
p26
aaa.