(lp0
S"L'or \xc3\xa0 boire"
p1
aF3.2
aI12
a(lp2
(lp3
S'8.0'
p4
aS'cl de'
p5
aS'limonade (soda, sprite, 7up)'
p6
aa(lp7
S'6.0'
p8
aS'cl de'
p9
aS'jus de pommes'
p10
aa(lp11
S'3.0'
p12
aS'cl de'
p13
aS'liqueur de pommes (manzana, manzanita)'
p14
aa(lp15
S'3.0'
p16
aS'cl de'
p17
aS'liqueur de coco (cocogif, malibu)'
p18
aaa.