(lp0
S'Golden tea'
p1
aF1.5
aI2
a(lp2
(lp3
S'10.0'
p4
aS'cl de'
p5
aS'cr\xc3\xa8me fra\xc3\xaeche liquide'
p6
aa(lp7
S'1.0'
p8
aS'b\xc3\xa2ton de'
p9
aS'cannelle'
p10
aa(lp11
S'5.0'
p12
aS'cl de'
p13
aS'arrack (arak)'
p14
aa(lp15
S'10.0'
p16
aS'cl de'
p17
aS'th\xc3\xa9 noir'
p18
aa(lp19
S'3.0'
p20
aS'cl de'
p21
aS'sucre'
p22
aa(lp23
S'2.0'
p24
aS"jaune d'"
p25
aS'oeufs'
p26
aaa.