(lp0
S'Melon sam'
p1
aF5.0
aI1
a(lp2
(lp3
S'3.0'
p4
aS'cl de'
p5
aS'midori'
p6
aa(lp7
S'1.5'
p8
aS'cl de'
p9
aS'vodka'
p10
aa(lp11
S'1.5'
p12
aS'cl de'
p13
aS'triple sec (cointreau, grand marnier)'
p14
aa(lp15
S'4.0'
p16
aS'cl de'
p17
aS"jus d'ananas"
p18
aa(lp19
S'6.0'
p20
aS'cl de'
p21
aS"jus d'oranges"
p22
aaa.