(lp0
S'Mimosa'
p1
aF3.2
aI124
a(lp2
(lp3
S'4.0'
p4
aS'cl de'
p5
aS'champagne'
p6
aa(lp7
S'8.0'
p8
aS'cl de'
p9
aS"jus d'oranges"
p10
aa(lp11
S'1.0'
p12
aS'cuill\xc3\xa8re \xc3\xa0 caf\xc3\xa9 de'
p13
aS'triple sec (cointreau, grand marnier)'
p14
aaa.