(lp0
S'Slippery chicken'
p1
aF3.3
aI3
a(lp2
(lp3
S'2.0'
p4
aS'cl de'
p5
aS'triple sec (cointreau, grand marnier)'
p6
aa(lp7
S'4.0'
p8
aS'cl de'
p9
aS'cr\xc3\xa8me de whisky (baileys)'
p10
aa(lp11
S'2.0'
p12
aS'cl de'
p13
aS'pur\xc3\xa9e de noix de coco'
p14
aaa.