(lp0
S'Bravo Cocktail'
p1
aF3.0
aI2
a(lp2
(lp3
S'0.5'
p4
aS'rondelle de'
p5
aS'citrons'
p6
aa(lp7
S'1.0'
p8
aS'cl de'
p9
aS'angostura bitters'
p10
aa(lp11
S'1.0'
p12
aS'cl de'
p13
aS'sirop de sucre de canne'
p14
aa(lp15
S'6.0'
p16
aS"cl d'"
p17
aS'eau-de-vie de pommes'
p18
aaa.