(lp0
S"Sirop d'anis"
p1
aF4.3
aI7
a(lp2
(lp3
S'0.0714285714286'
p4
aS"litre d'"
p5
aS'eau'
p6
aa(lp7
S'35.7142857143'
p8
aS'grammes de'
p9
aS'sucre'
p10
aa(lp11
S'2.85714285714'
p12
aS"grammes d'"
p13
aS'anis'
p14
aa(lp15
S'0.0714285714286'
p16
aS'None'
p17
aS'b\xc3\xa2tons de reglisse'
p18
aa(lp19
S'None'
p20
aS'quelques graines de'
p21
aS'fenouil'
p22
aaa.