(lp0
S'Kiwi cream'
p1
aF3.4
aI21
a(lp2
(lp3
S'10.0'
p4
aS'cl de'
p5
aS'lait'
p6
aa(lp7
S'2.0'
p8
aS'None'
p9
aS'kiwis'
p10
aa(lp11
S'3.0'
p12
aS'cl de'
p13
aS'sirop de mangue'
p14
aa(lp15
S'10.0'
p16
aS'cl de'
p17
aS'cr\xc3\xa8me fra\xc3\xaeche liquide'
p18
aaa.