(lp0
S'Baccara'
p1
aF3.7
aI16
a(lp2
(lp3
S'0.5'
p4
aS'cl de'
p5
aS'liqueur de menthe verte (get 27)'
p6
aa(lp7
S'1.0'
p8
aS'cl de'
p9
aS'cr\xc3\xa8me fra\xc3\xaeche liquide'
p10
aa(lp11
S'4.0'
p12
aS'cl de'
p13
aS'cognac'
p14
aa(lp15
S'1.5'
p16
aS'cl de'
p17
aS'batida de coco'
p18
aaa.