(lp0
S'Orange county ice tea'
p1
aF2.8
aI8
a(lp2
(lp3
S'15.0'
p4
aS'cl de'
p5
aS'th\xc3\xa9'
p6
aa(lp7
S'5.0'
p8
aS'cl de'
p9
aS'tequila'
p10
aa(lp11
S'2.5'
p12
aS'cl de'
p13
aS'sirop de framboises'
p14
aa(lp15
S'2.0'
p16
aS'cl de'
p17
aS'citrons'
p18
aaa.