(lp0
S'Tomskaia'
p1
aF3.8
aI4
a(lp2
(lp3
S'4.0'
p4
aS'cl de'
p5
aS'vodka'
p6
aa(lp7
S'1.0'
p8
aS'pinc\xc3\xa9es de'
p9
aS'sel'
p10
aa(lp11
S'1.0'
p12
aS'pinc\xc3\xa9es de'
p13
aS'poivre'
p14
aa(lp15
S'40.0'
p16
aS'grammes de'
p17
aS'tomates'
p18
aa(lp19
S'10.0'
p20
aS'grammes de'
p21
aS'citrons'
p22
aa(lp23
S'0.25'
p24
aS'grammes de'
p25
aS'basilic'
p26
aaa.