(lp0
S'Casamance'
p1
aF4.0
aI2
a(lp2
(lp3
S'0.5'
p4
aS'cl de'
p5
aS'cura\xc3\xa7ao bleu'
p6
aa(lp7
S'1.5'
p8
aS'cl de'
p9
aS'liqueur de menthe blanche (get 31)'
p10
aa(lp11
S'2.0'
p12
aS'cl de'
p13
aS'tequila'
p14
aa(lp15
S'3.0'
p16
aS'cl de'
p17
aS'liqueur de cacao blanc'
p18
aaa.