(lp0
S'Grin man'
p1
aF4.7
aI7
a(lp2
(lp3
S'0.5'
p4
aS'cl de'
p5
aS'sirop de grenadine'
p6
aa(lp7
S'3.0'
p8
aS'cl de'
p9
aS'tequila'
p10
aa(lp11
S'3.0'
p12
aS'cl de'
p13
aS'liqueur de menthe verte (get 27)'
p14
aaa.