(lp0
S'Black Forest'
p1
aF3.4
aI5
a(lp2
(lp3
S'3.0'
p4
aS'cl de'
p5
aS'vodka'
p6
aa(lp7
S'3.0'
p8
aS'cl de'
p9
aS'triple sec (cointreau, grand marnier)'
p10
aa(lp11
S'1.5'
p12
aS'cl de'
p13
aS'cr\xc3\xa8me de m\xc3\xbbre'
p14
aa(lp15
S'3.0'
p16
aS'cl de'
p17
aS'jus de pommes'
p18
aa(lp19
S'None'
p20
aS'pinc\xc3\xa9es de'
p21
aS'framboises'
p22
aaa.