(lp0
S'Aimy Ice'
p1
aF3.5
aI2
a(lp2
(lp3
S'3.0'
p4
aS'cl de'
p5
aS'liqueur de lychees (soho, litchao)'
p6
aa(lp7
S'2.0'
p8
aS'cl de'
p9
aS'liqueur de fraises'
p10
aa(lp11
S'3.0'
p12
aS'cl de'
p13
aS'jus de citrons'
p14
aa(lp15
S'1.0'
p16
aS'trait de'
p17
aS'sirop de sucre de canne'
p18
aa(lp19
S'1.0'
p20
aS'grammes de'
p21
aS'bananes en bonbons'
p22
aa(lp23
S'1.0'
p24
aS'grammes de'
p25
aS'lychees (litchis)'
p26
aa(lp27
S'0.5'
p28
aS'pinc\xc3\xa9es de'
p29
aS'sucre glace'
p30
aa(lp31
S'0.5'
p32
aS'trait de'
p33
aS'liqueur de fraises'
p34
aaa.