(lp0
S"Coulis d'ananas"
p1
aF3.8
aI6
a(lp2
(lp3
S'2.0'
p4
aS'cuill\xc3\xa8res \xc3\xa0 soupe de'
p5
aS'sucre'
p6
aa(lp7
S'1.0'
p8
aS'None'
p9
aS'anana'
p10
aa(lp11
S'1.0'
p12
aS'cuill\xc3\xa8re \xc3\xa0 soupe de'
p13
aS'rhum blanc'
p14
aaa.