(lp0
S'Campari martinique'
p1
aF4.0
aI2
a(lp2
(lp3
S'8.0'
p4
aS'cl de'
p5
aS'jus de bananes'
p6
aa(lp7
S'4.0'
p8
aS'cl de'
p9
aS"jus d'ananas"
p10
aa(lp11
S'2.0'
p12
aS'cl de'
p13
aS'angostura bitters'
p14
aa(lp15
S'2.0'
p16
aS'cl de'
p17
aS'cr\xc3\xa8me de bananes'
p18
aa(lp19
S'1.0'
p20
aS'cl de'
p21
aS'jus de citrons'
p22
aaa.