(lp0
S'Doctor Funk'
p1
aF3.3
aI33
a(lp2
(lp3
S'3.0'
p4
aS'cl de'
p5
aS'rhum cubain'
p6
aa(lp7
S'3.0'
p8
aS'cl de'
p9
aS'rhum blanc'
p10
aa(lp11
S'0.5'
p12
aS"cl d'"
p13
aS'absinthe'
p14
aa(lp15
S'5.0'
p16
aS"cl d'"
p17
aS'eau gazeuse (perrier, salvetat)'
p18
aa(lp19
S'1.0'
p20
aS'None'
p21
aS'citrons vert'
p22
aa(lp23
S'1.0'
p24
aS'cl de'
p25
aS'sirop de grenadine'
p26
aaa.