(lp0
S'Mon Amour'
p1
aF4.0
aI2
a(lp2
(lp3
S'6.0'
p4
aS'cl de'
p5
aS'jus de pamplemousses roses'
p6
aa(lp7
S'10.0'
p8
aS'cl de'
p9
aS"jus d'ananas"
p10
aa(lp11
S'3.0'
p12
aS'cl de'
p13
aS'sirop de sucre de canne'
p14
aaa.