(lp0
S'Moonlight shadow'
p1
aF4.0
aI3
a(lp2
(lp3
S'2.0'
p4
aS'cl de'
p5
aS'cr\xc3\x83\xc2\xa8me fra\xc3\x83\xc2\xaeche liquide'
p6
aa(lp7
S'2.0'
p8
aS'cl de'
p9
aS'cognac'
p10
aa(lp11
S'2.0'
p12
aS'cl de'
p13
aS'liqueur de caf\xc3\x83\xc2\xa9 (kahlua, marie brizard)'
p14
aaa.