(lp0
S"Joe l'indien"
p1
aF3.2
aI63
a(lp2
(lp3
S'2.0'
p4
aS'doses de'
p5
aS'th\xc3\xa9 \xc3\xa0 la vanille'
p6
aa(lp7
S'1.0'
p8
aS'dose de'
p9
aS'rhum blanc'
p10
aa(lp11
S'0.5'
p12
aS'cl de'
p13
aS'gin'
p14
aa(lp15
S'0.5'
p16
aS'cl de'
p17
aS'sirop de miel'
p18
aa(lp19
S'1.0'
p20
aS'goutte de'
p21
aS'tabasco'
p22
aaa.