(lp0
S'Shan Bao'
p1
aF3.5
aI4
a(lp2
(lp3
S'None'
p4
aS'None'
p5
aS'sucre'
p6
aa(lp7
S'3.0'
p8
aS'cl de'
p9
aS"jus d'oranges"
p10
aa(lp11
S'2.0'
p12
aS'cl de'
p13
aS'vin blanc'
p14
aa(lp15
S'1.5'
p16
aS'cl de'
p17
aS'cognac'
p18
aa(lp19
S'9.0'
p20
aS"cl d'"
p21
aS'infusion de th\xc3\xa9'
p22
aaa.