(lp0
S'Theorie M'
p1
aF3.8
aI11
a(lp2
(lp3
S'1.0'
p4
aS'cl de'
p5
aS'sirop de cassis'
p6
aa(lp7
S'1.0'
p8
aS'cl de'
p9
aS"jus d'oranges"
p10
aa(lp11
S'3.0'
p12
aS'cl de'
p13
aS'jus de poires'
p14
aa(lp15
S'2.0'
p16
aS'cl de'
p17
aS'triple sec (cointreau, grand marnier)'
p18
aa(lp19
S'3.0'
p20
aS'cl de'
p21
aS'rhum blanc'
p22
aaa.