(lp0
S'Gin Swizzle'
p1
aF2.5
aI2
a(lp2
(lp3
S'2.0'
p4
aS'cl de'
p5
aS'gin'
p6
aa(lp7
S'3.0'
p8
aS'cl de'
p9
aS'jus de citrons verts'
p10
aa(lp11
S'1.0'
p12
aS'cl de'
p13
aS'angostura bitters'
p14
aa(lp15
S'0.5'
p16
aS'cl de'
p17
aS'sucre'
p18
aa(lp19
S'None'
p20
aS'None'
p21
aS'eau gazeuse (perrier, salvetat)'
p22
aaa.