(lp0
S'Les yeux de Laetitia'
p1
aF4.3
aI12
a(lp2
(lp3
S'2.0'
p4
aS'cl de'
p5
aS"jus d'ananas"
p6
aa(lp7
S'2.0'
p8
aS'cl de'
p9
aS'jus de pommes'
p10
aa(lp11
S'2.0'
p12
aS'cl de'
p13
aS'liqueur de lychees (soho, litchao)'
p14
aa(lp15
S'2.0'
p16
aS'cl de'
p17
aS'liqueur de pommes (manzana, manzanita)'
p18
aa(lp19
S'4.0'
p20
aS'cl de'
p21
aS'tequila'
p22
aa(lp23
S'2.0'
p24
aS'cl de'
p25
aS"jus d'oranges"
p26
aa(lp27
S'2.0'
p28
aS'trait de'
p29
aS'cura\xc3\xa7ao bleu'
p30
aaa.