(lp0
S'Honey moon cocktail'
p1
aF3.3
aI6
a(lp2
(lp3
S'4.0'
p4
aS'cl de'
p5
aS'whisky (bourbon, whiskey)'
p6
aa(lp7
S'3.0'
p8
aS'trais de'
p9
aS"liqueur d'abricots (abricot brandy)"
p10
aa(lp11
S'3.0'
p12
aS'traits de'
p13
aS'triple sec (cointreau, grand marnier)'
p14
aa(lp15
S'None'
p16
aS"jus d'1/2"
p17
aS'citrons'
p18
aaa.