(lp0
S'Barbotage special'
p1
aF3.0
aI115
a(lp2
(lp3
S'None'
p4
aS'None'
p5
aS'champagne'
p6
aa(lp7
S'1.0'
p8
aS'cl de'
p9
aS'jus de citrons'
p10
aa(lp11
S'2.0'
p12
aS'cl de'
p13
aS"jus d'oranges"
p14
aa(lp15
S'2.0'
p16
aS'cl de'
p17
aS'cognac'
p18
aa(lp19
S'2.0'
p20
aS'cl de'
p21
aS'triple sec (cointreau, grand marnier)'
p22
aaa.