(lp0
S'Marie galante'
p1
aF3.2
aI5
a(lp2
(lp3
S'2.5'
p4
aS'cl de'
p5
aS'cr\xc3\xa8me de p\xc3\xaache'
p6
aa(lp7
S'1.5'
p8
aS'cl de'
p9
aS'jus de fruits exotiques'
p10
aa(lp11
S'1.0'
p12
aS'cl de'
p13
aS'rhum blanc'
p14
aaa.