(lp0
S'Rendez vous seduction'
p1
aF3.5
aI6
a(lp2
(lp3
S'3.0'
p4
aS'cl de'
p5
aS'vodka vanille'
p6
aa(lp7
S'1.0'
p8
aS'cl de'
p9
aS'liqueur de pommes (manzana, manzanita)'
p10
aa(lp11
S'3.0'
p12
aS'cl de'
p13
aS"jus d'oranges sanguines"
p14
aaa.