(lp0
S'Sirop de poire'
p1
aF3.0
aI11
a(lp2
(lp3
S'20.0'
p4
aS'grammes de'
p5
aS'sucre'
p6
aa(lp7
S'0.3'
p8
aS"cuill\xc3\xa8r\xc3\xa9es d'"
p9
aS'eau'
p10
aa(lp11
S'0.6'
p12
aS'None'
p13
aS'poires'
p14
aaa.