(lp0
S'One minute'
p1
aF3.0
aI2
a(lp2
(lp3
S'1.0'
p4
aS'cuill\xc3\xa8re de'
p5
aS'sirop de sucre de canne'
p6
aa(lp7
S'1.0'
p8
aS'cl de'
p9
aS"jus d'oranges"
p10
aa(lp11
S'None'
p12
aS'3 zestes de'
p13
aS'citrons verts'
p14
aa(lp15
S'4.0'
p16
aS'cl de'
p17
aS'liqueur de citron vert'
p18
aaa.