(lp0
S'Marchand de vin'
p1
aF4.0
aI6
a(lp2
(lp3
S'1.0'
p4
aS'cl de'
p5
aS'sirop de citrons'
p6
aa(lp7
S'3.0'
p8
aS'cl de'
p9
aS'vin blanc'
p10
aa(lp11
S'None'
p12
aS'None'
p13
aS'bi\xc3\xa8re'
p14
aaa.