(lp0
S'Caf\xc3\xa9 frapp\xc3\xa9'
p1
aF3.0
aI115
a(lp2
(lp3
S'15.0'
p4
aS'cl de'
p5
aS'caf\xc3\xa9'
p6
aa(lp7
S'2.0'
p8
aS'cuill\xc3\xa8res en poudre de'
p9
aS'sucre'
p10
aa(lp11
S'30.0'
p12
aS'cl de'
p13
aS'lait'
p14
aaa.