(lp0
S'Vin de prunes'
p1
aF3.3
aI12
a(lp2
(lp3
S'10.0'
p4
aS'kilos de'
p5
aS'prunes'
p6
aa(lp7
S'2.0'
p8
aS'kilos de'
p9
aS'sucre'
p10
aa(lp11
S'4.0'
p12
aS"litres d'"
p13
aS'eau'
p14
aa(lp15
S'5.0'
p16
aS'grammes de'
p17
aS'levure de bi\xc3\xa8re'
p18
aaa.