(lp0
S'Vin de Pissenlit'
p1
aF3.2
aI123
a(lp2
(lp3
S'25.0'
p4
aS'grammes de'
p5
aS'sucre'
p6
aa(lp7
S'0.05'
p8
aS'None'
p9
aS'citron'
p10
aa(lp11
S'0.1'
p12
aS'None'
p13
aS'oranges'
p14
aa(lp15
S'0.075'
p16
aS"litre d'"
p17
aS'eau'
p18
aa(lp19
S'0.05'
p20
aS'kilo de'
p21
aS'fleurs de pissenlit'
p22
aaa.