(lp0
S'Mojito Imp\xc3\xa9rial \xc3\xa0 La Fran\xc3\xa7aise'
p1
aF3.0
aI2
a(lp2
(lp3
S'8.0'
p4
aS'feuilles de'
p5
aS'menthe'
p6
aa(lp7
S'3.0'
p8
aS'cl de'
p9
aS'jus de citrons verts'
p10
aa(lp11
S'2.0'
p12
aS'cl de'
p13
aS'sirop de sucre de canne'
p14
aa(lp15
S'4.0'
p16
aS'cl de'
p17
aS'rhum blanc'
p18
aa(lp19
S'2.0'
p20
aS"cl d'"
p21
aS'eau gazeuse (perrier, salvetat)'
p22
aa(lp23
S'4.0'
p24
aS'cl de'
p25
aS'saint raphael rouge'
p26
aaa.