(lp0
S'Vanila Milk shake'
p1
aF4.0
aI1
a(lp2
(lp3
S'20.0'
p4
aS'cl de'
p5
aS'lait'
p6
aa(lp7
S'2.0'
p8
aS'cuill\xc3\xa8res \xc3\xa0 caf\xc3\xa9 de'
p9
aS'sucre'
p10
aa(lp11
S'250.0'
p12
aS'grammes de'
p13
aS'sorbet \xc3\xa0 la vanille'
p14
aaa.