(lp0
S'Massachussets Club Fever'
p1
aF3.7
aI3
a(lp2
(lp3
S'3.0'
p4
aS'cl de'
p5
aS'tequila'
p6
aa(lp7
S'0.5'
p8
aS'cl de'
p9
aS'jus de citrons'
p10
aa(lp11
S'6.0'
p12
aS'cl de'
p13
aS'cr\xc3\xa8me de cassis'
p14
aaa.