(lp0
S'Coulis de groseilles'
p1
aF3.2
aI41
a(lp2
(lp3
S'1.0'
p4
aS'kilo de'
p5
aS'groseilles'
p6
aa(lp7
S'90.0'
p8
aS'grammes de'
p9
aS'sucre'
p10
aa(lp11
S'15.0'
p12
aS'cl de'
p13
aS'cr\xc3\xa8me fra\xc3\xaeche liquide'
p14
aaa.