(lp0
S'Hot buttered rhum'
p1
aF3.0
aI1
a(lp2
(lp3
S'1.0'
p4
aS'None'
p5
aS'clous de girofle'
p6
aa(lp7
S'1.0'
p8
aS'morceau de'
p9
aS'sucre'
p10
aa(lp11
S'6.0'
p12
aS'cl de'
p13
aS'rhum ambr\xc3\xa9'
p14
aaa.