(lp0
S'Iced mint'
p1
aF3.0
aI6
a(lp2
(lp3
S'2.0'
p4
aS'cl de'
p5
aS'citrons verts'
p6
aa(lp7
S'4.0'
p8
aS'cl de'
p9
aS'sirop de menthe'
p10
aa(lp11
S'10.0'
p12
aS'cl de'
p13
aS'th\xc3\xa9 \xc3\xa0 la menthe'
p14
aaa.