(lp0
S'Amaretto Sour Jello Shot'
p1
aF3.6
aI54
a(lp2
(lp3
S'16.0'
p4
aS"cl d'"
p5
aS'eau'
p6
aa(lp7
S'10.0'
p8
aS"cl d'"
p9
aS'amaretto'
p10
aa(lp11
S'2.0'
p12
aS'cl de'
p13
aS'jus de citrons'
p14
aa(lp15
S'2.0'
p16
aS'grammes de'
p17
aS'g\xc3\xa9latine en poudre'
p18
aaa.