(lp0
S'Abbey'
p1
aF3.7
aI6
a(lp2
(lp3
S'2.0'
p4
aS'cl de'
p5
aS'gin'
p6
aa(lp7
S'2.0'
p8
aS'cl de'
p9
aS'vermouth rouge (martini, cinzano)'
p10
aa(lp11
S'2.0'
p12
aS'cl de'
p13
aS"jus d'oranges"
p14
aa(lp15
S'1.0'
p16
aS'trait de'
p17
aS'angostura bitters'
p18
aaa.