(lp0
S'Passion erotique'
p1
aF2.0
aI10
a(lp2
(lp3
S'6.0'
p4
aS'cl de'
p5
aS'vodka cranberry'
p6
aa(lp7
S'4.0'
p8
aS'cl de'
p9
aS'liqueur de gingembre'
p10
aa(lp11
S'2.0'
p12
aS'cl de'
p13
aS'gloss de suze'
p14
aa(lp15
S'5.0'
p16
aS'cl de'
p17
aS'jus de fruit de la passion (maracuja)'
p18
aa(lp19
S'5.0'
p20
aS'cl de'
p21
aS'jus de cranberry (canneberges)'
p22
aaa.