(lp0
S'Grog aux airelles'
p1
aF3.0
aI3
a(lp2
(lp3
S'2.0'
p4
aS'morceaux de'
p5
aS'sucre'
p6
aa(lp7
S'3.0'
p8
aS'cl de'
p9
aS'airelles cuites'
p10
aa(lp11
S'10.0'
p12
aS'cl de'
p13
aS'eau'
p14
aa(lp15
S'10.0'
p16
aS'cl de'
p17
aS'whisky (bourbon, whiskey)'
p18
aa(lp19
S'10.0'
p20
aS'cl de'
p21
aS'jus de cranberry (canneberges)'
p22
aaa.