(lp0
S'Sangria Beauquesnoise'
p1
aF2.9
aI34
a(lp2
(lp3
S'6.0'
p4
aS'litre de'
p5
aS'vin blanc'
p6
aa(lp7
S'1200.0'
p8
aS'grammes de'
p9
aS'kiwis'
p10
aa(lp11
S'750.0'
p12
aS'grammes de'
p13
aS'ananas'
p14
aa(lp15
S'500.0'
p16
aS'grammes de'
p17
aS'ananas au sirop'
p18
aa(lp19
S'500.0'
p20
aS'grammes de'
p21
aS'mangues'
p22
aa(lp23
S'40.0'
p24
aS'cl de'
p25
aS'rhum blanc'
p26
aa(lp27
S'15.0'
p28
aS'pinc\xc3\xa9es de'
p29
aS'menthe'
p30
aaa.