(lp0
S'Blue Web'
p1
aF3.7
aI13
a(lp2
(lp3
S'1.0'
p4
aS'cl de'
p5
aS'cura\xc3\xa7ao bleu'
p6
aa(lp7
S'4.0'
p8
aS'cl de'
p9
aS'liqueur de pommes (manzana, manzanita)'
p10
aa(lp11
S'1.0'
p12
aS'cl de'
p13
aS'jus de citrons'
p14
aa(lp15
S'5.0'
p16
aS'cl de'
p17
aS"jus d'ananas"
p18
aaa.