(lp0
S"Guido's"
p1
aF4.0
aI3
a(lp2
(lp3
S'0.75'
p4
aS"d'"
p5
aS'amaretto'
p6
aa(lp7
S'0.25'
p8
aS'de'
p9
aS"liqueur d'abricots (abricot brandy)"
p10
aa(lp11
S'4.0'
p12
aS'gouttes de'
p13
aS'boonekamp'
p14
aaa.