(lp0
S'Suze Gimlet'
p1
aF2.6
aI13
a(lp2
(lp3
S'6.0'
p4
aS'cl de'
p5
aS'liqueur de gentiane'
p6
aa(lp7
S'2.0'
p8
aS'cl de'
p9
aS'jus de citrons verts'
p10
aa(lp11
S'2.0'
p12
aS'cl de'
p13
aS'jus de citrons'
p14
aaa.