(lp0
S'Cr\xc3\xa8me de baileys'
p1
aF3.5
aI62
a(lp2
(lp3
S'30.0'
p4
aS'cl de'
p5
aS'lait concentr\xc3\xa9 sucr\xc3\xa9'
p6
aa(lp7
S'30.0'
p8
aS'cl de'
p9
aS'whisky (bourbon, whiskey)'
p10
aa(lp11
S'25.0'
p12
aS'cl de'
p13
aS'cr\xc3\xa8me fra\xc3\xaeche liquide'
p14
aa(lp15
S'3.0'
p16
aS"Jaunes d'"
p17
aS'oeufs'
p18
aa(lp19
S'1.5'
p20
aS'cl de'
p21
aS'sirop de chocolat'
p22
aaa.