(lp0
S'Rhum raisin'
p1
aF3.1
aI45
a(lp2
(lp3
S'100.0'
p4
aS'cl de'
p5
aS'rhum blanc'
p6
aa(lp7
S'200.0'
p8
aS'grammes de'
p9
aS'raisins secs'
p10
aa(lp11
S'2.0'
p12
aS'gousses de'
p13
aS'vanille'
p14
aaa.