(lp0
S'Miami'
p1
aF3.6
aI38
a(lp2
(lp3
S'10.0'
p4
aS'cl de'
p5
aS"jus d'oranges"
p6
aa(lp7
S'2.0'
p8
aS'cuill\xc3\xa8res \xc3\xa0 soupe  de'
p9
aS'sirop de miel'
p10
aa(lp11
S'300.0'
p12
aS'grammes de'
p13
aS'fromage frais'
p14
aa(lp15
S'1.0'
p16
aS'None'
p17
aS'banane'
p18
aa(lp19
S'1.0'
p20
aS'None'
p21
aS'citron'
p22
aaa.