(lp0
S'Caf\xc3\xa9 espagnol (Spanish coffee)'
p1
aF3.4
aI119
a(lp2
(lp3
S'1.0'
p4
aS'cl de'
p5
aS'triple sec (cointreau, grand marnier)'
p6
aa(lp7
S'1.0'
p8
aS'cl de'
p9
aS'rhum blanc'
p10
aa(lp11
S'1.0'
p12
aS'cl de'
p13
aS'liqueur de caf\xc3\xa9 (kahlua, marie brizard)'
p14
aa(lp15
S'None'
p16
aS'None'
p17
aS'caf\xc3\xa9'
p18
aa(lp19
S'None'
p20
aS'None'
p21
aS'sucre'
p22
aa(lp23
S'None'
p24
aS'None'
p25
aS'cr\xc3\xa8me fra\xc3\xaeche liquide'
p26
aaa.