(lp0
S'Dubonnet cocktail'
p1
aF3.0
aI5
a(lp2
(lp3
S'4.0'
p4
aS'cl de'
p5
aS'dubonnet rouge'
p6
aa(lp7
S'1.0'
p8
aS'cl de'
p9
aS'gin'
p10
aa(lp11
S'0.5'
p12
aS'cl de'
p13
aS'angostura bitters'
p14
aaa.