(lp0
S'Caf\xc3\xa9 Imp\xc3\xa9rial'
p1
aF3.3
aI25
a(lp2
(lp3
S'1.0'
p4
aS'morceau de'
p5
aS'sucre'
p6
aa(lp7
S'4.0'
p8
aS'cl de'
p9
aS'cr\xc3\xa8me de whisky (baileys)'
p10
aa(lp11
S'1.0'
p12
aS'cl de'
p13
aS'liqueur mandarine napol\xc3\xa9on'
p14
aa(lp15
S'4.0'
p16
aS'cl de'
p17
aS'caf\xc3\xa9'
p18
aaa.