(lp0
S'Cervelle de Singe 2'
p1
aF3.3
aI183
a(lp2
(lp3
S'1.0'
p4
aS' Trait de'
p5
aS'sirop de grenadine'
p6
aa(lp7
S'2.0'
p8
aS'cl de'
p9
aS'cr\xc3\xa8me de whisky (baileys)'
p10
aa(lp11
S'0.5'
p12
aS'cl de'
p13
aS'rhum blanc'
p14
aa(lp15
S'0.5'
p16
aS'cl de'
p17
aS'gin'
p18
aa(lp19
S'0.5'
p20
aS'cl de'
p21
aS'tequila'
p22
aaa.