(lp0
S'Debutante'
p1
aF3.4
aI16
a(lp2
(lp3
S'5.0'
p4
aS'cl de'
p5
aS'tequila'
p6
aa(lp7
S'4.0'
p8
aS'cl de'
p9
aS'cr\xc3\xa8me de p\xc3\xaache'
p10
aa(lp11
S'1.0'
p12
aS'cl de'
p13
aS'liqueur de menthe blanche (get 31)'
p14
aa(lp15
S'0.5'
p16
aS'cl de'
p17
aS'jus de citrons'
p18
aaa.