(lp0
S"The july's"
p1
aF5.0
aI2
a(lp2
(lp3
S'0.5'
p4
aS'cl de'
p5
aS'cr\xc3\xa8me fra\xc3\xaeche liquide'
p6
aa(lp7
S'0.5'
p8
aS'cl de'
p9
aS'sirop de grenadine'
p10
aa(lp11
S'1.5'
p12
aS'cl de'
p13
aS'liqueur de coco (cocogif, malibu)'
p14
aa(lp15
S'1.5'
p16
aS'cl de'
p17
aS'liqueur de gentiane'
p18
aa(lp19
S'3.0'
p20
aS'cl de'
p21
aS'gin'
p22
aaa.