(lp0
S'Rhum aux \xc3\xa9pices'
p1
aF3.1
aI60
a(lp2
(lp3
S'15.0'
p4
aS'cl de'
p5
aS'sirop de cannelle'
p6
aa(lp7
S'2.0'
p8
aS'litres de'
p9
aS'rhum blanc'
p10
aa(lp11
S'10.0'
p12
aS'None'
p13
aS'clous de girofle'
p14
aa(lp15
S'5.0'
p16
aS'cl de'
p17
aS'sirop de gingembre'
p18
aa(lp19
S'5.0'
p20
aS'grains de'
p21
aS'bibasse (bibas)'
p22
aa(lp23
S'10.0'
p24
aS'grains de'
p25
aS'poivre'
p26
aa(lp27
S'0.25'
p28
aS'de'
p29
aS'noix de muscade r\xc3\xa2p\xc3\xa9e'
p30
aa(lp31
S'2.0'
p32
aS'None'
p33
aS'gousses de vanille'
p34
aa(lp35
S'5.0'
p36
aS'cuill\xc3\xa8res \xc3\xa0 caf\xc3\xa9 de'
p37
aS'sucre roux (cassonade)'
p38
aaa.