(lp0
S'Coucher de soleil 2'
p1
aF3.8
aI5
a(lp2
(lp3
S'6.0'
p4
aS'cl de'
p5
aS'sour puss'
p6
aa(lp7
S'3.0'
p8
aS'cl de'
p9
aS'schnapps \xc3\xa0 la p\xc3\xaache'
p10
aa(lp11
S'9.0'
p12
aS'cl de'
p13
aS"jus d'oranges"
p14
aa(lp15
S'1.0'
p16
aS'trait de'
p17
aS'sirop de grenadine'
p18
aaa.