(lp0
S'Gin Smash'
p1
aF3.0
aI5
a(lp2
(lp3
S'4.0'
p4
aS'cl de'
p5
aS'gin'
p6
aa(lp7
S'1.0'
p8
aS'cl de'
p9
aS'vermouth blanc (martini, cinzano)'
p10
aa(lp11
S'1.0'
p12
aS'cl de'
p13
aS'sirop de sucre de canne'
p14
aa(lp15
S'4.0'
p16
aS'feuilles de'
p17
aS'menthe'
p18
aa(lp19
S'None'
p20
aS'None'
p21
aS'eau gazeuse (perrier, salvetat)'
p22
aaa.