(lp0
S'Rainbow Shot'
p1
aF3.0
aI124
a(lp2
(lp3
S'10.0'
p4
aS'cl de'
p5
aS"jus d'ananas"
p6
aa(lp7
S'3.0'
p8
aS'cl de'
p9
aS'gin'
p10
aa(lp11
S'3.0'
p12
aS'cl de'
p13
aS'sirop de framboises'
p14
aa(lp15
S'4.0'
p16
aS'cl de'
p17
aS'cura\xc3\xa7ao bleu'
p18
aaa.