(lp0
S'Hab Hallegro'
p1
aF4.0
aI1
a(lp2
(lp3
S'2.0'
p4
aS'cuill\xc3\xa8res \xc3\xa0 soupe'
p5
aS'racines de bourdaine'
p6
aa(lp7
S'2.0'
p8
aS'cuill\xc3\xa8res \xc3\xa0 soupe'
p9
aS'racines de chiendent'
p10
aa(lp11
S'2.0'
p12
aS'cuill\xc3\xa8res \xc3\xa0 soupe'
p13
aS'varech-v\xc3\xa9siculeux'
p14
aa(lp15
S'2.0'
p16
aS'cuill\xc3\xa8res \xc3\xa0 soupe'
p17
aS'fleurs de sauge'
p18
aa(lp19
S'4.0'
p20
aS'cuill\xc3\xa8res \xc3\xa0 soupe'
p21
aS'fleurs de reine des pr\xc3\xa9s'
p22
aa(lp23
S'4.0'
p24
aS'cuill\xc3\xa8res \xc3\xa0 soupe'
p25
aS'romarin'
p26
aa(lp27
S'4.0'
p28
aS'cuill\xc3\xa8res \xc3\xa0 soupe'
p29
aS'feuilles ou racines de saponaire'
p30
aaa.