(lp0
S'Varen\xc3\xa9 vino'
p1
aF3.0
aI2
a(lp2
(lp3
S'0.1'
p4
aS'bouteilles de'
p5
aS'vin rouge'
p6
aa(lp7
S'0.05'
p8
aS'None'
p9
aS'gousses de vanille'
p10
aa(lp11
S'5.0'
p12
aS'grammes de'
p13
aS'sucre'
p14
aa(lp15
S'0.1'
p16
aS'b\xc3\xa2tons de'
p17
aS'cannelle'
p18
aa(lp19
S'0.3'
p20
aS'None'
p21
aS'clous de girofle'
p22
aa(lp23
S'0.05'
p24
aS'None'
p25
aS'orange'
p26
aa(lp27
S'0.1'
p28
aS'None'
p29
aS'feuilles de laurier'
p30
aa(lp31
S'0.05'
p32
aS'None'
p33
aS'piment rouge'
p34
aa(lp35
S'0.05'
p36
aS'None'
p37
aS'\xc3\xa9toiles de badiane'
p38
aaa.