(lp0
S'Caipiviola'
p1
aF2.9
aI19
a(lp2
(lp3
S'4.0'
p4
aS'cl de'
p5
aS'vodka'
p6
aa(lp7
S'2.0'
p8
aS'cl de'
p9
aS'sirop de violette'
p10
aa(lp11
S'1.0'
p12
aS'cuill\xc3\xa8re de'
p13
aS'sirop de sucre de canne'
p14
aaa.