(lp0
S'Cucumber and Basil Martini'
p1
aF3.3
aI14
a(lp2
(lp3
S'1.0'
p4
aS'rondelle de'
p5
aS'concombres'
p6
aa(lp7
S'2.0'
p8
aS'cl de'
p9
aS'jus de citrons'
p10
aa(lp11
S'2.0'
p12
aS'cl de'
p13
aS'vermouth blanc (martini, cinzano)'
p14
aa(lp15
S'6.0'
p16
aS'cl de'
p17
aS'vodka'
p18
aa(lp19
S'3.0'
p20
aS'feuilles de'
p21
aS'basilic'
p22
aa(lp23
S'1.0'
p24
aS'cl de'
p25
aS'sirop de fleurs de sureau'
p26
aaa.