(lp0
S'Menostop'
p1
aF3.0
aI2
a(lp2
(lp3
S'3.0'
p4
aS'cuill\xc3\xa8res \xc3\xa0 soupe'
p5
aS'fleurs de camomille'
p6
aa(lp7
S'3.0'
p8
aS'cuill\xc3\xa8res \xc3\xa0 soupe'
p9
aS"fleurs d'aub\xc3\xa9pine"
p10
aa(lp11
S'3.0'
p12
aS'cuill\xc3\xa8res \xc3\xa0 soupe'
p13
aS'millefeuille'
p14
aa(lp15
S'4.0'
p16
aS'cuill\xc3\xa8res \xc3\xa0 soupe'
p17
aS'alch\xc3\xa9mille'
p18
aa(lp19
S'4.0'
p20
aS'cuill\xc3\xa8res \xc3\xa0 soupe'
p21
aS'feuilles de sauge'
p22
aa(lp23
S'4.0'
p24
aS'cuill\xc3\xa8res \xc3\xa0 soupe'
p25
aS'fleurs de melisse'
p26
aa(lp27
S'5.0'
p28
aS'cuill\xc3\xa8res \xc3\xa0 soupe'
p29
aS'feuilles de romarin'
p30
aaa.