(lp0
S'Sirop de pina colada'
p1
aF4.0
aI2
a(lp2
(lp3
S'2.0'
p4
aS'None'
p5
aS'ananas'
p6
aa(lp7
S'800.0'
p8
aS'grammes de'
p9
aS'sucre'
p10
aa(lp11
S'300.0'
p12
aS'grammes de'
p13
aS'noix de coco r\xc3\xa2p\xc3\xa9e'
p14
aaa.