(lp0
S'Tiger Lillet'
p1
aF3.8
aI8
a(lp2
(lp3
S'0.333333333333'
p4
aS'de'
p5
aS'lillet blanc'
p6
aa(lp7
S'0.333333333333'
p8
aS'de'
p9
aS'van der hum'
p10
aa(lp11
S'0.166666666667'
p12
aS'de'
p13
aS'vermouth blanc (martini, cinzano)'
p14
aa(lp15
S'0.166666666667'
p16
aS'de'
p17
aS'marasquin'
p18
aa(lp19
S'1.0'
p20
aS"zeste d'"
p21
aS'oranges'
p22
aaa.