(lp0
S'Liqueur de griotte'
p1
aF2.7
aI9
a(lp2
(lp3
S'0.25'
p4
aS"litre d'"
p5
aS'eau'
p6
aa(lp7
S'175.0'
p8
aS'grammes de'
p9
aS'sucre'
p10
aa(lp11
S'0.5'
p12
aS"litre d'"
p13
aS'eau-de-vie'
p14
aa(lp15
S'500.0'
p16
aS'grammes de'
p17
aS'cerises griottes'
p18
aaa.