(lp0
S'Western Russian'
p1
aF2.0
aI1
a(lp2
(lp3
S'0.5'
p4
aS"cl d'"
p5
aS'angostura bitters'
p6
aa(lp7
S'3.0'
p8
aS'cl de'
p9
aS'cr\xc3\xa8me de whisky (baileys)'
p10
aa(lp11
S'6.0'
p12
aS'cl de'
p13
aS'triple sec (cointreau, grand marnier)'
p14
aa(lp15
S'6.0'
p16
aS'cl de'
p17
aS'vodka'
p18
aaa.