(lp0
S'Picoyann'
p1
aF3.0
aI2
a(lp2
(lp3
S'2.0'
p4
aS'cl de'
p5
aS'vodka'
p6
aa(lp7
S'2.0'
p8
aS'cl de'
p9
aS'cr\xc3\xa8me de whisky (baileys)'
p10
aa(lp11
S'2.0'
p12
aS'cl de'
p13
aS'chartreuse verte'
p14
aa(lp15
S'None'
p16
aS'cl de'
p17
aS'cr\xc3\xa8me chantilly'
p18
aaa.