(lp0
S'Devil cocktail'
p1
aF3.0
aI1
a(lp2
(lp3
S'1.0'
p4
aS'pinc\xc3\xa9e de'
p5
aS'poivre de cayenne'
p6
aa(lp7
S'3.0'
p8
aS'cl de'
p9
aS'marasquin'
p10
aa(lp11
S'0.5'
p12
aS'cl de'
p13
aS'peppermint'
p14
aa(lp15
S'0.5'
p16
aS'cl de'
p17
aS'cura\xc3\xa7ao bleu'
p18
aaa.