(lp0
S'Brandy shrub'
p1
aF4.3
aI3
a(lp2
(lp3
S'1.0'
p4
aS'bouteille de'
p5
aS'x\xc3\xa9r\xc3\xa8s (sherry)'
p6
aa(lp7
S'2.0'
p8
aS'bouteilles de'
p9
aS'cognac'
p10
aa(lp11
S'5.0'
p12
aS'None'
p13
aS'citrons'
p14
aaa.