(lp0
S'Northern queen'
p1
aF3.3
aI3
a(lp2
(lp3
S'2.0'
p4
aS'cl de'
p5
aS'tequila'
p6
aa(lp7
S'1.5'
p8
aS'cl de'
p9
aS'cura\xc3\xa7ao bleu'
p10
aa(lp11
S'1.5'
p12
aS'cl de'
p13
aS'liqueur de coco (cocogif, malibu)'
p14
aa(lp15
S'2.0'
p16
aS'cl de'
p17
aS'jus de pamplemousses'
p18
aaa.