(lp0
S'Xmas'
p1
aF3.1
aI21
a(lp2
(lp3
S'9.0'
p4
aS'cl de'
p5
aS'vin blanc'
p6
aa(lp7
S'2.0'
p8
aS'cl de'
p9
aS'sirop de figues'
p10
aa(lp11
S'1.0'
p12
aS'cl de'
p13
aS"sirop de pain d'\xc3\xa9pices"
p14
aaa.