(lp0
S'Electric Jello'
p1
aF3.2
aI83
a(lp2
(lp3
S'1.0'
p4
aS'cl de'
p5
aS'vodka'
p6
aa(lp7
S'2.0'
p8
aS"cl d'"
p9
aS'eau'
p10
aa(lp11
S'0.5'
p12
aS'grammes de'
p13
aS'g\xc3\xa9latine en poudre'
p14
aa(lp15
S'1.0'
p16
aS'cl de'
p17
aS'cura\xc3\xa7ao bleu'
p18
aaa.