(lp0
S'Acapulco golden'
p1
aF3.1
aI199
a(lp2
(lp3
S'1.0'
p4
aS'mesure de'
p5
aS'tequila'
p6
aa(lp7
S'1.0'
p8
aS'mesure de'
p9
aS'rhum blanc'
p10
aa(lp11
S'2.0'
p12
aS'mesures de'
p13
aS"jus d'ananas"
p14
aa(lp15
S'2.0'
p16
aS'mesures de'
p17
aS'jus de pamplemousses'
p18
aaa.