(lp0
S'Fair Weather'
p1
aF3.3
aI3
a(lp2
(lp3
S'4.0'
p4
aS'cl de'
p5
aS'cognac'
p6
aa(lp7
S'2.0'
p8
aS"cl d'"
p9
aS'armagnac'
p10
aa(lp11
S'0.5'
p12
aS'cl de'
p13
aS'angostura bitters'
p14
aa(lp15
S'1.0'
p16
aS'cl de'
p17
aS'angostura bitters'
p18
aaa.