(lp0
S'Alesia'
p1
aF3.8
aI13
a(lp2
(lp3
S'4.0'
p4
aS'cl de'
p5
aS'jus de bananes'
p6
aa(lp7
S'3.0'
p8
aS'cl de'
p9
aS'liqueur de lychees (soho, litchao)'
p10
aa(lp11
S'2.0'
p12
aS'cl de'
p13
aS'rhum blanc'
p14
aa(lp15
S'2.0'
p16
aS'cl de'
p17
aS'sirop de framboises'
p18
aa(lp19
S'0.5'
p20
aS'cl de'
p21
aS'liqueur de poire'
p22
aaa.