(lp0
S"Sabre d'or"
p1
aF3.5
aI2
a(lp2
(lp3
S'0.4'
p4
aS'de'
p5
aS'sak\xc3\xa9 (alcool de riz)'
p6
aa(lp7
S'0.1'
p8
aS'de'
p9
aS'whisky (bourbon, whiskey)'
p10
aa(lp11
S'0.5'
p12
aS'de'
p13
aS"jus d'ananas"
p14
aa(lp15
S'0.5'
p16
aS'cl de'
p17
aS'rhum ambr\xc3\xa9'
p18
aa(lp19
S'0.5'
p20
aS'cl de'
p21
aS"sirop d'orgeat"
p22
aaa.