(lp0
S'Meliflea'
p1
aF3.6
aI35
a(lp2
(lp3
S'1.0'
p4
aS'cl de'
p5
aS'jus de citrons verts'
p6
aa(lp7
S'1.0'
p8
aS'cl de'
p9
aS"liqueur d'abricots (abricot brandy)"
p10
aa(lp11
S'4.0'
p12
aS'cl de'
p13
aS'porto blanc'
p14
aa(lp15
S'1.0'
p16
aS'cl de'
p17
aS'gin'
p18
aaa.