(lp0
S'Malibu salsa'
p1
aF3.0
aI3
a(lp2
(lp3
S'1.0'
p4
aS'cl de'
p5
aS'cr\xc3\xa8me de fruit de la passion'
p6
aa(lp7
S'8.0'
p8
aS'cl de'
p9
aS"jus d'ananas"
p10
aa(lp11
S'4.0'
p12
aS'cl de'
p13
aS'gin'
p14
aa(lp15
S'4.0'
p16
aS'cl de'
p17
aS'liqueur de coco (cocogif, malibu)'
p18
aaa.