(lp0
S'Cointreaupolitan Caviar'
p1
aF3.1
aI22
a(lp2
(lp3
S'4.0'
p4
aS'cl de'
p5
aS'triple sec (cointreau, grand marnier)'
p6
aa(lp7
S'3.0'
p8
aS'cl de'
p9
aS'jus de cranberry (canneberges)'
p10
aa(lp11
S'2.0'
p12
aS'cl de'
p13
aS'jus de citrons'
p14
aa(lp15
S'0.5'
p16
aS"cuill\xc3\xa8re \xc3\xa0 caf\xc3\xa9 d'"
p17
aS'alginate de sodium'
p18
aa(lp19
S'15.0'
p20
aS'grammes de'
p21
aS'lactate de calcium'
p22
aa(lp23
S'20.0'
p24
aS'cl de'
p25
aS'triple sec (cointreau, grand marnier)'
p26
aaa.