(lp0
S'Cup aux p\xc3\xaaches'
p1
aF4.0
aI1
a(lp2
(lp3
S'15.0'
p4
aS'cl de'
p5
aS'lait'
p6
aa(lp7
S'1.0'
p8
aS'None'
p9
aS'p\xc3\xaache'
p10
aa(lp11
S'1.0'
p12
aS'cl de'
p13
aS'sucre'
p14
aa(lp15
S'0.5'
p16
aS'cl de'
p17
aS'liqueur de framboises'
p18
aaa.