(lp0
S'Mentha stream'
p1
aF3.3
aI4
a(lp2
(lp3
S'5.0'
p4
aS'cl de'
p5
aS'liqueur de menthe blanche (get 31)'
p6
aa(lp7
S'1.0'
p8
aS'cl de'
p9
aS'cacha\xc3\xa7a'
p10
aa(lp11
S'0.5'
p12
aS'cl de'
p13
aS'cura\xc3\xa7ao bleu'
p14
aaa.