(lp0
S'Turriculae (vin sal\xc3\xa9)'
p1
aF2.7
aI3
a(lp2
(lp3
S'1.0'
p4
aS'poign\xc3\xa9e de '
p5
aS'baies de geni\xc3\xa8vre'
p6
aa(lp7
S'10.0'
p8
aS'grains de '
p9
aS'poivre'
p10
aa(lp11
S'0.5'
p12
aS'branche de '
p13
aS'fenouil'
p14
aa(lp15
S'0.5'
p16
aS"litre d'"
p17
aS'eau de mer'
p18
aa(lp19
S'1.0'
p20
aS'poign\xc3\xa9e de'
p21
aS"fleur d'iris"
p22
aa(lp23
S'3.0'
p24
aS'litres de'
p25
aS'vin blanc'
p26
aaa.