(lp0
S"Sirop d'absinthe"
p1
aF3.5
aI39
a(lp2
(lp3
S'100.0'
p4
aS"grammes d'"
p5
aS'absinthe fleurie'
p6
aa(lp7
S'1.0'
p8
aS'kilo de'
p9
aS'sucre'
p10
aa(lp11
S'1.0'
p12
aS"litre d'"
p13
aS'eau'
p14
aaa.