(lp0
S'Delice de france'
p1
aF3.1
aI62
a(lp2
(lp3
S'0.333333333333'
p4
aS'de'
p5
aS'cura\xc3\xa7ao bleu'
p6
aa(lp7
S'0.5'
p8
aS'cl de'
p9
aS'vodka'
p10
aa(lp11
S'0.333333333333'
p12
aS'de'
p13
aS'cr\xc3\xa8me fra\xc3\xaeche liquide'
p14
aa(lp15
S'0.333333333333'
p16
aS'de'
p17
aS'campari'
p18
aaa.