(lp0
S'Da\xc3\xafquiri Fruit\xc3\xa9'
p1
aF3.4
aI5
a(lp2
(lp3
S'5.0'
p4
aS'cl de'
p5
aS'rhum blanc'
p6
aa(lp7
S'3.0'
p8
aS'cl de'
p9
aS'jus de citrons'
p10
aa(lp11
S'1.0'
p12
aS'cl de'
p13
aS'sirop de sucre de canne'
p14
aa(lp15
S'1.0'
p16
aS'cl de'
p17
aS'sirop de fruit de la passion (maracuja)'
p18
aaa.