(lp0
S'Prune shake'
p1
aF3.0
aI5
a(lp2
(lp3
S'15.0'
p4
aS'cl de'
p5
aS'jus de prunes'
p6
aa(lp7
S'10.0'
p8
aS'cl de'
p9
aS"jus d'oranges"
p10
aa(lp11
S'2.0'
p12
aS'boules de'
p13
aS'sorbet \xc3\xa0 la vanille'
p14
aaa.