(lp0
S'Viva italia'
p1
aF3.6
aI5
a(lp2
(lp3
S'4.0'
p4
aS'cl de'
p5
aS'jus de pamplemousses'
p6
aa(lp7
S'3.0'
p8
aS'cl de'
p9
aS'vodka'
p10
aa(lp11
S'2.0'
p12
aS'cl de'
p13
aS'liqueur de bananes (pisang ambon)'
p14
aa(lp15
S'1.0'
p16
aS'cl de'
p17
aS'sirop de grenadine'
p18
aaa.