(lp0
S'Caribian sunshine'
p1
aF3.1
aI17
a(lp2
(lp3
S'1.25'
p4
aS'cl de'
p5
aS'rhum ambr\xc3\xa9'
p6
aa(lp7
S'2.5'
p8
aS'cl de'
p9
aS'eau gazeuse (perrier, salvetat)'
p10
aa(lp11
S'1.0'
p12
aS'None'
p13
aS'citrons verts'
p14
aa(lp15
S'1.0'
p16
aS'cuilli\xc3\xa8res \xc3\xa0 soupe de'
p17
aS'sirop de sucre de canne'
p18
aaa.