(lp0
S"Boker's bitters"
p1
aF4.3
aI3
a(lp2
(lp3
S'5.0'
p4
aS'grammes de'
p5
aS'quassia'
p6
aa(lp7
S'5.0'
p8
aS'grammes de racine de'
p9
aS'calamus'
p10
aa(lp11
S'5.0'
p12
aS'grammes de'
p13
aS'cachous'
p14
aa(lp15
S'3.0'
p16
aS'grammes de'
p17
aS'cardamome'
p18
aa(lp19
S'6.0'
p20
aS"grammes d'"
p21
aS"\xc3\xa9corce d'orange"
p22
aa(lp23
S'1.0'
p24
aS'litres de'
p25
aS'whisky (bourbon, whiskey)'
p26
aa(lp27
S'12.0'
p28
aS"cl d'"
p29
aS'eau'
p30
aaa.