(lp0
S'Mint Julep'
p1
aF3.3
aI82
a(lp2
(lp3
S'6.0'
p4
aS'cl de'
p5
aS'whisky (bourbon, whiskey)'
p6
aa(lp7
S'0.5'
p8
aS'cl de'
p9
aS'angostura bitters'
p10
aa(lp11
S'1.0'
p12
aS'cuill\xc3\xa8re \xc3\xa0 caf\xc3\xa9 de'
p13
aS'sucre'
p14
aa(lp15
S'5.0'
p16
aS'feuilles de'
p17
aS'menthe'
p18
aaa.