(lp0
S'Rhum cannelle'
p1
aF3.2
aI53
a(lp2
(lp3
S'7.0'
p4
aS'None'
p5
aS'zestes de citrons'
p6
aa(lp7
S'100.0'
p8
aS'cl de'
p9
aS'rhum blanc'
p10
aa(lp11
S'17.0'
p12
aS'cl de'
p13
aS'sirop de cannelle'
p14
aa(lp15
S'2.0'
p16
aS'cl de'
p17
aS'sirop de sucre de canne'
p18
aaa.