(lp0
S'Claret'
p1
aF3.0
aI4
a(lp2
(lp3
S'75.0'
p4
aS'cl de'
p5
aS'vin blanc'
p6
aa(lp7
S'125.0'
p8
aS'grammes de'
p9
aS'sirop de miel'
p10
aa(lp11
S'2.0'
p12
aS'None'
p13
aS'clous de girofle'
p14
aa(lp15
S'10.0'
p16
aS'gousses de'
p17
aS'cardamome'
p18
aa(lp19
S'5.0'
p20
aS'b\xc3\xa2tons de'
p21
aS'cannelle'
p22
aaa.