(lp0
S'P\xc3\xa9ch\xc3\xa9 mignon'
p1
aF2.6
aI7
a(lp2
(lp3
S'3.0'
p4
aS'cl de'
p5
aS'rhum blanc'
p6
aa(lp7
S'1.5'
p8
aS'cl de'
p9
aS'liqueur de coco (cocogif, malibu)'
p10
aa(lp11
S'1.0'
p12
aS'cl de'
p13
aS'sirop de sucre de canne'
p14
aa(lp15
S'0.5'
p16
aS'cl de'
p17
aS'jus de citrons'
p18
aa(lp19
S'6.0'
p20
aS'cl de'
p21
aS"jus d'oranges"
p22
aa(lp23
S'0.5'
p24
aS'cl de'
p25
aS'sirop de fraises'
p26
aaa.