(lp0
S'Tequila Punch'
p1
aF2.5
aI4
a(lp2
(lp3
S'3.0'
p4
aS'cl de'
p5
aS'tequila'
p6
aa(lp7
S'3.0'
p8
aS'cl de'
p9
aS'jus de pamplemousses'
p10
aa(lp11
S'3.0'
p12
aS'cl de'
p13
aS'jus de pommes'
p14
aaa.