(lp0
S'Pluton'
p1
aF3.4
aI5
a(lp2
(lp3
S'3.0'
p4
aS'cl de'
p5
aS'whisky (bourbon, whiskey)'
p6
aa(lp7
S'1.5'
p8
aS'cl de'
p9
aS'liqueur de caf\xc3\x83\xc2\xa9 (kahlua, marie brizard)'
p10
aa(lp11
S'0.5'
p12
aS'cl de'
p13
aS'anisette (berger blanc)'
p14
aa(lp15
S'2.0'
p16
aS'cl de'
p17
aS'amaretto'
p18
aaa.