(lp0
S'Tuamotu'
p1
aF1.9
aI7
a(lp2
(lp3
S'3.0'
p4
aS'cl de'
p5
aS'cr\xc3\xa8me fra\xc3\xaeche liquide'
p6
aa(lp7
S'0.5'
p8
aS'sachet de'
p9
aS'sucre vanill\xc3\xa9'
p10
aa(lp11
S'1.0'
p12
aS'pinc\xc3\xa9es de'
p13
aS'noix de coco r\xc3\xa2p\xc3\xa9e'
p14
aa(lp15
S'1.0'
p16
aS'cl de'
p17
aS'cura\xc3\xa7ao bleu'
p18
aa(lp19
S'1.0'
p20
aS'cl de'
p21
aS'batida de coco'
p22
aa(lp23
S'10.0'
p24
aS'cl de'
p25
aS'jus de bananes'
p26
aa(lp27
S'3.0'
p28
aS'cl de'
p29
aS"jus d'oranges"
p30
aa(lp31
S'0.25'
p32
aS'cl de'
p33
aS'sirop de citron vert'
p34
aaa.