(lp0
S'Mojito Cha\xc3\xaf'
p1
aF2.7
aI38
a(lp2
(lp3
S'6.0'
p4
aS'cl de'
p5
aS'rhum cubain'
p6
aa(lp7
S'0.5'
p8
aS'None'
p9
aS'citrons vert'
p10
aa(lp11
S'7.0'
p12
aS'feuilles de'
p13
aS'menthe'
p14
aa(lp15
S'2.0'
p16
aS'cl de'
p17
aS'sirop de th\xc3\xa9 cha\xc3\xaf'
p18
aa(lp19
S'None'
p20
aS'None'
p21
aS'eau gazeuse (perrier, salvetat)'
p22
aaa.