(lp0
S'Ski Wasser'
p1
aF3.0
aI12
a(lp2
(lp3
S'4.0'
p4
aS'cl de'
p5
aS'jus de citrons'
p6
aa(lp7
S'4.0'
p8
aS'cl de'
p9
aS'jus de framboises'
p10
aa(lp11
S'None'
p12
aS'None'
p13
aS'eau gazeuse (perrier, salvetat)'
p14
aaa.