(lp0
S'WTF'
p1
aF4.0
aI1
a(lp2
(lp3
S'5.0'
p4
aS'None'
p5
aS'fraises'
p6
aa(lp7
S'0.5'
p8
aS'None'
p9
aS'banane'
p10
aa(lp11
S'8.0'
p12
aS'None'
p13
aS'amandes'
p14
aa(lp15
S'2.0'
p16
aS'cuill\xc3\xa8re \xc3\xa0 caf\xc3\xa9 de'
p17
aS"flocons d'avoine"
p18
aa(lp19
S'1.0'
p20
aS'None'
p21
aS'yaourt nature'
p22
aa(lp23
S'1.0'
p24
aS'cuill\xc3\xa8re \xc3\xa0 caf\xc3\xa9 de'
p25
aS"sirop d'\xc3\xa9rable"
p26
aaa.