(lp0
S'Caf\xc3\xa9 Calypso'
p1
aF3.5
aI28
a(lp2
(lp3
S'None'
p4
aS'None'
p5
aS'cr\xc3\xa8me fra\xc3\xaeche liquide'
p6
aa(lp7
S'2.0'
p8
aS'cl de'
p9
aS'rhum ambr\xc3\xa9'
p10
aa(lp11
S'2.0'
p12
aS'cl de'
p13
aS'amaretto'
p14
aa(lp15
S'10.0'
p16
aS'cl de'
p17
aS'caf\xc3\xa9'
p18
aaa.