(lp0
S'Shangha\xc3\xaf'
p1
aF3.7
aI3
a(lp2
(lp3
S'6.0'
p4
aS'cl de'
p5
aS'rhum blanc'
p6
aa(lp7
S'1.0'
p8
aS'cl de'
p9
aS'anisette (berger blanc)'
p10
aa(lp11
S'0.5'
p12
aS'cl de'
p13
aS'sirop de grenadine'
p14
aa(lp15
S'0.5'
p16
aS'jus'
p17
aS'citrons'
p18
aaa.