(lp0
S'Sirop de grenade'
p1
aF3.7
aI10
a(lp2
(lp3
S'400.0'
p4
aS'grammes de'
p5
aS'sucre'
p6
aa(lp7
S'4.0'
p8
aS'None'
p9
aS'grenades'
p10
aa(lp11
S'1.0'
p12
aS'b\xc3\xa2ton de'
p13
aS'cannelle'
p14
aaa.