(lp0
S'Bombe de bastille'
p1
aF3.2
aI6
a(lp2
(lp3
S'3.0'
p4
aS'cl de'
p5
aS'sirop de grenadine'
p6
aa(lp7
S'1.0'
p8
aS'cl de'
p9
aS'cura\xc3\xa7ao bleu'
p10
aa(lp11
S'1.5'
p12
aS'cl de'
p13
aS'triple sec (cointreau, grand marnier)'
p14
aaa.