(lp0
S'Toblerone'
p1
aF4.3
aI3
a(lp2
(lp3
S'2.0'
p4
aS'cl de'
p5
aS'cr\xc3\xa8me de whisky (baileys)'
p6
aa(lp7
S'2.0'
p8
aS'cl de'
p9
aS'sirop de noisette'
p10
aa(lp11
S'2.0'
p12
aS'cl de'
p13
aS'cr\xc3\xa8me fra\xc3\xaeche liquide'
p14
aa(lp15
S'1.0'
p16
aS'cl de'
p17
aS'sirop de miel'
p18
aa(lp19
S'2.0'
p20
aS'cl de'
p21
aS'liqueur de cacao brun'
p22
aaa.