(lp0
S'Taffine'
p1
aF2.0
aI2
a(lp2
(lp3
S'5.0'
p4
aS'cl de'
p5
aS'spiritueux anis\xc3\xa9 (pastis, ricard, pernod)'
p6
aa(lp7
S'0.5'
p8
aS'cl de'
p9
aS'sirop de grenadine'
p10
aa(lp11
S'2.5'
p12
aS'cl de'
p13
aS'liqueur de poire'
p14
aaa.