(lp0
S'Sirop de baies de sureau noir'
p1
aF3.3
aI3
a(lp2
(lp3
S'3.0'
p4
aS'kilos de'
p5
aS'baies de sureau noir'
p6
aa(lp7
S'1.0'
p8
aS'kilo de'
p9
aS'sucre'
p10
aa(lp11
S'1.0'
p12
aS'b\xc3\xa2ton de'
p13
aS'cannelle'
p14
aa(lp15
S'1.0'
p16
aS'None'
p17
aS'gousses de vanille'
p18
aa(lp19
S'25.0'
p20
aS'cl de'
p21
aS'rhum blanc'
p22
aaa.