(lp0
S'Shirley temple'
p1
aF3.9
aI38
a(lp2
(lp3
S'2.0'
p4
aS'cl de'
p5
aS'sirop de grenadine'
p6
aa(lp7
S'6.0'
p8
aS'cl de'
p9
aS'ginger ale (canada dry)'
p10
aa(lp11
S'6.0'
p12
aS'cl de'
p13
aS'limonade (soda, sprite, 7up)'
p14
aaa.