(lp0
S"Caf\xc3\xa9 frapp\xc3\xa9 \xc3\xa0 l'Oranger"
p1
aF4.7
aI3
a(lp2
(lp3
S'1.0'
p4
aS"sachets d'"
p5
aS"infusion de fleurs d'oranger"
p6
aa(lp7
S'1.0'
p8
aS'cl de'
p9
aS'caf\xc3\xa9 soluble'
p10
aa(lp11
S'0.5'
p12
aS'cl de'
p13
aS'sucre'
p14
aa(lp15
S'1.0'
p16
aS'cl de'
p17
aS'triple sec (cointreau, grand marnier)'
p18
aaa.