(lp0
S'Oiseaux de paille'
p1
aF4.0
aI6
a(lp2
(lp3
S'2.0'
p4
aS'cl de'
p5
aS'calvados'
p6
aa(lp7
S'1.0'
p8
aS'cl de'
p9
aS'racine de gentiane'
p10
aa(lp11
S'1.0'
p12
aS'cl de'
p13
aS'sirop de sucre de canne'
p14
aa(lp15
S'0.5'
p16
aS'cl de'
p17
aS'liqueur de fraises'
p18
aaa.