(lp0
S'Glace \xc3\xa0 la banane'
p1
aF3.3
aI79
a(lp2
(lp3
S'3.0'
p4
aS'None'
p5
aS'bananes'
p6
aa(lp7
S'100.0'
p8
aS'grammes de'
p9
aS'sucre'
p10
aa(lp11
S'35.0'
p12
aS'cl de'
p13
aS'lait'
p14
aa(lp15
S'10.0'
p16
aS'cl de'
p17
aS'cr\xc3\xa8me fra\xc3\xaeche liquide'
p18
aaa.