(lp0
S'Caverne'
p1
aF2.9
aI7
a(lp2
(lp3
S'3.0'
p4
aS'cl de'
p5
aS'rhum blanc'
p6
aa(lp7
S'1.5'
p8
aS'cl de'
p9
aS'liqueur de coco (cocogif, malibu)'
p10
aa(lp11
S'3.0'
p12
aS'cl de'
p13
aS'jus de mangues'
p14
aa(lp15
S'2.0'
p16
aS'cl de'
p17
aS'jus de goyaves'
p18
aa(lp19
S'0.5'
p20
aS'cl de'
p21
aS'sirop de cannelle'
p22
aa(lp23
S'0.5'
p24
aS'cl de'
p25
aS'cura\xc3\xa7ao bleu'
p26
aaa.