(lp0
S'Vespetro'
p1
aF2.9
aI10
a(lp2
(lp3
S'0.1'
p4
aS"litre d'"
p5
aS'alcool \xc3\xa0 45\xc2\xb0'
p6
aa(lp7
S'4.0'
p8
aS'grammes de'
p9
aS"graines d'ang\xc3\xa9lique"
p10
aa(lp11
S'2.0'
p12
aS'grammes de'
p13
aS'coriandre'
p14
aa(lp15
S'0.1'
p16
aS'cuill\xc3\xa8re \xc3\xa0 soupe de graines de'
p17
aS'fenouil'
p18
aa(lp19
S'0.1'
p20
aS'cuill\xc3\xa8re \xc3\xa0 soupe de'
p21
aS'badiane'
p22
aa(lp23
S'None'
p24
aS"zeste d'un"
p25
aS'citrons'
p26
aa(lp27
S'6.0'
p28
aS'cl de'
p29
aS'sirop de sucre de canne'
p30
aaa.