(lp0
S'Liqueur de Chocolat'
p1
aF3.3
aI157
a(lp2
(lp3
S'5.0'
p4
aS'cl de'
p5
aS'alcool \xc3\xa0 40\xc2\xb0'
p6
aa(lp7
S'25.0'
p8
aS'grammes de'
p9
aS'chocolat amer'
p10
aa(lp11
S'5.0'
p12
aS'cl de'
p13
aS'sirop de sucre de canne'
p14
aa(lp15
S'2.0'
p16
aS"cl d'"
p17
aS'eau'
p18
aaa.