(lp0
S'Tueur sanguinaire'
p1
aF3.3
aI4
a(lp2
(lp3
S'2.0'
p4
aS'cl de'
p5
aS'rhum'
p6
aa(lp7
S'4.0'
p8
aS'cl de'
p9
aS'vodka'
p10
aa(lp11
S'8.0'
p12
aS'cl de'
p13
aS'nectar de p\xc3\xaaches'
p14
aa(lp15
S'12.0'
p16
aS'cl de'
p17
aS'jus de cranberry (canneberges)'
p18
aaa.