(lp0
S'Choun'
p1
aF3.8
aI5
a(lp2
(lp3
S'0.5'
p4
aS'cl de'
p5
aS'safari'
p6
aa(lp7
S'2.0'
p8
aS'cl de'
p9
aS'whisky (bourbon, whiskey)'
p10
aa(lp11
S'0.5'
p12
aS'cl de'
p13
aS'liqueur de framboises'
p14
aa(lp15
S'4.0'
p16
aS'cl de'
p17
aS'vermouth blanc (martini, cinzano)'
p18
aaa.