(lp0
S'Dessert'
p1
aF2.7
aI14
a(lp2
(lp3
S'175.0'
p4
aS'grammes de'
p5
aS'yaourt nature'
p6
aa(lp7
S'5.0'
p8
aS'cl de'
p9
aS'advocaat'
p10
aa(lp11
S'3.0'
p12
aS'cl de'
p13
aS'vodka'
p14
aa(lp15
S'0.5'
p16
aS'cuill\xc3\xa8re \xc3\xa0 caf\xc3\xa9 de'
p17
aS'sucre vanille'
p18
aa(lp19
S'1.0'
p20
aS'None'
p21
aS'petits beurre'
p22
aa(lp23
S'0.5'
p24
aS"cuill\xc3\xa8re \xc3\xa0 caf\xc3\xa9 du jus d'un"
p25
aS'citrons'
p26
aaa.