(lp0
S'Lait au caramel'
p1
aF3.5
aI4
a(lp2
(lp3
S'200.0'
p4
aS'grammes de'
p5
aS'sucre'
p6
aa(lp7
S'None'
p8
aS'None'
p9
aS'eau'
p10
aa(lp11
S'15.0'
p12
aS'cl de'
p13
aS'cr\xc3\xa8me fra\xc3\xaeche liquide'
p14
aaa.