(lp0
S"Ch'ti shot"
p1
aF3.8
aI6
a(lp2
(lp3
S'2.0'
p4
aS'cl de'
p5
aS'vodka'
p6
aa(lp7
S'1.0'
p8
aS'trait de'
p9
aS'jus de citrons'
p10
aa(lp11
S'1.0'
p12
aS'cuill\xc3\xa8re de'
p13
aS'cr\xc3\xa8me chantilly'
p14
aa(lp15
S'1.0'
p16
aS'cl de'
p17
aS'sirop de caramel'
p18
aa(lp19
S'1.0'
p20
aS'None'
p21
aS'biscuit speculoo'
p22
aaa.