(lp0
S'Tequila Daisy'
p1
aF3.5
aI2
a(lp2
(lp3
S'4.0'
p4
aS'cl de'
p5
aS'tequila'
p6
aa(lp7
S'2.0'
p8
aS'cl de'
p9
aS'jus de citrons verts'
p10
aa(lp11
S'1.0'
p12
aS'cl de'
p13
aS'sirop de grenadine'
p14
aa(lp15
S'None'
p16
aS'None'
p17
aS'eau gazeuse (perrier, salvetat)'
p18
aaa.