(lp0
S'H\xc3\xa4agen Ice'
p1
aF4.3
aI7
a(lp2
(lp3
S'2.0'
p4
aS'cl de'
p5
aS'cr\xc3\xa8me de framboise'
p6
aa(lp7
S'10.0'
p8
aS'cl de'
p9
aS'jus de cranberry (canneberges)'
p10
aa(lp11
S'2.0'
p12
aS'boules de'
p13
aS'sorbet \xc3\xa0 la fraise'
p14
aa(lp15
S'2.0'
p16
aS'cl de'
p17
aS'vodka'
p18
aaa.