(lp0
S'Planteur cr\xc3\xa9ole'
p1
aF3.3
aI4
a(lp2
(lp3
S'0.1'
p4
aS'litre de'
p5
aS'rhum blanc'
p6
aa(lp7
S'0.1'
p8
aS'litre de'
p9
aS"jus d'oranges"
p10
aa(lp11
S'0.1'
p12
aS'litre de'
p13
aS'jus de fruit de la passion (maracuja)'
p14
aa(lp15
S'0.1'
p16
aS'litre de'
p17
aS'jus de goyaves'
p18
aa(lp19
S'0.3'
p20
aS'None'
p21
aS'citrons verts'
p22
aa(lp23
S'0.3'
p24
aS'None'
p25
aS'b\xc3\xa2tons de cannelle'
p26
aa(lp27
S'3.0'
p28
aS'cl de'
p29
aS'sirop de sucre de canne'
p30
aaa.