(lp0
S'Lychee Martini'
p1
aF2.7
aI3
a(lp2
(lp3
S'2.0'
p4
aS'cl de'
p5
aS'liqueur de lychees (soho, litchao)'
p6
aa(lp7
S'1.0'
p8
aS'cl de'
p9
aS'lime cordial'
p10
aa(lp11
S'5.0'
p12
aS'cl de'
p13
aS'vodka'
p14
aaa.