(lp0
S'Neptune'
p1
aF3.9
aI8
a(lp2
(lp3
S'2.0'
p4
aS'cl de'
p5
aS'sirop de menthe glaciale'
p6
aa(lp7
S'4.0'
p8
aS'cl de'
p9
aS'rhum blanc'
p10
aa(lp11
S'1.0'
p12
aS'cl de'
p13
aS'cura\xc3\xa7ao bleu'
p14
aa(lp15
S'10.0'
p16
aS'cl de'
p17
aS'eau gazeuse (perrier, salvetat)'
p18
aaa.