(lp0
S'Hurry Shark'
p1
aF3.0
aI1
a(lp2
(lp3
S'0.25'
p4
aS'trait de'
p5
aS'cura\xc3\xa7ao bleu'
p6
aa(lp7
S'0.0625'
p8
aS'litre de'
p9
aS'lait'
p10
aa(lp11
S'50.0'
p12
aS'grammes de'
p13
aS'bananes'
p14
aa(lp15
S'50.0'
p16
aS'grammes de'
p17
aS'pommes'
p18
aa(lp19
S'0.25'
p20
aS'pinc\xc3\xa9es de'
p21
aS'cannelle s\xc3\xa9ch\xc3\xa9e'
p22
aa(lp23
S'12.5'
p24
aS'grammes de'
p25
aS'sucre'
p26
aa(lp27
S'75.0'
p28
aS'grammes de'
p29
aS'gla\xc3\xa7ons'
p30
aaa.