(lp0
S'Liqueur de noix (Nocino)'
p1
aF5.0
aI1
a(lp2
(lp3
S'1.0'
p4
aS'b\xc3\xa2ton de'
p5
aS'cannelle'
p6
aa(lp7
S'3.0'
p8
aS'None'
p9
aS'clous de girofle'
p10
aa(lp11
S'700.0'
p12
aS'grammes de'
p13
aS'sucre'
p14
aa(lp15
S'50.0'
p16
aS'cl de'
p17
aS'vodka'
p18
aa(lp19
S'1.0'
p20
aS'zeste de'
p21
aS'citrons'
p22
aa(lp23
S'25.0'
p24
aS'None'
p25
aS'noix vertes'
p26
aa(lp27
S'40.0'
p28
aS'cl de'
p29
aS'eau'
p30
aaa.