(lp0
S'Drift'
p1
aF4.0
aI3
a(lp2
(lp3
S'2.0'
p4
aS'None'
p5
aS'm\xc3\xbbres'
p6
aa(lp7
S'3.0'
p8
aS'feuilles de'
p9
aS'basilic'
p10
aa(lp11
S'4.5'
p12
aS'cl de'
p13
aS'tequila'
p14
aa(lp15
S'3.0'
p16
aS'cl de'
p17
aS'jus de citrons verts'
p18
aa(lp19
S'1.0'
p20
aS'cuill\xc3\xa8re \xc3\xa0 caf\xc3\xa9 de'
p21
aS"sirop d'agave"
p22
aaa.