(lp0
S'Punch exotique'
p1
aF3.2
aI2438
a(lp2
(lp3
S'0.2'
p4
aS'litres de'
p5
aS"jus d'oranges"
p6
aa(lp7
S'0.05'
p8
aS'verre de'
p9
aS'sirop de sucre de canne'
p10
aa(lp11
S'5.0'
p12
aS'cl de'
p13
aS'rhum blanc'
p14
aa(lp15
S'5.0'
p16
aS'cl de'
p17
aS'jus de pamplemousses'
p18
aa(lp19
S'5.0'
p20
aS'cl de'
p21
aS'jus de fruits exotiques'
p22
aa(lp23
S'0.1'
p24
aS'None'
p25
aS'gousses de vanille'
p26
aa(lp27
S'2.0'
p28
aS'cl de'
p29
aS'rhum ambr\xc3\xa9'
p30
aaa.