(lp0
S'Cerveau (Bloody brain)'
p1
aF3.5
aI155
a(lp2
(lp3
S'3.0'
p4
aS'cl de'
p5
aS'schnapps \xc3\xa0 la p\xc3\xaache'
p6
aa(lp7
S'1.0'
p8
aS'cl de'
p9
aS'cr\xc3\xa8me de whisky (baileys)'
p10
aa(lp11
S'1.0'
p12
aS'trait de'
p13
aS'sirop de grenadine'
p14
aaa.