(lp0
S'Clubber'
p1
aF3.8
aI5
a(lp2
(lp3
S'7.0'
p4
aS'cl de'
p5
aS'champagne'
p6
aa(lp7
S'1.0'
p8
aS'cuill\xc3\xa8re de'
p9
aS'extrait de vanille'
p10
aa(lp11
S'4.0'
p12
aS'cl de'
p13
aS'vermouth rose (martini, cinzano)'
p14
aa(lp15
S'1.0'
p16
aS'trait de'
p17
aS'sirop de grenadine'
p18
aaa.