(lp0
S'Rum collins (Ron collins)'
p1
aF3.2
aI13
a(lp2
(lp3
S'0.5'
p4
aS'cl de'
p5
aS'sucre'
p6
aa(lp7
S'3.0'
p8
aS'cl de'
p9
aS'jus de citrons'
p10
aa(lp11
S'4.0'
p12
aS'cl de'
p13
aS'rhum blanc'
p14
aa(lp15
S'None'
p16
aS'None'
p17
aS'limonade (soda, sprite, 7up)'
p18
aaa.