(lp0
S'La passion'
p1
aF3.6
aI38
a(lp2
(lp3
S'3.0'
p4
aS'cl de'
p5
aS'vodka'
p6
aa(lp7
S'1.5'
p8
aS'cl de'
p9
aS'cr\xc3\xa8me de bananes'
p10
aa(lp11
S'3.0'
p12
aS'cl de'
p13
aS'jus de fruit de la passion (maracuja)'
p14
aaa.