(lp0
S'Blue Mango'
p1
aF3.6
aI26
a(lp2
(lp3
S'4.0'
p4
aS'cl de'
p5
aS'vodka'
p6
aa(lp7
S'1.5'
p8
aS'cl de'
p9
aS'cura\xc3\xa7ao bleu'
p10
aa(lp11
S'1.5'
p12
aS'cl de'
p13
aS'cr\xc3\xa8me de cassis'
p14
aa(lp15
S'4.0'
p16
aS'cl de'
p17
aS'jus de mangues'
p18
aa(lp19
S'1.5'
p20
aS'cl de'
p21
aS'jus de citrons verts'
p22
aaa.