(lp0
S"Fleur d'amour"
p1
aF3.4
aI531
a(lp2
(lp3
S'4.0'
p4
aS'cl de'
p5
aS"jus d'ananas"
p6
aa(lp7
S'7.0'
p8
aS'cl de'
p9
aS'jus de mangues'
p10
aa(lp11
S'7.0'
p12
aS'cl de'
p13
aS'jus de bananes'
p14
aaa.