(lp0
S'Bi\xc3\xa8re bretonne'
p1
aF2.3
aI6
a(lp2
(lp3
S'5.0'
p4
aS'cl de'
p5
aS'rhum blanc'
p6
aa(lp7
S'15.0'
p8
aS'cl de'
p9
aS'bi\xc3\xa8re blonde'
p10
aa(lp11
S'5.0'
p12
aS'cl de'
p13
aS'gin'
p14
aaa.