(lp0
S'Rhum cacahu\xc3\xa8te'
p1
aF2.9
aI11
a(lp2
(lp3
S'10.0'
p4
aS'grammes de'
p5
aS'cacahu\xc3\xa8tes'
p6
aa(lp7
S'5.0'
p8
aS'grammes de'
p9
aS'lait concentr\xc3\xa9 sucr\xc3\xa9'
p10
aa(lp11
S'1.0'
p12
aS"cl d'"
p13
aS'eau-de-vie de fruits'
p14
aa(lp15
S'4.0'
p16
aS'cl de'
p17
aS'rhum blanc'
p18
aaa.