(lp0
S'Vin des Dieux'
p1
aF3.0
aI93
a(lp2
(lp3
S'4.0'
p4
aS'None'
p5
aS'pommes reinettes'
p6
aa(lp7
S'4.0'
p8
aS'None'
p9
aS'citrons'
p10
aa(lp11
S'1.0'
p12
aS'cl de'
p13
aS"fleurs d'oranger"
p14
aa(lp15
S'500.0'
p16
aS'grammes de'
p17
aS'sucre'
p18
aa(lp19
S'2.0'
p20
aS'litres de'
p21
aS'vin'
p22
aa(lp23
S'8.0'
p24
aS'None'
p25
aS'clous de girofle'
p26
aaa.