(lp0
S'Liqueur de coquelicot'
p1
aF2.7
aI13
a(lp2
(lp3
S'2.0'
p4
aS'poign\xc3\xa9es de'
p5
aS'fleurs de coquelicot'
p6
aa(lp7
S'75.0'
p8
aS'cl de'
p9
aS'vodka'
p10
aa(lp11
S'500.0'
p12
aS'grammes de'
p13
aS'sucre'
p14
aa(lp15
S'1.0'
p16
aS"verre d'"
p17
aS'eau'
p18
aaa.