(lp0
S'Th\xc3\xa9 glac\xc3\xa9 aux agrumes'
p1
aF3.7
aI3
a(lp2
(lp3
S'1.0'
p4
aS'litres de'
p5
aS'th\xc3\xa9'
p6
aa(lp7
S'4.0'
p8
aS'cuill\xc3\xa8re de'
p9
aS'sucre'
p10
aa(lp11
S'20.0'
p12
aS'cl de'
p13
aS'oranges'
p14
aaa.