(lp0
S'Rom\xc3\xa9o & Juliette'
p1
aF4.3
aI3
a(lp2
(lp3
S'8.0'
p4
aS'cl de'
p5
aS'liqueur de coco (cocogif, malibu)'
p6
aa(lp7
S'4.0'
p8
aS'cl de'
p9
aS'jus de citrons'
p10
aa(lp11
S'4.0'
p12
aS'cl de'
p13
aS'triple sec (cointreau, grand marnier)'
p14
aa(lp15
S'4.0'
p16
aS'cl de'
p17
aS'cr\xc3\xa8me de bananes'
p18
aa(lp19
S'2.0'
p20
aS'cl de'
p21
aS'rhum ambr\xc3\xa9'
p22
aa(lp23
S'2.0'
p24
aS'cl de'
p25
aS'rhum blanc'
p26
aaa.