(lp0
S'Mojito golden'
p1
aF3.3
aI422
a(lp2
(lp3
S'1.0'
p4
aS"trait d'"
p5
aS'angostura bitters'
p6
aa(lp7
S'None'
p8
aS'None'
p9
aS'eau gazeuse (perrier, salvetat)'
p10
aa(lp11
S'7.0'
p12
aS'feuilles de'
p13
aS'menthe'
p14
aa(lp15
S'0.5'
p16
aS'cl de'
p17
aS'sucre'
p18
aa(lp19
S'0.5'
p20
aS'None'
p21
aS'citrons vert'
p22
aa(lp23
S'6.0'
p24
aS'cl de'
p25
aS'rhum cubain'
p26
aaa.