(lp0
S'Feeling'
p1
aF4.4
aI7
a(lp2
(lp3
S'2.0'
p4
aS'cl de'
p5
aS'tequila'
p6
aa(lp7
S'0.5'
p8
aS'cl de'
p9
aS'amaretto'
p10
aa(lp11
S'2.0'
p12
aS'cl de'
p13
aS'cr\xc3\xa8me de cerises'
p14
aa(lp15
S'2.0'
p16
aS'cl de'
p17
aS'cr\xc3\xa8me de p\xc3\xaache de vigne'
p18
aaa.