(lp0
S'Punch trinidad'
p1
aF4.2
aI119
a(lp2
(lp3
S'3.0'
p4
aS'oz de'
p5
aS'rhum blanc'
p6
aa(lp7
S'2.0'
p8
aS'oz de'
p9
aS'jus de citrons'
p10
aa(lp11
S'2.0'
p12
aS'c. \xc3\xa0 th\xc3\xa9 de'
p13
aS'sucre'
p14
aa(lp15
S'0.5'
p16
aS'cl de'
p17
aS'angostura bitters'
p18
aaa.