(lp0
S'\xc3\x89lixir de Garus'
p1
aF3.0
aI1
a(lp2
(lp3
S'2.0'
p4
aS'pinc\xc3\xa9es de'
p5
aS'safran'
p6
aa(lp7
S'2.0'
p8
aS'pinc\xc3\xa9es de'
p9
aS'cannelle en poudre'
p10
aa(lp11
S'10.0'
p12
aS'clous de girofle'
p13
aS'clous de girofle'
p14
aa(lp15
S'6.0'
p16
aS'grammes de'
p17
aS'myrrhe'
p18
aa(lp19
S'1.0'
p20
aS'pinc\xc3\xa9e'
p21
aS'noix de muscade r\xc3\xa2p\xc3\xa9e'
p22
aa(lp23
S'80.0'
p24
aS'cl de'
p25
aS'alcool \xc3\xa0 85\xc2\xb0'
p26
aa(lp27
S'1.0'
p28
aS'cl de'
p29
aS"eau de fleur d'oranger"
p30
aa(lp31
S'150.0'
p32
aS'grammes de'
p33
aS'sucre'
p34
aaa.