(lp0
S'Batida de leite de coco'
p1
aF3.7
aI7
a(lp2
(lp3
S'5.0'
p4
aS'cl de'
p5
aS'cacha\xc3\xa7a'
p6
aa(lp7
S'5.0'
p8
aS'cl de'
p9
aS'gin'
p10
aa(lp11
S'5.0'
p12
aS'cl de'
p13
aS'lait de coco'
p14
aa(lp15
S'2.0'
p16
aS'cuill\xc3\xa8res \xc3\xa0 caf\xc3\xa9 de'
p17
aS'sucre'
p18
aaa.