(lp0
S'Grand Colada'
p1
aF3.1
aI40
a(lp2
(lp3
S'4.0'
p4
aS'cl de'
p5
aS'triple sec (cointreau, grand marnier)'
p6
aa(lp7
S'2.0'
p8
aS'cl de'
p9
aS'rhum blanc'
p10
aa(lp11
S'6.0'
p12
aS'cl de'
p13
aS"jus d'ananas"
p14
aa(lp15
S'4.0'
p16
aS'cl de'
p17
aS'lait de coco'
p18
aaa.