(lp0
S'Lavande Fizz'
p1
aF4.5
aI4
a(lp2
(lp3
S'None'
p4
aS'None'
p5
aS'eau gazeuse (perrier, salvetat)'
p6
aa(lp7
S'2.0'
p8
aS'cl de'
p9
aS'sirop de sucre de canne'
p10
aa(lp11
S'5.0'
p12
aS'branches de'
p13
aS'fleurs de lavande'
p14
aa(lp15
S'2.0'
p16
aS'cl de'
p17
aS'jus de citrons'
p18
aa(lp19
S'5.0'
p20
aS'cl de'
p21
aS'rhum blanc'
p22
aaa.