(lp0
S'Gin rickey'
p1
aF3.0
aI12
a(lp2
(lp3
S'12.0'
p4
aS'cl de'
p5
aS'limonade (soda, sprite, 7up)'
p6
aa(lp7
S'9.0'
p8
aS'cl de'
p9
aS'gin'
p10
aa(lp11
S'0.5'
p12
aS'None'
p13
aS'citrons vert'
p14
aaa.