(lp0
S'Grand marnier'
p1
aF3.5
aI24
a(lp2
(lp3
S'1.0'
p4
aS'None'
p5
aS'orange'
p6
aa(lp7
S'50.0'
p8
aS"cl d'"
p9
aS'alcool \xc3\xa0 90\xc2\xb0'
p10
aa(lp11
S'70.0'
p12
aS'cl d'
p13
aS'eau'
p14
aa(lp15
S'300.0'
p16
aS'grammes de'
p17
aS'sucre'
p18
aaa.