(lp0
S'Blue Temptation'
p1
aF3.4
aI24
a(lp2
(lp3
S'0.5'
p4
aS'cl de'
p5
aS'vodka'
p6
aa(lp7
S'2.5'
p8
aS'cl de'
p9
aS'cura\xc3\xa7ao bleu'
p10
aa(lp11
S'2.0'
p12
aS'cl de'
p13
aS'cr\xc3\xa8me de bananes'
p14
aa(lp15
S'1.0'
p16
aS'cl de'
p17
aS'liqueur de bananes (pisang ambon)'
p18
aa(lp19
S'1.0'
p20
aS'cl de'
p21
aS'cr\xc3\xa8me fra\xc3\xaeche liquide'
p22
aaa.