(lp0
S'Daiquiri Isula'
p1
aF2.8
aI25
a(lp2
(lp3
S'7.0'
p4
aS'cl de'
p5
aS'rhum cubain'
p6
aa(lp7
S'5.0'
p8
aS'cl de'
p9
aS'jus de citrons verts'
p10
aa(lp11
S'3.0'
p12
aS'cl de'
p13
aS'sirop de mandarine'
p14
aa(lp15
S'1.0'
p16
aS"trait d'"
p17
aS'angostura orange bitters'
p18
aaa.