(lp0
S'Calvattitude'
p1
aF3.8
aI5
a(lp2
(lp3
S'2.0'
p4
aS'cl de'
p5
aS'calvados'
p6
aa(lp7
S'1.0'
p8
aS'cl de'
p9
aS'sirop de mandarine'
p10
aa(lp11
S'1.5'
p12
aS'cl de'
p13
aS'pur\xc3\xa9e de fruit de la passion'
p14
aa(lp15
S'2.0'
p16
aS'cl de'
p17
aS'cr\xc3\xa8me fra\xc3\xaeche liquide'
p18
aa(lp19
S'2.5'
p20
aS'cl de'
p21
aS'jus de fruit de la passion (maracuja)'
p22
aaa.