(lp0
S'Liqueur de citron vert'
p1
aF3.5
aI10
a(lp2
(lp3
S'0.4'
p4
aS'None'
p5
aS'citrons verts'
p6
aa(lp7
S'0.05'
p8
aS'petit morceau de'
p9
aS'gingembre'
p10
aa(lp11
S'1.5'
p12
aS"cl d'"
p13
aS'alcool \xc3\xa0 95\xc2\xb0'
p14
aa(lp15
S'0.1'
p16
aS'None'
p17
aS'clous de girofle'
p18
aa(lp19
S'0.025'
p20
aS'gousse de'
p21
aS'vanille'
p22
aa(lp23
S'12.5'
p24
aS'grammes de'
p25
aS'sucre'
p26
aaa.