(lp0
S'Bon cis'
p1
aF2.5
aI2
a(lp2
(lp3
S'0.2'
p4
aS'de'
p5
aS'cura\xc3\xa7ao bleu'
p6
aa(lp7
S'0.2'
p8
aS'de'
p9
aS'cr\xc3\xa8me de banane'
p10
aa(lp11
S'0.2'
p12
aS'de'
p13
aS'triple sec (cointreau, grand marnier)'
p14
aa(lp15
S'0.4'
p16
aS'de'
p17
aS'rhum blanc'
p18
aaa.