(lp0
S"Liqueur d'abricot"
p1
aF3.3
aI114
a(lp2
(lp3
S'7.5'
p4
aS'grammes de'
p5
aS'sucre'
p6
aa(lp7
S'0.5'
p8
aS'None'
p9
aS"amandes d'abricot"
p10
aa(lp11
S'0.05'
p12
aS'None'
p13
aS'b\xc3\xa2tons de cannelle'
p14
aa(lp15
S'0.05'
p16
aS"litre d'"
p17
aS'eau-de-vie'
p18
aa(lp19
S'0.1'
p20
aS'None'
p21
aS"noyaux d'abricot"
p22
aa(lp23
S'20.0'
p24
aS"grammes d'"
p25
aS'abricots'
p26
aaa.