(lp0
S'Bistouille coffee'
p1
aF3.5
aI2
a(lp2
(lp3
S'None'
p4
aS'None'
p5
aS'caf\xc3\xa9'
p6
aa(lp7
S'2.0'
p8
aS'cl de'
p9
aS'schnaps'
p10
aa(lp11
S'1.0'
p12
aS'pinc\xc3\xa9e de'
p13
aS'cannelle en poudre'
p14
aaa.