(lp0
S'Gin Cobbler'
p1
aF3.5
aI6
a(lp2
(lp3
S'5.0'
p4
aS"cl d'"
p5
aS'eau gazeuse (perrier, salvetat)'
p6
aa(lp7
S'4.0'
p8
aS'cl de'
p9
aS'gin'
p10
aa(lp11
S'1.0'
p12
aS'cuill\xc3\xa8re \xc3\xa0 caf\xc3\xa9 de'
p13
aS'sucre en poudre'
p14
aa(lp15
S'1.0'
p16
aS'cl de'
p17
aS'triple sec (cointreau, grand marnier)'
p18
aaa.