(lp0
S'Red russian'
p1
aF4.0
aI2
a(lp2
(lp3
S'2.5'
p4
aS'cl de'
p5
aS'vodka'
p6
aa(lp7
S'3.0'
p8
aS'cl de'
p9
aS'liqueur de cerises (cherry brandy)'
p10
aa(lp11
S'1.5'
p12
aS'cl de'
p13
aS"liqueur d'abricots (abricot brandy)"
p14
aaa.