(lp0
S'Rhum poivre anis \xc3\xa9toil\xc3\xa9'
p1
aF3.2
aI23
a(lp2
(lp3
S'75.0'
p4
aS'cl de'
p5
aS'rhum'
p6
aa(lp7
S'5.0'
p8
aS'grammes de'
p9
aS'poivre'
p10
aa(lp11
S'2.0'
p12
aS'grammes de'
p13
aS'anis \xc3\xa9toil\xc3\xa9'
p14
aaa.