(lp0
S'Eggnog'
p1
aF2.4
aI94
a(lp2
(lp3
S'20.0'
p4
aS'cl de'
p5
aS'brandy'
p6
aa(lp7
S'1.0'
p8
aS'litre de'
p9
aS'lait'
p10
aa(lp11
S'45.0'
p12
aS'cl de'
p13
aS'rhum ambr\xc3\xa9'
p14
aa(lp15
S'10.0'
p16
aS'None'
p17
aS'oeufs'
p18
aa(lp19
S'250.0'
p20
aS'grammes de'
p21
aS'sucre'
p22
aa(lp23
S'50.0'
p24
aS'cl de'
p25
aS'cr\xc3\xa8me fra\xc3\xaeche liquide'
p26
aaa.