(lp0
S'Dry Manhattan'
p1
aF3.0
aI4
a(lp2
(lp3
S'4.0'
p4
aS'cl de'
p5
aS'whisky (bourbon, whiskey)'
p6
aa(lp7
S'2.0'
p8
aS'cl de'
p9
aS'vermouth dry (martini, noilly prat)'
p10
aa(lp11
S'3.0'
p12
aS"gouttes d'"
p13
aS'angostura bitters'
p14
aaa.