(lp0
S'Green peace'
p1
aF3.5
aI43
a(lp2
(lp3
S'None'
p4
aS'None'
p5
aS'tonic (schweppes)'
p6
aa(lp7
S'1.0'
p8
aS"jaune d'"
p9
aS'oeufs'
p10
aa(lp11
S'2.0'
p12
aS'cl de'
p13
aS'gin'
p14
aa(lp15
S'2.0'
p16
aS'cl de'
p17
aS'cura\xc3\xa7ao bleu'
p18
aa(lp19
S'2.0'
p20
aS'cl de'
p21
aS'liqueur de bananes (pisang ambon)'
p22
aaa.