(lp0
S'Sex on the beach'
p1
aF4.4
aI1449
a(lp2
(lp3
S'3.0'
p4
aS'cl de'
p5
aS'vodka'
p6
aa(lp7
S'2.0'
p8
aS'cl de'
p9
aS'sirop de melon'
p10
aa(lp11
S'2.0'
p12
aS'cl de'
p13
aS'chambord'
p14
aa(lp15
S'5.0'
p16
aS'cl de'
p17
aS"jus d'ananas"
p18
aa(lp19
S'6.0'
p20
aS'cl de'
p21
aS'jus de cranberry (canneberges)'
p22
aaa.