(lp0
S'White lion'
p1
aF4.4
aI5
a(lp2
(lp3
S'5.0'
p4
aS'cl de'
p5
aS'rhum ambr\xc3\xa9'
p6
aa(lp7
S'3.0'
p8
aS'cl de'
p9
aS'jus de citrons'
p10
aa(lp11
S'1.5'
p12
aS'cl de'
p13
aS"sirop d'orgeat"
p14
aa(lp15
S'0.25'
p16
aS'cuill\xc3\xa8re \xc3\xa0 caf\xc3\xa9 de'
p17
aS'sirop de framboises'
p18
aaa.