(lp0
S'Huntsman'
p1
aF4.5
aI6
a(lp2
(lp3
S'4.5'
p4
aS'cl de'
p5
aS'vodka'
p6
aa(lp7
S'1.5'
p8
aS'cl de'
p9
aS'rhum blanc'
p10
aa(lp11
S'0.5'
p12
aS'jus'
p13
aS'citrons verts'
p14
aa(lp15
S'0.5'
p16
aS'cl de'
p17
aS'sucre'
p18
aaa.