(lp0
S'The Portal'
p1
aF3.8
aI8
a(lp2
(lp3
S'4.0'
p4
aS'cl de'
p5
aS'triple sec (cointreau, grand marnier)'
p6
aa(lp7
S'10.0'
p8
aS"cl d'"
p9
aS"soda \xc3\xa0 l'orange (orangina)"
p10
aa(lp11
S'3.0'
p12
aS'cl de'
p13
aS'cura\xc3\xa7ao bleu'
p14
aa(lp15
S'1.0'
p16
aS'cl de'
p17
aS'sirop de bananes'
p18
aa(lp19
S'10.0'
p20
aS"cl d'"
p21
aS'eau gazeuse (perrier, salvetat)'
p22
aaa.