(lp0
S'Gouillou'
p1
aF2.0
aI2
a(lp2
(lp3
S'1.0'
p4
aS'cl de'
p5
aS'sirop de p\xc3\xaache'
p6
aa(lp7
S'4.0'
p8
aS'cl de'
p9
aS'vodka'
p10
aa(lp11
S'4.0'
p12
aS'cl de'
p13
aS'vin rouge'
p14
aa(lp15
S'10.0'
p16
aS'cl de'
p17
aS'energy drink (red bull, pitbull, duff)'
p18
aaa.