(lp0
S"Marine's Vodka"
p1
aF4.3
aI16
a(lp2
(lp3
S'4.0'
p4
aS'cl de'
p5
aS'vodka'
p6
aa(lp7
S'2.0'
p8
aS'cl de'
p9
aS'vermouth blanc (martini, cinzano)'
p10
aa(lp11
S'0.5'
p12
aS'cl de'
p13
aS'gin'
p14
aa(lp15
S'1.0'
p16
aS'zeste de'
p17
aS'citrons'
p18
aaa.