(lp0
S'Tierra de oto\xc3\xb1o'
p1
aF2.0
aI2
a(lp2
(lp3
S'2.0'
p4
aS'cl de'
p5
aS'tequila'
p6
aa(lp7
S'4.0'
p8
aS'cl de'
p9
aS'liqueur de coco (cocogif, malibu)'
p10
aa(lp11
S'6.0'
p12
aS'cl de'
p13
aS'liqueur de cacao brun'
p14
aaa.