(lp0
S'Stado cocktail'
p1
aF2.0
aI1
a(lp2
(lp3
S'1.0'
p4
aS'cl de'
p5
aS'cura\xc3\xa7ao bleu'
p6
aa(lp7
S'1.0'
p8
aS'cl de'
p9
aS'cognac'
p10
aa(lp11
S'2.0'
p12
aS'cl de'
p13
aS'whisky (bourbon, whiskey)'
p14
aa(lp15
S'3.0'
p16
aS'cl de'
p17
aS'vermouth rouge (martini, cinzano)'
p18
aaa.