(lp0
S'Rhum menthe'
p1
aF2.8
aI84
a(lp2
(lp3
S'5.0'
p4
aS'cl de'
p5
aS'rhum blanc'
p6
aa(lp7
S'1.0'
p8
aS'None'
p9
aS'feuilles de menthe'
p10
aa(lp11
S'0.2'
p12
aS'cuill\xc3\xa8res \xc3\xa0 soupe de'
p13
aS'sucre roux (cassonade)'
p14
aa(lp15
S'0.05'
p16
aS'None'
p17
aS'gousses de vanille'
p18
aaa.