(lp0
S"Jamaican's"
p1
aF3.0
aI5
a(lp2
(lp3
S'2.0'
p4
aS'cl de'
p5
aS'absinthe'
p6
aa(lp7
S'4.0'
p8
aS'cl de'
p9
aS'whisky (bourbon, whiskey)'
p10
aa(lp11
S'2.0'
p12
aS'cl de'
p13
aS'sirop de cassis'
p14
aa(lp15
S'1.0'
p16
aS'cl de'
p17
aS'citrons'
p18
aaa.