(lp0
S'Grape Mojito'
p1
aF4.0
aI3
a(lp2
(lp3
S'6.0'
p4
aS'cl de'
p5
aS'rhum cubain'
p6
aa(lp7
S'2.0'
p8
aS'cl de'
p9
aS'jus de citrons verts'
p10
aa(lp11
S'8.0'
p12
aS'None'
p13
aS'raisins'
p14
aa(lp15
S'4.0'
p16
aS'feuilles de'
p17
aS'menthe'
p18
aaa.