(lp0
S'Balicocktail'
p1
aF4.2
aI22
a(lp2
(lp3
S'2.0'
p4
aS'cl de'
p5
aS'sirop de grenadine'
p6
aa(lp7
S'4.0'
p8
aS'cl de'
p9
aS'rhum blanc'
p10
aa(lp11
S'4.0'
p12
aS'cl de'
p13
aS'cr\xc3\xa8me de cassis'
p14
aa(lp15
S'8.0'
p16
aS'cl de'
p17
aS'vermouth blanc (martini, cinzano)'
p18
aa(lp19
S'12.0'
p20
aS'cl de'
p21
aS"jus d'oranges"
p22
aaa.