(lp0
S'Frank le Tank'
p1
aF2.8
aI6
a(lp2
(lp3
S'7.0'
p4
aS'cl de'
p5
aS'champagne'
p6
aa(lp7
S'1.0'
p8
aS'trait de'
p9
aS'vodka'
p10
aa(lp11
S'4.0'
p12
aS'cl de'
p13
aS'liqueur de citrons (limoncello)'
p14
aaa.