(lp0
S'Amazonas'
p1
aF3.3
aI4
a(lp2
(lp3
S'None'
p4
aS'morceaux de'
p5
aS'mangues'
p6
aa(lp7
S'1.0'
p8
aS'cl de'
p9
aS'angostura bitters'
p10
aa(lp11
S'1.0'
p12
aS'cl de'
p13
aS'jus de citrons'
p14
aa(lp15
S'6.0'
p16
aS'cl de'
p17
aS'jus de mangues'
p18
aaa.