(lp0
S'Pampetini cocktail'
p1
aF3.3
aI4
a(lp2
(lp3
S'2.0'
p4
aS'cl de'
p5
aS'angostura bitters'
p6
aa(lp7
S'2.0'
p8
aS'cl de'
p9
aS'vermouth dry (martini, noilly prat)'
p10
aa(lp11
S'2.0'
p12
aS'cl de'
p13
aS'vermouth blanc (martini, cinzano)'
p14
aa(lp15
S'2.0'
p16
aS'cl de'
p17
aS'rhum blanc'
p18
aaa.