(lp0
S'El dorado'
p1
aF4.3
aI3
a(lp2
(lp3
S'1.5'
p4
aS'cl de'
p5
aS'sirop de caramel'
p6
aa(lp7
S'1.5'
p8
aS'cl de'
p9
aS'cr\xc3\xa8me de bananes'
p10
aa(lp11
S'3.0'
p12
aS'cl de'
p13
aS'calvados'
p14
aa(lp15
S'1.0'
p16
aS'cl de'
p17
aS'jus de pommes'
p18
aaa.