(lp0
S'Double show'
p1
aF4.0
aI3
a(lp2
(lp3
S'10.0'
p4
aS'cl de'
p5
aS"jus d'oranges"
p6
aa(lp7
S'6.0'
p8
aS'cl de'
p9
aS'gin'
p10
aa(lp11
S'4.0'
p12
aS'cl de'
p13
aS'liqueur de poire'
p14
aa(lp15
S'1.0'
p16
aS'cl de'
p17
aS'sirop de menthe'
p18
aaa.