(lp0
S'Adios Motherfucker'
p1
aF3.9
aI23
a(lp2
(lp3
S'2.0'
p4
aS'cl de'
p5
aS'tequila'
p6
aa(lp7
S'2.0'
p8
aS'cl de'
p9
aS'rhum cubain'
p10
aa(lp11
S'2.0'
p12
aS'cl de'
p13
aS'vodka'
p14
aa(lp15
S'4.0'
p16
aS'cl de'
p17
aS'jus de citrons'
p18
aa(lp19
S'2.0'
p20
aS'cl de'
p21
aS'cura\xc3\xa7ao bleu'
p22
aa(lp23
S'2.0'
p24
aS'cl de'
p25
aS'gin'
p26
aa(lp27
S'6.0'
p28
aS'cl de'
p29
aS'limonade (soda, sprite, 7up)'
p30
aa(lp31
S'1.0'
p32
aS'cuill\xc3\xa8re \xc3\xa0 caf\xc3\xa9 de'
p33
aS'sucre'
p34
aaa.