(lp0
S'Vinaigre de cidre'
p1
aF2.5
aI18
a(lp2
(lp3
S'8.0'
p4
aS"cl d'"
p5
aS'alcool \xc3\xa0 96\xc2\xb0'
p6
aa(lp7
S'None'
p8
aS'None'
p9
aS'levure boulang\xc3\xa8re'
p10
aa(lp11
S'4.0'
p12
aS'kilos de'
p13
aS'pommes'
p14
aa(lp15
S'10.0'
p16
aS'cl de'
p17
aS'vinaigre de cidre'
p18
aa(lp19
S'10.0'
p20
aS'cl de'
p21
aS'cidre'
p22
aaa.