(lp0
S'Loving Cocktail'
p1
aF2.0
aI1
a(lp2
(lp3
S'1.0'
p4
aS'pinc\xc3\xa9e de'
p5
aS'noix de muscade r\xc3\xa2p\xc3\xa9e'
p6
aa(lp7
S'1.0'
p8
aS"jaune d'"
p9
aS'oeufs'
p10
aa(lp11
S'2.0'
p12
aS'cuill\xc3\xa8re \xc3\xa0 caf\xc3\xa9 de'
p13
aS'sucre'
p14
aa(lp15
S'4.0'
p16
aS'cl de'
p17
aS'porto rouge'
p18
aa(lp19
S'4.0'
p20
aS'cl de'
p21
aS'cognac'
p22
aaa.