(lp0
S'Mister Green'
p1
aF3.0
aI2
a(lp2
(lp3
S'5.0'
p4
aS'cl de'
p5
aS'floc de gascogne blanc'
p6
aa(lp7
S'5.0'
p8
aS'cl de'
p9
aS'jus de pommes'
p10
aa(lp11
S'5.0'
p12
aS"cl d'"
p13
aS'eau gazeuse (perrier, salvetat)'
p14
aa(lp15
S'1.5'
p16
aS'cl de'
p17
aS'sirop de basilic'
p18
aaa.