(lp0
S'Blue spirit'
p1
aF3.0
aI2
a(lp2
(lp3
S'2.0'
p4
aS'cl de'
p5
aS'jus de pamplemousses'
p6
aa(lp7
S'0.5'
p8
aS'cl de'
p9
aS'liqueur de bananes (pisang ambon)'
p10
aa(lp11
S'0.5'
p12
aS'cl de'
p13
aS'cura\xc3\xa7ao bleu'
p14
aa(lp15
S'0.5'
p16
aS'cl de'
p17
aS'liqueur de cacao blanc'
p18
aa(lp19
S'3.0'
p20
aS'cl de'
p21
aS'gin'
p22
aaa.