(lp0
S'Marquisette'
p1
aF3.0
aI1085
a(lp2
(lp3
S'1.5'
p4
aS'bouteilles de'
p5
aS'limonade (soda, sprite, 7up)'
p6
aa(lp7
S'1.5'
p8
aS'bouteilles de'
p9
aS'vin mousseux'
p10
aa(lp11
S'33.0'
p12
aS'cl de'
p13
aS"sirop d'orange sanguine"
p14
aa(lp15
S'1.0'
p16
aS'cl de'
p17
aS'sucre'
p18
aa(lp19
S'10.0'
p20
aS'cl de'
p21
aS'liqueur mandarine napol\xc3\xa9on'
p22
aa(lp23
S'0.25'
p24
aS'bouteilles de'
p25
aS'rhum blanc'
p26
aa(lp27
S'2.0'
p28
aS'bouteilles de'
p29
aS'vin blanc'
p30
aa(lp31
S'4.0'
p32
aS'None'
p33
aS'oranges'
p34
aa(lp35
S'4.0'
p36
aS'None'
p37
aS'citrons'
p38
aaa.