(lp0
S'Virgin Mary'
p1
aF3.3
aI34
a(lp2
(lp3
S'15.0'
p4
aS'cl de'
p5
aS'jus de tomates'
p6
aa(lp7
S'1.0'
p8
aS'cl de'
p9
aS'tabasco'
p10
aa(lp11
S'1.0'
p12
aS'cl de'
p13
aS'jus de citrons'
p14
aa(lp15
S'1.0'
p16
aS'cl de'
p17
aS'sauce worcestershire'
p18
aa(lp19
S'None'
p20
aS'None'
p21
aS'sel de c\xc3\xa9leri'
p22
aa(lp23
S'None'
p24
aS'None'
p25
aS'poivre'
p26
aaa.