(lp0
S'Vin de gentiane'
p1
aF2.8
aI4
a(lp2
(lp3
S'1.0'
p4
aS'bouteille de'
p5
aS'vin rouge'
p6
aa(lp7
S'1.0'
p8
aS'cuill\xc3\xa8re \xc3\xa0 soupe de racine de'
p9
aS'racine de gentiane'
p10
aa(lp11
S'5.0'
p12
aS'grammes de'
p13
aS'm\xc3\xa9nyante'
p14
aa(lp15
S'5.0'
p16
aS'grammes de'
p17
aS'jonc odorant'
p18
aa(lp19
S'5.0'
p20
aS"grammes d'\xc3\xa9corce d'"
p21
aS'orange douce'
p22
aa(lp23
S'3.0'
p24
aS"grammes d'"
p25
aS'anis'
p26
aaa.