(lp0
S'Cross road'
p1
aF2.8
aI6
a(lp2
(lp3
S'None'
p4
aS'None'
p5
aS'champagne'
p6
aa(lp7
S'5.0'
p8
aS'cl de'
p9
aS'jus de fruits exotiques'
p10
aa(lp11
S'1.0'
p12
aS'cl de'
p13
aS'cura\xc3\xa7ao bleu'
p14
aaa.