(lp0
S'Baby Bellini'
p1
aF3.4
aI27
a(lp2
(lp3
S'4.0'
p4
aS'cl de'
p5
aS'nectar de p\xc3\xaaches'
p6
aa(lp7
S'1.0'
p8
aS'cl de'
p9
aS'jus de citrons'
p10
aa(lp11
S'None'
p12
aS'None'
p13
aS'cidre sans alcool'
p14
aaa.