(lp0
S'Below zero'
p1
aF3.3
aI3
a(lp2
(lp3
S'4.0'
p4
aS'cl de'
p5
aS'rhum blanc'
p6
aa(lp7
S'2.0'
p8
aS'cl de'
p9
aS"jus d'ananas"
p10
aa(lp11
S'2.0'
p12
aS'cl de'
p13
aS"jus d'oranges"
p14
aa(lp15
S'1.0'
p16
aS'cl de'
p17
aS'cura\xc3\xa7ao bleu'
p18
aa(lp19
S'1.0'
p20
aS'zeste de'
p21
aS'citrons verts'
p22
aa(lp23
S'3.0'
p24
aS'grammes de'
p25
aS'sucre'
p26
aa(lp27
S'1.0'
p28
aS'rondelle de'
p29
aS'citrons verts'
p30
aaa.