(lp0
S'Prunelle'
p1
aF3.5
aI10
a(lp2
(lp3
S'50.0'
p4
aS'grammes de'
p5
aS'prunelles'
p6
aa(lp7
S'25.0'
p8
aS'grammes de'
p9
aS'sucre'
p10
aa(lp11
S'5.0'
p12
aS"cl d'"
p13
aS'eau-de-vie \xc3\xa0 70\xc2\xb0'
p14
aaa.