(lp0
S'Pink lady'
p1
aF4.2
aI83
a(lp2
(lp3
S'4.0'
p4
aS'cl de'
p5
aS'gin'
p6
aa(lp7
S'2.0'
p8
aS'cl de'
p9
aS'jus de citrons'
p10
aa(lp11
S'0.5'
p12
aS'cl de'
p13
aS'sirop de grenadine'
p14
aa(lp15
S'1.0'
p16
aS"blanc d'"
p17
aS'oeufs'
p18
aa(lp19
S'1.0'
p20
aS'cuill\xc3\xa8re \xc3\xa0 caf\xc3\xa9 de'
p21
aS'cr\xc3\xa8me fra\xc3\xaeche liquide'
p22
aaa.