(lp0
S'Star appeal'
p1
aF4.0
aI4
a(lp2
(lp3
S'None'
p4
aS'jus'
p5
aS'pamplemousses'
p6
aa(lp7
S'2.5'
p8
aS'cl de'
p9
aS'vodka'
p10
aa(lp11
S'2.0'
p12
aS'cl de'
p13
aS'liqueur de cerises (cherry brandy)'
p14
aa(lp15
S'1.0'
p16
aS'cl de'
p17
aS"liqueur d'abricots (abricot brandy)"
p18
aa(lp19
S'1.0'
p20
aS'cl de'
p21
aS'triple sec (cointreau, grand marnier)'
p22
aa(lp23
S'0.5'
p24
aS'cl de'
p25
aS'vermouth blanc (martini, cinzano)'
p26
aaa.