(lp0
S'Perfect Bellini'
p1
aF3.1
aI114
a(lp2
(lp3
S'1.0'
p4
aS'cl de'
p5
aS'sirop de gomme'
p6
aa(lp7
S'5.0'
p8
aS'cl de'
p9
aS'pur\xc3\xa9e de p\xc3\xaache'
p10
aa(lp11
S'None'
p12
aS'None'
p13
aS'champagne'
p14
aaa.