(lp0
S'Ketch coco'
p1
aF3.8
aI4
a(lp2
(lp3
S'0.25'
p4
aS'de'
p5
aS'lait de coco'
p6
aa(lp7
S'0.25'
p8
aS'de'
p9
aS'cr\xc3\xa8me de fruit de la passion'
p10
aa(lp11
S'0.5'
p12
aS'de'
p13
aS'rhum ambr\xc3\xa9'
p14
aa(lp15
S'0.5'
p16
aS'cl de'
p17
aS'citrons verts'
p18
aa(lp19
S'0.5'
p20
aS'cl de'
p21
aS'citrons'
p22
aa(lp23
S'2.0'
p24
aS'cl de'
p25
aS'sucre'
p26
aaa.