(lp0
S"Daniel's Cocktail"
p1
aF4.1
aI36
a(lp2
(lp3
S'6.0'
p4
aS'cl de'
p5
aS"jus d'oranges"
p6
aa(lp7
S'4.0'
p8
aS'cl de'
p9
aS'jus de citrons'
p10
aa(lp11
S'2.0'
p12
aS'cuill\xc3\xa8re \xc3\xa0 caf\xc3\xa9 de'
p13
aS'sirop de grenadine'
p14
aaa.