(lp0
S'Pina Colada 2'
p1
aF3.1
aI498
a(lp2
(lp3
S'30.0'
p4
aS'cl de'
p5
aS'rhum blanc'
p6
aa(lp7
S'1.0'
p8
aS'bo\xc3\xaete de'
p9
aS'lait de coco'
p10
aa(lp11
S'1.0'
p12
aS"bo\xc3\xaete d'"
p13
aS'ananas au sirop'
p14
aa(lp15
S'1.0'
p16
aS'litres de'
p17
aS"jus d'ananas"
p18
aaa.