(lp0
S'Faubourg Saint-Honor\xc3\xa9'
p1
aF2.0
aI5
a(lp2
(lp3
S'3.0'
p4
aS'cl de'
p5
aS'rhum blanc'
p6
aa(lp7
S'2.0'
p8
aS'cl de'
p9
aS'liqueur de fraises'
p10
aa(lp11
S'1.5'
p12
aS'cl de'
p13
aS'liqueur de coco (cocogif, malibu)'
p14
aa(lp15
S'1.0'
p16
aS'cl de'
p17
aS'jus de citrons verts'
p18
aaa.