(lp0
S'Geni\xc3\xa8vre'
p1
aF3.9
aI17
a(lp2
(lp3
S'60.0'
p4
aS'grammes de'
p5
aS'geni\xc3\xa8vre'
p6
aa(lp7
S'16.0'
p8
aS'grammes de'
p9
aS'cannelle'
p10
aa(lp11
S'1.0'
p12
aS'gramme de'
p13
aS'clous de girofle'
p14
aa(lp15
S'1.0'
p16
aS"grammes d'"
p17
aS'anis vert'
p18
aa(lp19
S'1.0'
p20
aS'gramme de'
p21
aS'coriandre'
p22
aaa.