(lp0
S'Sdk corner'
p1
aF3.0
aI1
a(lp2
(lp3
S'4.0'
p4
aS'cl de'
p5
aS'vodka'
p6
aa(lp7
S'0.25'
p8
aS'cuill\xc3\xa8re de'
p9
aS'sucre vanille'
p10
aa(lp11
S'1.0'
p12
aS'zeste de'
p13
aS'abricots'
p14
aa(lp15
S'2.0'
p16
aS'cl de'
p17
aS'jus de fraises'
p18
aa(lp19
S'0.5'
p20
aS'cl de'
p21
aS'sirop de bananes'
p22
aa(lp23
S'2.0'
p24
aS'cl de'
p25
aS'jus de kiwi'
p26
aa(lp27
S'1.0'
p28
aS'cl de'
p29
aS'jus de bananes'
p30
aa(lp31
S'1.0'
p32
aS'zeste de'
p33
aS'zestes de citron vert'
p34
aa(lp35
S'0.25'
p36
aS'cl de'
p37
aS'cr\xc3\xa8me fra\xc3\xaeche liquide'
p38
aaa.