(lp0
S'Champania'
p1
aF3.6
aI63
a(lp2
(lp3
S'None'
p4
aS'None'
p5
aS'fruits vari\xc3\xa9s'
p6
aa(lp7
S'20.0'
p8
aS'cl de'
p9
aS'cognac'
p10
aa(lp11
S'20.0'
p12
aS'cl de'
p13
aS'porto blanc'
p14
aa(lp15
S'20.0'
p16
aS'cl de'
p17
aS'porto vintage'
p18
aa(lp19
S'100.0'
p20
aS'cl de'
p21
aS'champagne'
p22
aa(lp23
S'None'
p24
aS'None'
p25
aS'sucre'
p26
aa(lp27
S'None'
p28
aS'None'
p29
aS'cannelle'
p30
aa(lp31
S'None'
p32
aS'None'
p33
aS'gingembre'
p34
aaa.