(lp0
S'Orange House'
p1
aF3.0
aI3
a(lp2
(lp3
S'3.0'
p4
aS'cl de'
p5
aS'cr\xc3\xa8me de p\xc3\xaache de vigne'
p6
aa(lp7
S'3.0'
p8
aS'cl de'
p9
aS'triple sec (cointreau, grand marnier)'
p10
aa(lp11
S'10.0'
p12
aS'cl de'
p13
aS'sorbet \xc3\xa0 la mangue'
p14
aa(lp15
S'4.0'
p16
aS'cl de'
p17
aS"jus d'ananas"
p18
aaa.