(lp0
S'Vin de Camomille'
p1
aF2.6
aI28
a(lp2
(lp3
S'0.1'
p4
aS'bouteille de'
p5
aS'vin blanc'
p6
aa(lp7
S'4.0'
p8
aS'tetes de'
p9
aS'camomille'
p10
aa(lp11
S'2.0'
p12
aS"grammes d'"
p13
aS"\xc3\xa9corce d'orange"
p14
aa(lp15
S'3.0'
p16
aS'cubes de'
p17
aS'sucre'
p18
aa(lp19
S'0.1'
p20
aS'verre de'
p21
aS'rhum blanc'
p22
aa(lp23
S'0.1'
p24
aS'gousse de'
p25
aS'vanille'
p26
aaa.