(lp0
S'Malaga'
p1
aF2.9
aI64
a(lp2
(lp3
S'5.0'
p4
aS'cl de'
p5
aS'vin'
p6
aa(lp7
S'25.0'
p8
aS'grammes de'
p9
aS'sucre'
p10
aa(lp11
S'0.05'
p12
aS'None'
p13
aS'clous de girofle'
p14
aa(lp15
S'0.05'
p16
aS'None'
p17
aS'feuilles de laurier'
p18
aa(lp19
S'0.05'
p20
aS"verre d'"
p21
aS'eau-de-vie'
p22
aaa.