(lp0
S'M\xc3\xbbroise Martini'
p1
aF3.0
aI4
a(lp2
(lp3
S'2.0'
p4
aS'cl de'
p5
aS'gin'
p6
aa(lp7
S'2.0'
p8
aS'cl de'
p9
aS'lillet blanc'
p10
aa(lp11
S'2.0'
p12
aS'cl de'
p13
aS'cr\xc3\xa8me de m\xc3\xbbre'
p14
aa(lp15
S'2.0'
p16
aS'cl de'
p17
aS'jus de citrons'
p18
aa(lp19
S'None'
p20
aS"quelques goutes d'"
p21
aS'absinthe'
p22
aaa.