(lp0
S'Tilleul-orange'
p1
aF3.0
aI1
a(lp2
(lp3
S'60.0'
p4
aS'grammes de'
p5
aS'feuilles de tilleul'
p6
aa(lp7
S'10.0'
p8
aS'None'
p9
aS"feuilles d'oranger"
p10
aa(lp11
S'1.0'
p12
aS'None'
p13
aS'jus de citron'
p14
aaa.