(lp0
S'Naked & Famous'
p1
aF3.3
aI3
a(lp2
(lp3
S'3.0'
p4
aS'cl de'
p5
aS'mezcal'
p6
aa(lp7
S'3.0'
p8
aS"cl d'"
p9
aS'aperol'
p10
aa(lp11
S'3.0'
p12
aS'cl de'
p13
aS'chartreuse jaune'
p14
aa(lp15
S'3.0'
p16
aS'cl de'
p17
aS'jus de citrons verts'
p18
aaa.