(lp0
S'Yale cocktail'
p1
aF4.0
aI2
a(lp2
(lp3
S'5.0'
p4
aS'cl de'
p5
aS'gin'
p6
aa(lp7
S'2.0'
p8
aS'cl de'
p9
aS'vermouth blanc (martini, cinzano)'
p10
aa(lp11
S'0.25'
p12
aS'cuill\xc3\xa8re \xc3\xa0 caf\xc3\xa9 de'
p13
aS'marasquin'
p14
aa(lp15
S'3.0'
p16
aS'traits de'
p17
aS'angostura bitters'
p18
aaa.