(lp0
S'M.I.L.F.'
p1
aF3.0
aI2
a(lp2
(lp3
S'1.5'
p4
aS'cl de'
p5
aS'liqueur de vanille'
p6
aa(lp7
S'1.5'
p8
aS'cl de'
p9
aS'amaretto'
p10
aa(lp11
S'1.5'
p12
aS'cl de'
p13
aS'triple sec (cointreau, grand marnier)'
p14
aaa.