(lp0
S'Thunder and lightning'
p1
aF3.6
aI19
a(lp2
(lp3
S'1.0'
p4
aS'None'
p5
aS'oeuf'
p6
aa(lp7
S'2.0'
p8
aS'cl de'
p9
aS'rhum blanc'
p10
aa(lp11
S'2.0'
p12
aS'cl de'
p13
aS'cognac'
p14
aa(lp15
S'0.5'
p16
aS'cuill\xc3\xa8re de'
p17
aS'sucre'
p18
aaa.