(lp0
S'Detox-me'
p1
aF2.7
aI29
a(lp2
(lp3
S'4.0'
p4
aS'None'
p5
aS'oranges'
p6
aa(lp7
S'4.0'
p8
aS'None'
p9
aS'citrons'
p10
aa(lp11
S'3.0'
p12
aS"grosses poign\xc3\xa9es d'"
p13
aS'\xc3\xa9pinards'
p14
aa(lp15
S'7.0'
p16
aS'branches de'
p17
aS'persil'
p18
aa(lp19
S'15.0'
p20
aS'grammes de'
p21
aS'gingembre'
p22
aa(lp23
S'6.0'
p24
aS'grammes de'
p25
aS'curcuma'
p26
aa(lp27
S'1.0'
p28
aS'petit'
p29
aS'piment'
p30
aaa.