(lp0
S'Ward Eigth (Ward 8)'
p1
aF3.8
aI13
a(lp2
(lp3
S'6.0'
p4
aS'cl de'
p5
aS'whisky (bourbon, whiskey)'
p6
aa(lp7
S'1.5'
p8
aS'cl de'
p9
aS'jus de citrons'
p10
aa(lp11
S'1.0'
p12
aS'cuill\xc3\xa8re \xc3\xa0 caf\xc3\xa9 de'
p13
aS'sirop de grenadine'
p14
aa(lp15
S'0.5'
p16
aS'cl de'
p17
aS'sucre'
p18
aa(lp19
S'1.5'
p20
aS'cl de'
p21
aS"jus d'oranges"
p22
aaa.