(lp0
S'Sunset Martini'
p1
aF3.4
aI7
a(lp2
(lp3
S'7.0'
p4
aS'cl de'
p5
aS'gin'
p6
aa(lp7
S'2.0'
p8
aS'cl de'
p9
aS'vermouth rouge (martini, cinzano)'
p10
aa(lp11
S'2.0'
p12
aS'cl de'
p13
aS'vermouth dry (martini, noilly prat)'
p14
aaa.