(lp0
S"Frisson d'ev\xc3\xaache"
p1
aF2.7
aI3
a(lp2
(lp3
S'50.0'
p4
aS'cl de'
p5
aS'th\xc3\xa9'
p6
aa(lp7
S'125.0'
p8
aS'grammes de'
p9
aS'sucre en morceaux'
p10
aa(lp11
S'1.0'
p12
aS"litre d'"
p13
aS'eau'
p14
aa(lp15
S'1.0'
p16
aS'petit verre de'
p17
aS'rhum blanc'
p18
aa(lp19
S'None'
p20
aS'rondelles de'
p21
aS'citrons'
p22
aaa.