(lp0
S'City coral'
p1
aF3.0
aI1
a(lp2
(lp3
S'None'
p4
aS'None'
p5
aS'tonic (schweppes)'
p6
aa(lp7
S'0.5'
p8
aS'cl de'
p9
aS'cura\xc3\xa7ao bleu'
p10
aa(lp11
S'2.0'
p12
aS'cl de'
p13
aS'jus de pamplemousses'
p14
aa(lp15
S'2.0'
p16
aS'cl de'
p17
aS'midori'
p18
aa(lp19
S'2.0'
p20
aS'cl de'
p21
aS'gin'
p22
aaa.