(lp0
S'The Ice Lud'
p1
aF4.4
aI7
a(lp2
(lp3
S'10.0'
p4
aS'cl de'
p5
aS'limonade (soda, sprite, 7up)'
p6
aa(lp7
S'1.5'
p8
aS'cuill\xc3\xa8re de'
p9
aS'sucre'
p10
aa(lp11
S'4.0'
p12
aS'cl de'
p13
aS'citrons'
p14
aa(lp15
S'3.0'
p16
aS'cl de'
p17
aS'rhum blanc'
p18
aaa.