(lp0
S'Coca\xc3\xafne liquide'
p1
aF3.2
aI336
a(lp2
(lp3
S'0.333333333333'
p4
aS'de'
p5
aS'vodka'
p6
aa(lp7
S'0.333333333333'
p8
aS'de'
p9
aS'tequila'
p10
aa(lp11
S'0.333333333333'
p12
aS'de'
p13
aS'cura\xc3\xa7ao bleu'
p14
aaa.