(lp0
S'Vin de vanille'
p1
aF2.9
aI7
a(lp2
(lp3
S'1.0'
p4
aS'litre de'
p5
aS'vin blanc'
p6
aa(lp7
S'20.0'
p8
aS'cl de'
p9
aS'vodka'
p10
aa(lp11
S'200.0'
p12
aS'grammes de'
p13
aS'sucre'
p14
aa(lp15
S'1.0'
p16
aS'zeste'
p17
aS'citrons'
p18
aa(lp19
S'1.0'
p20
aS'gousse de'
p21
aS'vanille'
p22
aaa.