(lp0
S'Mure special'
p1
aF3.6
aI8
a(lp2
(lp3
S'6.0'
p4
aS'cl de'
p5
aS'lait'
p6
aa(lp7
S'2.0'
p8
aS'boules de'
p9
aS'sorbet \xc3\xa0 la vanille'
p10
aa(lp11
S'4.0'
p12
aS'cl de'
p13
aS'sirop de m\xc3\xbbre'
p14
aaa.