(lp0
S'Chodo antillais'
p1
aF4.8
aI4
a(lp2
(lp3
S'600.0'
p4
aS'grammes de'
p5
aS'lait concentr\xc3\xa9 sucr\xc3\xa9'
p6
aa(lp7
S'1.0'
p8
aS"litre d'"
p9
aS'eau'
p10
aa(lp11
S'5.0'
p12
aS'None'
p13
aS'oeufs'
p14
aa(lp15
S'1.0'
p16
aS'morceau de'
p17
aS'cannelle'
p18
aa(lp19
S'1.0'
p20
aS'gousse de'
p21
aS'vanille'
p22
aaa.