(lp0
S'Nature Joyeuse'
p1
aF5.0
aI1
a(lp2
(lp3
S'2.0'
p4
aS'cuill\xc3\xa8res \xc3\xa0 soupe'
p5
aS'feuilles de m\xc3\xa9lisse'
p6
aa(lp7
S'2.0'
p8
aS'cuill\xc3\xa8res \xc3\xa0 soupe'
p9
aS'feuilles de tilleul'
p10
aa(lp11
S'2.0'
p12
aS'cuill\xc3\xa8res \xc3\xa0 soupe'
p13
aS'fleurs de camomille'
p14
aa(lp15
S'2.0'
p16
aS'cuill\xc3\xa8res \xc3\xa0 soupe'
p17
aS"semences d'anis vert"
p18
aa(lp19
S'4.0'
p20
aS'cuill\xc3\xa8res \xc3\xa0 soupe'
p21
aS"fleurs d'aub\xc3\xa9pine"
p22
aa(lp23
S'4.0'
p24
aS'cuill\xc3\xa8res \xc3\xa0 soupe'
p25
aS'fleurs de lavande'
p26
aa(lp27
S'4.0'
p28
aS'cuill\xc3\xa8res \xc3\xa0 soupe'
p29
aS'racines de val\xc3\xa9rianne'
p30
aaa.