(lp0
S'Chez des Amis'
p1
aF4.0
aI1
a(lp2
(lp3
S'0.5'
p4
aS'cl de'
p5
aS'mangalore'
p6
aa(lp7
S'2.0'
p8
aS'cl de'
p9
aS'jus de citrons verts'
p10
aa(lp11
S'7.0'
p12
aS'cl de'
p13
aS'jus de lychees (litchis)'
p14
aa(lp15
S'2.0'
p16
aS'cl de'
p17
aS'liqueur de vanille'
p18
aa(lp19
S'3.0'
p20
aS'cl de'
p21
aS'sirop de grenade'
p22
aa(lp23
S'1.0'
p24
aS'tranche de'
p25
aS'gingembre'
p26
aaa.