(lp0
S'Red, white and blue'
p1
aF3.1
aI8
a(lp2
(lp3
S'1.0'
p4
aS'mesure de'
p5
aS'sirop de grenadine'
p6
aa(lp7
S'1.0'
p8
aS'mesure de'
p9
aS'cr\xc3\xa8me de p\xc3\xaache'
p10
aa(lp11
S'1.0'
p12
aS'mesure de'
p13
aS'cura\xc3\xa7ao bleu'
p14
aaa.