(lp0
S'Aberdeen Angus'
p1
aF3.0
aI22
a(lp2
(lp3
S'5.0'
p4
aS'cl de'
p5
aS'whisky (bourbon, whiskey)'
p6
aa(lp7
S'2.0'
p8
aS'cl de'
p9
aS'drambuie'
p10
aa(lp11
S'1.0'
p12
aS'cl de'
p13
aS'sirop de miel'
p14
aa(lp15
S'1.0'
p16
aS'cl de'
p17
aS'jus de citrons verts'
p18
aaa.