(lp0
S'Charlesyde'
p1
aF4.2
aI6
a(lp2
(lp3
S'3.5'
p4
aS'cl de'
p5
aS'liqueur de lychees (soho, litchao)'
p6
aa(lp7
S'5.5'
p8
aS'cl de'
p9
aS'jus de bananes'
p10
aa(lp11
S'0.5'
p12
aS'cl de'
p13
aS'sirop de fraises'
p14
aaa.