(lp0
S'Trois ilet punch'
p1
aF3.3
aI3
a(lp2
(lp3
S'2.0'
p4
aS'cl de'
p5
aS'sirop de grenadine'
p6
aa(lp7
S'10.0'
p8
aS'cl de'
p9
aS"jus d'ananas"
p10
aa(lp11
S'15.0'
p12
aS'cl de'
p13
aS'jus de citrons'
p14
aa(lp15
S'4.0'
p16
aS'cl de'
p17
aS'amaretto'
p18
aa(lp19
S'5.0'
p20
aS'cl de'
p21
aS'rhum ambr\xc3\xa9'
p22
aa(lp23
S'25.0'
p24
aS'cl de'
p25
aS'rhum blanc'
p26
aaa.