(lp0
S'Hot bullshop'
p1
aF4.0
aI1
a(lp2
(lp3
S'0.5'
p4
aS'cl de'
p5
aS'tabasco'
p6
aa(lp7
S'0.5'
p8
aS'cl de'
p9
aS'sauce worcestershire'
p10
aa(lp11
S'0.5'
p12
aS'jus'
p13
aS'citrons'
p14
aa(lp15
S'4.0'
p16
aS'cl de'
p17
aS'vodka'
p18
aa(lp19
S'0.5'
p20
aS'None'
p21
aS'cube de bouillon de boeuf'
p22
aaa.