(lp0
S'31st Birthday'
p1
aF3.7
aI10
a(lp2
(lp3
S'2.0'
p4
aS'cl de'
p5
aS'liqueur de menthe blanche (get 31)'
p6
aa(lp7
S'0.5'
p8
aS'cuill\xc3\xa8re de'
p9
aS'nutella'
p10
aa(lp11
S'12.5'
p12
aS'grammes de'
p13
aS'fruit de la passion (maracuja)'
p14
aaa.