(lp0
S'Abricot Frapp\xc3\xa9'
p1
aF3.6
aI317
a(lp2
(lp3
S'8.0'
p4
aS'cl de'
p5
aS"jus d'abricots"
p6
aa(lp7
S'6.0'
p8
aS'cl de'
p9
aS"jus d'ananas"
p10
aa(lp11
S'2.0'
p12
aS'cl de'
p13
aS'jus de citrons verts'
p14
aa(lp15
S'2.0'
p16
aS'cl de'
p17
aS'sirop de cerise'
p18
aaa.