(lp0
S"Punch d'\xc3\xa9t\xc3\xa9"
p1
aF3.2
aI624
a(lp2
(lp3
S'4.0'
p4
aS'cl de'
p5
aS'sirop de cannelle'
p6
aa(lp7
S'4.0'
p8
aS'None'
p9
aS'clous de girofle'
p10
aa(lp11
S'100.0'
p12
aS'cl de'
p13
aS'sirop de miel'
p14
aa(lp15
S'50.0'
p16
aS'cl de'
p17
aS'jus de pommes'
p18
aa(lp19
S'50.0'
p20
aS'cl de'
p21
aS"jus d'ananas"
p22
aa(lp23
S'20.0'
p24
aS'cl de'
p25
aS"jus d'oranges"
p26
aa(lp27
S'5.0'
p28
aS'cl de'
p29
aS'jus de citrons'
p30
aaa.