(lp0
S'Venus as a boy'
p1
aF3.0
aI2
a(lp2
(lp3
S'5.0'
p4
aS'cl de'
p5
aS"jus d'ananas"
p6
aa(lp7
S'2.0'
p8
aS'cl de'
p9
aS'liqueur de fraises'
p10
aa(lp11
S'1.0'
p12
aS'cl de'
p13
aS'liqueur de lychees (soho, litchao)'
p14
aaa.