(lp0
S'Bloody maria'
p1
aF4.0
aI2
a(lp2
(lp3
S'None'
p4
aS'None'
p5
aS'sel de c\xc3\xa9leri'
p6
aa(lp7
S'7.0'
p8
aS'cl de'
p9
aS'jus de tomates'
p10
aa(lp11
S'3.0'
p12
aS'cl de'
p13
aS'tequila'
p14
aa(lp15
S'0.5'
p16
aS'cl de'
p17
aS'jus de citrons'
p18
aa(lp19
S'0.5'
p20
aS'cl de'
p21
aS'sauce anglaise'
p22
aa(lp23
S'0.5'
p24
aS'cl de'
p25
aS'tabasco'
p26
aaa.