(lp0
S'Mer du sud'
p1
aF3.4
aI33
a(lp2
(lp3
S'1.0'
p4
aS'cl de'
p5
aS'sirop de sucre de canne'
p6
aa(lp7
S'2.0'
p8
aS'cl de'
p9
aS'cura\xc3\xa7ao bleu'
p10
aa(lp11
S'5.0'
p12
aS'cl de'
p13
aS'gin'
p14
aa(lp15
S'17.0'
p16
aS'cl de'
p17
aS'limonade (soda, sprite, 7up)'
p18
aaa.