(lp0
S'Classico'
p1
aF3.7
aI3
a(lp2
(lp3
S'4.0'
p4
aS'cl de'
p5
aS'liqueur de gentiane'
p6
aa(lp7
S'10.0'
p8
aS'cl de'
p9
aS'eau gazeuse (perrier, salvetat)'
p10
aa(lp11
S'1.0'
p12
aS'trait de'
p13
aS'sirop de menthe glaciale'
p14
aa(lp15
S'1.5'
p16
aS'gouttes de'
p17
aS'angostura bitters'
p18
aaa.