(lp0
S'Soupe Angevine'
p1
aF3.2
aI1717
a(lp2
(lp3
S'75.0'
p4
aS'cl de'
p5
aS'vin mousseux'
p6
aa(lp7
S'10.0'
p8
aS'cl de'
p9
aS'jus de citrons'
p10
aa(lp11
S'10.0'
p12
aS'cl de'
p13
aS'sirop de sucre de canne'
p14
aa(lp15
S'10.0'
p16
aS'cl de'
p17
aS'triple sec (cointreau, grand marnier)'
p18
aaa.