(lp0
S'Tequila Cocktail'
p1
aF3.0
aI2
a(lp2
(lp3
S'6.0'
p4
aS'cl de'
p5
aS'tequila'
p6
aa(lp7
S'2.0'
p8
aS'cl de'
p9
aS'jus de citrons verts'
p10
aa(lp11
S'0.25'
p12
aS'cuill\xc3\xa8re \xc3\xa0 caf\xc3\xa9 de'
p13
aS'sirop de grenadine'
p14
aa(lp15
S'0.5'
p16
aS'cl de'
p17
aS'angostura bitters'
p18
aaa.