(lp0
S'Caesar'
p1
aF4.0
aI2
a(lp2
(lp3
S'10.0'
p4
aS'cl de'
p5
aS'vodka'
p6
aa(lp7
S'10.0'
p8
aS'cl de'
p9
aS'jus de raisins'
p10
aa(lp11
S'10.0'
p12
aS'cl de'
p13
aS"jus d'oranges"
p14
aa(lp15
S'1.0'
p16
aS"rondelle d'"
p17
aS'oranges'
p18
aa(lp19
S'5.0'
p20
aS'cl de'
p21
aS'jus de pamplemousses'
p22
aaa.