(lp0
S'Chocolat viennois express'
p1
aF4.0
aI5
a(lp2
(lp3
S'170.0'
p4
aS'grammes de'
p5
aS'chocolat'
p6
aa(lp7
S'80.0'
p8
aS'cl de'
p9
aS'lait'
p10
aa(lp11
S'10.0'
p12
aS"cl d'"
p13
aS'eau'
p14
aa(lp15
S'None'
p16
aS'None'
p17
aS'cr\xc3\xa8me chantilly'
p18
aaa.