(lp0
S'High light'
p1
aF3.2
aI6
a(lp2
(lp3
S'2.0'
p4
aS'cl de'
p5
aS'gin'
p6
aa(lp7
S'0.5'
p8
aS'cl de'
p9
aS'amaretto'
p10
aa(lp11
S'0.5'
p12
aS'cl de'
p13
aS'liqueur de fraises'
p14
aa(lp15
S'3.0'
p16
aS'cl de'
p17
aS'jus de fruit de la passion (maracuja)'
p18
aa(lp19
S'1.5'
p20
aS'cl de'
p21
aS"jus d'abricots"
p22
aaa.