(lp0
S'Frugality cup'
p1
aF4.3
aI3
a(lp2
(lp3
S'1.0'
p4
aS'bouteille de'
p5
aS'rhum blanc'
p6
aa(lp7
S'30.0'
p8
aS'cl de'
p9
aS'sirop de sucre de canne'
p10
aa(lp11
S'300.0'
p12
aS'g de'
p13
aS'fruits de saison'
p14
aaa.