(lp0
S'Tiramisu martini'
p1
aF3.2
aI6
a(lp2
(lp3
S'1.0'
p4
aS'gouttes de'
p5
aS'liqueur de cacao brun'
p6
aa(lp7
S'12.0'
p8
aS'cl de'
p9
aS'vodka vanille'
p10
aa(lp11
S'3.0'
p12
aS'cl de'
p13
aS'liqueur de noisettes'
p14
aa(lp15
S'4.0'
p16
aS'cl de'
p17
aS'liqueur de cacao blanc'
p18
aa(lp19
S'1.0'
p20
aS'gouttes de'
p21
aS'cr\xc3\xa8me fra\xc3\xaeche liquide'
p22
aaa.