(lp0
S'Orange Amn\xc3\xa9sik'
p1
aF5.0
aI4
a(lp2
(lp3
S'3.0'
p4
aS'cuill\xc3\xa8res \xc3\xa0 soupe'
p5
aS"semences d'anis vert"
p6
aa(lp7
S'4.0'
p8
aS'cuill\xc3\xa8res \xc3\xa0 soupe'
p9
aS'bract\xc3\xa9es de tilleul'
p10
aa(lp11
S'4.0'
p12
aS'cuill\xc3\xa8res \xc3\xa0 soupe'
p13
aS'feuilles de thym'
p14
aa(lp15
S'5.0'
p16
aS'cuill\xc3\xa8res \xc3\xa0 soupe'
p17
aS'feuilles de m\xc3\xa9lisse'
p18
aa(lp19
S'4.0'
p20
aS'cuill\xc3\xa8res \xc3\xa0 soupe'
p21
aS"fleurs d'oranger"
p22
aa(lp23
S'4.0'
p24
aS'cuill\xc3\xa8res \xc3\xa0 soupe'
p25
aS'feuilles de romarin'
p26
aaa.