(lp0
S'French Love'
p1
aF3.0
aI2
a(lp2
(lp3
S'1.0'
p4
aS'cl de'
p5
aS'cr\xc3\xa8me de m\xc3\xbbre'
p6
aa(lp7
S'4.0'
p8
aS'cl de'
p9
aS'vodka'
p10
aa(lp11
S'2.0'
p12
aS'cl de'
p13
aS'jus de cranberry (canneberges)'
p14
aa(lp15
S'None'
p16
aS'None'
p17
aS'champagne'
p18
aaa.