(lp0
S'Lucky bitch'
p1
aF4.0
aI1
a(lp2
(lp3
S'1.0'
p4
aS'cl de'
p5
aS"sirop d'estragon"
p6
aa(lp7
S'1.0'
p8
aS'cl de'
p9
aS'sirop de pomme verte'
p10
aa(lp11
S'1.0'
p12
aS'cl de'
p13
aS'lime cordial'
p14
aa(lp15
S'3.0'
p16
aS'cl de'
p17
aS'liqueur de jasmin'
p18
aaa.