(lp0
S'Liqueur de coings'
p1
aF2.8
aI19
a(lp2
(lp3
S'1.0'
p4
aS'kg de'
p5
aS'coings'
p6
aa(lp7
S'1.0'
p8
aS"litre d'"
p9
aS'alcool de fruits'
p10
aa(lp11
S'400.0'
p12
aS'grammes de'
p13
aS'sucre'
p14
aa(lp15
S'1.0'
p16
aS'None'
p17
aS'anis \xc3\xa9toil\xc3\xa9'
p18
aa(lp19
S'2.0'
p20
aS'None'
p21
aS'oranges'
p22
aaa.