(lp0
S'Petit poislait'
p1
aF3.0
aI8
a(lp2
(lp3
S'100.0'
p4
aS'grammes de'
p5
aS'petits pois'
p6
aa(lp7
S'25.0'
p8
aS'grammes de'
p9
aS'fromage frais'
p10
aa(lp11
S'15.0'
p12
aS'cl de'
p13
aS'lait'
p14
aaa.