(lp0
S'French slash'
p1
aF2.7
aI19
a(lp2
(lp3
S'1.0'
p4
aS'feuille de'
p5
aS'g\xc3\xa9latine'
p6
aa(lp7
S'1.0'
p8
aS'petite '
p9
aS'fraises'
p10
aa(lp11
S'4.0'
p12
aS'cl de'
p13
aS'liqueur de mandarine'
p14
aa(lp15
S'None'
p16
aS'None'
p17
aS'champagne'
p18
aaa.