(lp0
S"Liqueur d'absinthe"
p1
aF3.2
aI54
a(lp2
(lp3
S'50.0'
p4
aS'grammes de'
p5
aS"feuilles d'absinthe"
p6
aa(lp7
S'1.0'
p8
aS"litre d'"
p9
aS'eau-de-vie'
p10
aa(lp11
S'50.0'
p12
aS'cl de'
p13
aS'sirop de sucre de canne'
p14
aaa.