(lp0
S'Tender Green'
p1
aF4.0
aI1
a(lp2
(lp3
S'None'
p4
aS'None'
p5
aS'noix de coco r\xc3\xa2p\xc3\xa9e'
p6
aa(lp7
S'1.0'
p8
aS'cl de'
p9
aS'sirop de citron vert'
p10
aa(lp11
S'10.0'
p12
aS'cl de'
p13
aS'cr\xc3\xa8me fra\xc3\xaeche liquide'
p14
aa(lp15
S'20.0'
p16
aS'cl de'
p17
aS"jus d'ananas"
p18
aa(lp19
S'10.0'
p20
aS'cl de'
p21
aS'cura\xc3\xa7ao bleu'
p22
aaa.