(lp0
S'Remember the maine'
p1
aF4.2
aI5
a(lp2
(lp3
S'None'
p4
aS'None'
p5
aS'eau'
p6
aa(lp7
S'3.0'
p8
aS"cl d'"
p9
aS'absinthe'
p10
aa(lp11
S'6.0'
p12
aS'cl de'
p13
aS'whisky (bourbon, whiskey)'
p14
aa(lp15
S'2.0'
p16
aS'cl de'
p17
aS'liqueur de cerises (cherry brandy)'
p18
aa(lp19
S'2.0'
p20
aS'cl de'
p21
aS'vermouth rouge (martini, cinzano)'
p22
aaa.