(lp0
S'Sex on the snow'
p1
aF4.0
aI1
a(lp2
(lp3
S'1.0'
p4
aS'cl de'
p5
aS'amarula'
p6
aa(lp7
S'1.0'
p8
aS'cl de'
p9
aS'frangelico'
p10
aa(lp11
S'1.0'
p12
aS'cl de'
p13
aS'cr\xc3\xa8me de whisky (baileys)'
p14
aa(lp15
S'1.0'
p16
aS'pinc\xc3\xa9es de'
p17
aS'cannelle'
p18
aaa.