(lp0
S'America'
p1
aF3.3
aI22
a(lp2
(lp3
S'3.0'
p4
aS'cl de'
p5
aS'cognac'
p6
aa(lp7
S'2.0'
p8
aS'cl de'
p9
aS"jus d'ananas"
p10
aa(lp11
S'1.5'
p12
aS'cl de'
p13
aS'jus de fruit de la passion (maracuja)'
p14
aa(lp15
S'1.0'
p16
aS'cl de'
p17
aS'liqueur de coco (cocogif, malibu)'
p18
aa(lp19
S'0.5'
p20
aS'cl de'
p21
aS'cr\xc3\xa8me fra\xc3\xaeche liquide'
p22
aaa.