(lp0
S'Coconut White'
p1
aF4.1
aI10
a(lp2
(lp3
S'10.0'
p4
aS'gouttes de'
p5
aS'sirop de fruit de la passion (maracuja)'
p6
aa(lp7
S'4.0'
p8
aS'cl de'
p9
aS'liqueur de coco (cocogif, malibu)'
p10
aa(lp11
S'2.0'
p12
aS'cl de'
p13
aS'sirop de sucre de canne'
p14
aa(lp15
S'8.0'
p16
aS'cl de'
p17
aS'lait de coco'
p18
aa(lp19
S'4.0'
p20
aS'cl de'
p21
aS'rhum blanc'
p22
aa(lp23
S'2.0'
p24
aS'cl de'
p25
aS'sirop de fraises'
p26
aaa.