(lp0
S'Chemical'
p1
aF3.3
aI10
a(lp2
(lp3
S'35.0'
p4
aS'cl de'
p5
aS'vodka'
p6
aa(lp7
S'50.0'
p8
aS'cl de'
p9
aS"jus d'oranges"
p10
aa(lp11
S'50.0'
p12
aS'cl de'
p13
aS'ginger ale (canada dry)'
p14
aa(lp15
S'0.5'
p16
aS"litre d'"
p17
aS'eau gazeuse (perrier, salvetat)'
p18
aaa.