(lp0
S'Smoothie Royal'
p1
aF4.0
aI2
a(lp2
(lp3
S'4.0'
p4
aS'cl de'
p5
aS'pur\xc3\xa9e de fraise'
p6
aa(lp7
S'2.0'
p8
aS'cl de'
p9
aS'sirop de tarte au citron'
p10
aa(lp11
S'2.0'
p12
aS'cl de'
p13
aS'jus de citrons verts'
p14
aa(lp15
S'1.0'
p16
aS'None'
p17
aS'yaourt nature'
p18
aaa.