(lp0
S'Rhum arrang\xc3\xa9 simple'
p1
aF3.0
aI151
a(lp2
(lp3
S'7.0'
p4
aS'cl de'
p5
aS'sirop de sucre de canne'
p6
aa(lp7
S'4.0'
p8
aS'gousses de'
p9
aS'vanille'
p10
aa(lp11
S'7.0'
p12
aS'cl de'
p13
aS'jus de citrons verts'
p14
aa(lp15
S'1.0'
p16
aS'litres de'
p17
aS'rhum blanc'
p18
aaa.