(lp0
S'Grog whisky-tilleul'
p1
aF3.0
aI3
a(lp2
(lp3
S'2.0'
p4
aS'cuill\xc3\xa8re \xc3\xa0 caf\xc3\xa9 de'
p5
aS'sucre'
p6
aa(lp7
S'0.5'
p8
aS'cl de'
p9
aS'vanille'
p10
aa(lp11
S'4.0'
p12
aS'cl de'
p13
aS'whisky (bourbon, whiskey)'
p14
aa(lp15
S'25.0'
p16
aS'cl de'
p17
aS'tisane au tilleul'
p18
aaa.