(lp0
S"Liqueur d'orange"
p1
aF2.6
aI17
a(lp2
(lp3
S'1.0'
p4
aS'litre de'
p5
aS'vodka'
p6
aa(lp7
S'1.0'
p8
aS'None'
p9
aS'orange'
p10
aa(lp11
S'250.0'
p12
aS'grammes de'
p13
aS'sirop de sucre de canne'
p14
aaa.