(lp0
S'After Eight Shot'
p1
aF3.2
aI107
a(lp2
(lp3
S'1.0'
p4
aS'mesure de'
p5
aS'cr\xc3\xa8me de whisky (baileys)'
p6
aa(lp7
S'1.0'
p8
aS'mesure de'
p9
aS'liqueur de cacao brun'
p10
aa(lp11
S'1.0'
p12
aS'mesure de'
p13
aS'liqueur de menthe blanche (get 31)'
p14
aaa.