(lp0
S'Cr\xc3\xa8me de rose'
p1
aF3.3
aI26
a(lp2
(lp3
S'500.0'
p4
aS'grammes de'
p5
aS'p\xc3\xa9tales de roses'
p6
aa(lp7
S'500.0'
p8
aS'grammes de'
p9
aS'sucre'
p10
aa(lp11
S'1.0'
p12
aS'litres de'
p13
aS'gin'
p14
aaa.