(lp0
S'Kado Koi Cocktail'
p1
aF5.0
aI2
a(lp2
(lp3
S'1.0'
p4
aS'cl de'
p5
aS'angostura bitters'
p6
aa(lp7
S'2.0'
p8
aS'cl de'
p9
aS'rhum blanc'
p10
aa(lp11
S'2.0'
p12
aS'cl de'
p13
aS'vermouth blanc (martini, cinzano)'
p14
aa(lp15
S'4.0'
p16
aS'cl de'
p17
aS'angostura bitters'
p18
aaa.