(lp0
S'El Habano'
p1
aF3.0
aI2
a(lp2
(lp3
S'1.0'
p4
aS'cl de'
p5
aS'whisky (bourbon, whiskey)'
p6
aa(lp7
S'4.0'
p8
aS'cl de'
p9
aS'rhum cubain'
p10
aa(lp11
S'1.0'
p12
aS'cl de'
p13
aS'sirop de noisette grill\xc3\xa9e'
p14
aa(lp15
S'4.0'
p16
aS"goutes d'"
p17
aS'angostura bitters'
p18
aaa.