(lp0
S'Vin de griotte'
p1
aF3.0
aI5
a(lp2
(lp3
S'1.0'
p4
aS'litres de'
p5
aS'vin ros\xc3\xa9'
p6
aa(lp7
S'80.0'
p8
aS'None'
p9
aS'feuilles de griottier'
p10
aa(lp11
S'10.0'
p12
aS'cl de'
p13
aS'sirop de grenadine'
p14
aa(lp15
S'10.0'
p16
aS'cl de'
p17
aS'kirsch'
p18
aaa.