(lp0
S'Beefeater Martini'
p1
aF3.4
aI17
a(lp2
(lp3
S'5.0'
p4
aS'cl de'
p5
aS'gin'
p6
aa(lp7
S'0.5'
p8
aS'cl de'
p9
aS'vermouth blanc (martini, cinzano)'
p10
aa(lp11
S'0.5'
p12
aS'cl de'
p13
aS'vermouth dry (martini, noilly prat)'
p14
aaa.