(lp0
S'Sirop de chocolat'
p1
aF3.5
aI11
a(lp2
(lp3
S'10.0'
p4
aS'grammes de'
p5
aS'sucre'
p6
aa(lp7
S'0.3'
p8
aS'pinc\xc3\xa9es de'
p9
aS'caf\xc3\xa9 soluble'
p10
aa(lp11
S'1.2'
p12
aS"cl d'"
p13
aS'eau'
p14
aa(lp15
S'0.8'
p16
aS'cuill\xc3\xa8res \xc3\xa0 soupe de'
p17
aS'cacao en poudre'
p18
aaa.