(lp0
S'Elephant rose'
p1
aF3.1
aI94
a(lp2
(lp3
S'2.0'
p4
aS'cl de'
p5
aS'triple sec (cointreau, grand marnier)'
p6
aa(lp7
S'2.0'
p8
aS'cl de'
p9
aS'rhum blanc'
p10
aa(lp11
S'1.0'
p12
aS'cl de'
p13
aS'sirop de fraises'
p14
aa(lp15
S'None'
p16
aS"jus d'un"
p17
aS'pamplemousses'
p18
aaa.