(lp0
S'Cafe de Olla'
p1
aF4.0
aI1
a(lp2
(lp3
S'0.166666666667'
p4
aS"litre d'"
p5
aS'eau'
p6
aa(lp7
S'1.66666666667'
p8
aS'cl de'
p9
aS'sirop de sucre de canne'
p10
aa(lp11
S'0.166666666667'
p12
aS'b\xc3\xa2ton de'
p13
aS'cannelle'
p14
aa(lp15
S'10.0'
p16
aS'grammes de'
p17
aS'caf\xc3\xa9 en poudre'
p18
aaa.