(lp0
S'Vegano'
p1
aF3.7
aI3
a(lp2
(lp3
S'5.0'
p4
aS'None'
p5
aS'fraises'
p6
aa(lp7
S'0.666666666667'
p8
aS'None'
p9
aS'p\xc3\xaaches'
p10
aa(lp11
S'2.33333333333'
p12
aS'feuilles de'
p13
aS'menthe'
p14
aa(lp15
S'0.333333333333'
p16
aS'None'
p17
aS'orange'
p18
aaa.