(lp0
S'Grog fran\xc3\xa7ais'
p1
aF3.0
aI1
a(lp2
(lp3
S'4.0'
p4
aS'cl de'
p5
aS'rhum ambr\xc3\xa9'
p6
aa(lp7
S'1.0'
p8
aS'morceau de'
p9
aS'sucre'
p10
aa(lp11
S'2.0'
p12
aS'None'
p13
aS'clous de girofle'
p14
aa(lp15
S'2.0'
p16
aS'cl de'
p17
aS'jus de citrons'
p18
aa(lp19
S'0.5'
p20
aS'cl de'
p21
aS'cannelle en poudre'
p22
aaa.