(lp0
S'Glace au caramel'
p1
aF3.8
aI65
a(lp2
(lp3
S'25.0'
p4
aS'cl de'
p5
aS'cr\xc3\xa8me fra\xc3\xaeche liquide'
p6
aa(lp7
S'4.0'
p8
aS"jaunes d'"
p9
aS'oeufs'
p10
aa(lp11
S'12.5'
p12
aS'cl de'
p13
aS'sirop de sucre de canne'
p14
aa(lp15
S'3.75'
p16
aS'morceaux de'
p17
aS'sucre'
p18
aa(lp19
S'2.5'
p20
aS"cl d'"
p21
aS'eau'
p22
aaa.