(lp0
S'Caf\xc3\x83\xc2\xa9 Royale'
p1
aF3.0
aI2
a(lp2
(lp3
S'2.0'
p4
aS'cl de'
p5
aS'chambord'
p6
aa(lp7
S'2.0'
p8
aS'cl de'
p9
aS'cr\xc3\x83\xc2\xa8me de whisky (baileys)'
p10
aa(lp11
S'1.0'
p12
aS'cl de'
p13
aS'liqueur de caf\xc3\x83\xc2\xa9 (kahlua, marie brizard)'
p14
aa(lp15
S'1.0'
p16
aS'cl de'
p17
aS'cr\xc3\x83\xc2\xa8me fra\xc3\x83\xc2\xaeche liquide'
p18
aaa.