(lp0
S'Kiss Cool Menthol'
p1
aF3.5
aI22
a(lp2
(lp3
S'2.0'
p4
aS'cl de'
p5
aS'liqueur de menthe verte (get 27)'
p6
aa(lp7
S'2.0'
p8
aS'cl de'
p9
aS'spiritueux anis\xc3\xa9 (pastis, ricard, pernod)'
p10
aaa.