(lp0
S'Maracuja cocktail'
p1
aF3.0
aI16
a(lp2
(lp3
S'1.0'
p4
aS'None'
p5
aS'fruit de la passion (maracuja)'
p6
aa(lp7
S'0.5'
p8
aS'None'
p9
aS'citrons vert'
p10
aa(lp11
S'1.0'
p12
aS'cuill\xc3\xa8re \xc3\xa0 soupe de'
p13
aS'sucre'
p14
aa(lp15
S'6.0'
p16
aS'cl de'
p17
aS'vodka'
p18
aaa.