(lp0
S'Awake'
p1
aF3.2
aI53
a(lp2
(lp3
S'250.0'
p4
aS'grammes de'
p5
aS'framboises'
p6
aa(lp7
S'9.0'
p8
aS'cl de'
p9
aS'sirop de cranberry'
p10
aa(lp11
S'1.0'
p12
aS'None'
p13
aS'yaourt nature'
p14
aa(lp15
S'25.0'
p16
aS'cl de'
p17
aS"jus d'oranges"
p18
aa(lp19
S'125.0'
p20
aS'grammes de'
p21
aS'fraises'
p22
aa(lp23
S'3.0'
p24
aS'cl de'
p25
aS'sirop de miel'
p26
aaa.