(lp0
S'Vodka caf\xc3\xa9'
p1
aF3.6
aI7
a(lp2
(lp3
S'0.05'
p4
aS'litre de '
p5
aS'vodka'
p6
aa(lp7
S'0.5'
p8
aS'cuill\xc3\xa8res de'
p9
aS'caf\xc3\xa9'
p10
aa(lp11
S'0.25'
p12
aS'cl de'
p13
aS'sirop de sucre de canne'
p14
aaa.