(lp0
S'Suza'
p1
aF3.5
aI15
a(lp2
(lp3
S'2.0'
p4
aS'cl de'
p5
aS'spiritueux anis\xc3\xa9 (pastis, ricard, pernod)'
p6
aa(lp7
S'5.0'
p8
aS'cl de'
p9
aS'liqueur de gentiane'
p10
aa(lp11
S'4.0'
p12
aS"cl d'"
p13
aS'eau gazeuse (perrier, salvetat)'
p14
aaa.