(lp0
S'Pot-au-rhum'
p1
aF2.7
aI17
a(lp2
(lp3
S'70.0'
p4
aS'cl de'
p5
aS'rhum blanc'
p6
aa(lp7
S'25.0'
p8
aS'cl de'
p9
aS'rhum ambr\xc3\xa9'
p10
aa(lp11
S'50.0'
p12
aS'cl de'
p13
aS'jus de mangues'
p14
aa(lp15
S'50.0'
p16
aS'cl de'
p17
aS"jus d'oranges"
p18
aa(lp19
S'20.0'
p20
aS'cl de'
p21
aS'jus de citrons'
p22
aa(lp23
S'50.0'
p24
aS'cl de'
p25
aS'jus de goyaves'
p26
aa(lp27
S'15.0'
p28
aS'cl de'
p29
aS'sirop de fruit de la passion (maracuja)'
p30
aa(lp31
S'5.0'
p32
aS'cl de'
p33
aS'sirop de vanille'
p34
aaa.