(lp0
S'Petite g\xc3\xa2terie'
p1
aF4.0
aI1
a(lp2
(lp3
S'2.0'
p4
aS'cl de'
p5
aS'gin'
p6
aa(lp7
S'1.5'
p8
aS'cl de'
p9
aS'amaretto'
p10
aa(lp11
S'1.5'
p12
aS'cl de'
p13
aS'liqueur de cacao blanc'
p14
aa(lp15
S'2.0'
p16
aS'cl de'
p17
aS'cr\xc3\xa8me de cerises'
p18
aaa.