(lp0
S"Douceur d'Asie"
p1
aF3.6
aI48
a(lp2
(lp3
S'6.0'
p4
aS'cl de'
p5
aS'liqueur de lychees (soho, litchao)'
p6
aa(lp7
S'10.0'
p8
aS'cl de'
p9
aS'jus de lychees (litchis)'
p10
aa(lp11
S'6.0'
p12
aS'cl de'
p13
aS'lait de coco'
p14
aaa.