(lp0
S'Cool collins'
p1
aF4.1
aI12
a(lp2
(lp3
S'6.0'
p4
aS'cl de'
p5
aS'jus de citrons'
p6
aa(lp7
S'0.5'
p8
aS'cl de'
p9
aS'sucre'
p10
aa(lp11
S'7.0'
p12
aS'None'
p13
aS'feuilles de menthe'
p14
aa(lp15
S'None'
p16
aS'None'
p17
aS'eau gazeuse (perrier, salvetat)'
p18
aaa.