(lp0
S'Cappuccino LICOR 43 special'
p1
aF3.3
aI48
a(lp2
(lp3
S'1.0'
p4
aS'pinc\xc3\xa9e de'
p5
aS'chocolat amer en poudre'
p6
aa(lp7
S'None'
p8
aS'None'
p9
aS'cr\xc3\xa8me chantilly'
p10
aa(lp11
S'0.5'
p12
aS'cl de'
p13
aS'sucre'
p14
aa(lp15
S'1.0'
p16
aS'cl de'
p17
aS'chocolat en poudre'
p18
aa(lp19
S'15.0'
p20
aS'cl de'
p21
aS'lait'
p22
aa(lp23
S'1.0'
p24
aS'None'
p25
aS'sachet de cappucino'
p26
aa(lp27
S'2.0'
p28
aS'cl de'
p29
aS'licor 43'
p30
aaa.