(lp0
S'Forest Mystery'
p1
aF3.2
aI5
a(lp2
(lp3
S'2.0'
p4
aS'cl de'
p5
aS"sirop d'estragon"
p6
aa(lp7
S'1.5'
p8
aS'cl de'
p9
aS'sirop de basilic'
p10
aa(lp11
S'2.0'
p12
aS'cl de'
p13
aS'jus de citrons verts'
p14
aa(lp15
S'4.0'
p16
aS'cl de'
p17
aS'rhum blanc'
p18
aa(lp19
S'6.0'
p20
aS'feuilles de'
p21
aS'menthe'
p22
aa(lp23
S'None'
p24
aS'None'
p25
aS'eau gazeuse (perrier, salvetat)'
p26
aaa.