(lp0
S'Vin de p\xc3\xa2querette'
p1
aF3.3
aI4
a(lp2
(lp3
S'0.15'
p4
aS'litres de'
p5
aS'fleurs de p\xc3\xa2querette'
p6
aa(lp7
S'0.05'
p8
aS'None'
p9
aS'orange'
p10
aa(lp11
S'0.05'
p12
aS'None'
p13
aS'citron'
p14
aa(lp15
S'None'
p16
aS'None'
p17
aS'gingembre'
p18
aa(lp19
S'0.075'
p20
aS'kilos de'
p21
aS'sucre'
p22
aa(lp23
S'None'
p24
aS'None'
p25
aS'levure de bi\xc3\xa8re'
p26
aaa.