(lp0
S'Malagua'
p1
aF3.7
aI3
a(lp2
(lp3
S'1.0'
p4
aS'None'
p5
aS'pomme'
p6
aa(lp7
S'0.5'
p8
aS'None'
p9
aS'concombre'
p10
aa(lp11
S'1.0'
p12
aS'poign\xc3\xa9e de'
p13
aS'cresson'
p14
aa(lp15
S'3.0'
p16
aS'brins de'
p17
aS'menthe'
p18
aa(lp19
S'30.0'
p20
aS"cl d'"
p21
aS'eau'
p22
aa(lp23
S'1.0'
p24
aS'cuill\xc3\xa8re \xc3\xa0 caf\xc3\xa9 de'
p25
aS'vinaigre'
p26
aaa.