(lp0
S'Granit\xc3\xa9 Vodka Citron'
p1
aF3.9
aI28
a(lp2
(lp3
S'15.0'
p4
aS'cl de'
p5
aS'jus de citrons'
p6
aa(lp7
S'5.0'
p8
aS'cl de'
p9
aS'jus de citrons verts'
p10
aa(lp11
S'6.0'
p12
aS'cl de'
p13
aS'vodka'
p14
aa(lp15
S'1.0'
p16
aS'None'
p17
aS'citron'
p18
aa(lp19
S'1.0'
p20
aS'feuille de'
p21
aS'citrons verts'
p22
aa(lp23
S'50.0'
p24
aS'grammes de'
p25
aS'sucre'
p26
aa(lp27
S'10.0'
p28
aS"cl d'"
p29
aS'eau'
p30
aaa.