(lp0
S"Sweet 'n Sour 2"
p1
aF3.1
aI7
a(lp2
(lp3
S'20.0'
p4
aS'cl de'
p5
aS"jus d'oranges"
p6
aa(lp7
S'1.0'
p8
aS'cl de'
p9
aS'sirop de sucre de canne'
p10
aa(lp11
S'1.0'
p12
aS'cl de'
p13
aS'sirop de citrons'
p14
aa(lp15
S'1.5'
p16
aS"litres d'"
p17
aS'eau'
p18
aaa.