(lp0
S'Felicitation'
p1
aF3.5
aI4
a(lp2
(lp3
S'3.0'
p4
aS'cl de'
p5
aS"jus d'oranges"
p6
aa(lp7
S'3.0'
p8
aS'cl de'
p9
aS'jus de tomates'
p10
aa(lp11
S'3.0'
p12
aS'cl de'
p13
aS'jus de cassis'
p14
aa(lp15
S'1.0'
p16
aS'None'
p17
aS'oeuf'
p18
aaa.