(lp0
S'Limonade basque'
p1
aF3.3
aI7
a(lp2
(lp3
S'6.0'
p4
aS'None'
p5
aS'citrons'
p6
aa(lp7
S'1.0'
p8
aS'bouteille de'
p9
aS'vin'
p10
aa(lp11
S'1.0'
p12
aS'bouteille de'
p13
aS'vin blanc'
p14
aa(lp15
S'250.0'
p16
aS'grammes de'
p17
aS'sucre'
p18
aaa.