(lp0
S'Lolo to night for ever'
p1
aF2.2
aI5
a(lp2
(lp3
S'4.0'
p4
aS'cl de'
p5
aS'liqueur de coco (cocogif, malibu)'
p6
aa(lp7
S'4.0'
p8
aS'cl de'
p9
aS'passoa'
p10
aa(lp11
S'2.0'
p12
aS'cl de'
p13
aS'liqueur de lychees (soho, litchao)'
p14
aa(lp15
S'4.0'
p16
aS'cl de'
p17
aS'gin'
p18
aa(lp19
S'1.0'
p20
aS'cl de'
p21
aS'vodka'
p22
aa(lp23
S'2.0'
p24
aS'cl de'
p25
aS'vermouth blanc (martini, cinzano)'
p26
aa(lp27
S'15.0'
p28
aS'cl de'
p29
aS'jus de bananes'
p30
aa(lp31
S'2.0'
p32
aS'cl de'
p33
aS'sirop de p\xc3\xaache'
p34
aaa.