(lp0
S'Red lady'
p1
aF3.0
aI1
a(lp2
(lp3
S'0.5'
p4
aS'cl de'
p5
aS'lait concentr\xc3\xa9 sucr\xc3\xa9'
p6
aa(lp7
S'3.0'
p8
aS'cl de'
p9
aS'cognac'
p10
aa(lp11
S'1.5'
p12
aS'cl de'
p13
aS'liqueur de cacao blanc'
p14
aa(lp15
S'2.0'
p16
aS'cl de'
p17
aS'liqueur de fraises'
p18
aaa.