(lp0
S'Cointreau revolution'
p1
aF3.4
aI57
a(lp2
(lp3
S'0.5'
p4
aS'cl de'
p5
aS'cura\xc3\xa7ao bleu'
p6
aa(lp7
S'1.5'
p8
aS'cl de'
p9
aS'vodka'
p10
aa(lp11
S'2.0'
p12
aS'cl de'
p13
aS'triple sec (cointreau, grand marnier)'
p14
aa(lp15
S'1.0'
p16
aS'cl de'
p17
aS'cr\xc3\xa8me de fruit de la passion'
p18
aa(lp19
S'2.0'
p20
aS'cl de'
p21
aS"jus d'ananas"
p22
aaa.