(lp0
S'Trouspinette (Troussepinette)'
p1
aF3.0
aI29
a(lp2
(lp3
S'0.2'
p4
aS'litres de'
p5
aS'vin rouge'
p6
aa(lp7
S'0.05'
p8
aS"poign\xc3\xa9e d'"
p9
aS'\xc3\xa9pines noires'
p10
aa(lp11
S'0.05'
p12
aS"litre d'"
p13
aS'eau-de-vie \xc3\xa0 40\xc2\xb0'
p14
aa(lp15
S'25.0'
p16
aS'grammes de'
p17
aS'sucre'
p18
aaa.