(lp0
S'Little one'
p1
aF3.0
aI1
a(lp2
(lp3
S'None'
p4
aS'jus'
p5
aS'pamplemousses'
p6
aa(lp7
S'1.5'
p8
aS'cl de'
p9
aS'vodka'
p10
aa(lp11
S'1.5'
p12
aS'cl de'
p13
aS'cura\xc3\xa7ao bleu'
p14
aa(lp15
S'0.5'
p16
aS'cl de'
p17
aS'parfait amour'
p18
aa(lp19
S'0.5'
p20
aS'cl de'
p21
aS"liqueur d'abricots (abricot brandy)"
p22
aa(lp23
S'3.0'
p24
aS'cl de'
p25
aS'jus de pamplemousses'
p26
aaa.