(lp0
S'Kir surprise'
p1
aF3.1
aI34
a(lp2
(lp3
S'50.0'
p4
aS'cl de'
p5
aS'vin blanc'
p6
aa(lp7
S'25.0'
p8
aS'cl de'
p9
aS'guignolet'
p10
aa(lp11
S'25.0'
p12
aS'cl de'
p13
aS'vermouth blanc (martini, cinzano)'
p14
aa(lp15
S'1.0'
p16
aS'bouchon de'
p17
aS'triple sec (cointreau, grand marnier)'
p18
aaa.