(lp0
S'Smoothie banane'
p1
aF3.5
aI2
a(lp2
(lp3
S'1.0'
p4
aS'None'
p5
aS'banane'
p6
aa(lp7
S'1.0'
p8
aS'cuill\xc3\xa8re \xc3\xa0 caf\xc3\xa9 de'
p9
aS'miel'
p10
aa(lp11
S'25.0'
p12
aS'cl de'
p13
aS'lait'
p14
aa(lp15
S'0.5'
p16
aS'None'
p17
aS'citrons vert'
p18
aaa.