(lp0
S'Ferry boat'
p1
aF2.8
aI9
a(lp2
(lp3
S'0.5'
p4
aS'cl de'
p5
aS'cr\xc3\xa8me fra\xc3\xaeche liquide'
p6
aa(lp7
S'3.0'
p8
aS'cl de'
p9
aS'whisky (bourbon, whiskey)'
p10
aa(lp11
S'2.0'
p12
aS'cl de'
p13
aS'liqueur de cacao blanc'
p14
aa(lp15
S'2.0'
p16
aS'cl de'
p17
aS'triple sec (cointreau, grand marnier)'
p18
aaa.