(lp0
S'Inspiration'
p1
aF3.5
aI2
a(lp2
(lp3
S'2.0'
p4
aS'cuill\xc3\xa8res \xc3\xa0 soupe de'
p5
aS'yaourt nature'
p6
aa(lp7
S'1.0'
p8
aS'poign\xc3\xa9e de'
p9
aS'framboises'
p10
aa(lp11
S'2.0'
p12
aS'None'
p13
aS'citrons verts'
p14
aa(lp15
S'0.5'
p16
aS'None'
p17
aS'avocat'
p18
aa(lp19
S'2.0'
p20
aS'cl de'
p21
aS'lait'
p22
aa(lp23
S'2.0'
p24
aS'cuill\xc3\xa8res \xc3\xa0 caf\xc3\xa9 de'
p25
aS"sirop d'\xc3\xa9rable"
p26
aaa.