(lp0
S'Bahia Felipe'
p1
aF2.9
aI8
a(lp2
(lp3
S'1.0'
p4
aS'cl de'
p5
aS'vodka'
p6
aa(lp7
S'1.0'
p8
aS'cl de'
p9
aS'gin'
p10
aa(lp11
S'1.5'
p12
aS'cl de'
p13
aS'rhum blanc'
p14
aa(lp15
S'6.0'
p16
aS'cl de'
p17
aS'limonade (soda, sprite, 7up)'
p18
aa(lp19
S'3.0'
p20
aS'cl de'
p21
aS"jus d'ananas"
p22
aa(lp23
S'1.0'
p24
aS'cl de'
p25
aS'jus de citrons'
p26
aa(lp27
S'6.0'
p28
aS'cl de'
p29
aS'cura\xc3\xa7ao bleu'
p30
aaa.