(lp0
S'Pineapple and Sage mojito'
p1
aF4.0
aI2
a(lp2
(lp3
S'5.0'
p4
aS'cl de'
p5
aS'rhum cubain'
p6
aa(lp7
S'5.0'
p8
aS'cl de'
p9
aS"pur\xc3\xa9e d'ananas"
p10
aa(lp11
S'2.5'
p12
aS'cl de'
p13
aS'jus de citrons verts'
p14
aa(lp15
S'5.0'
p16
aS'feuilles de'
p17
aS'sauge'
p18
aa(lp19
S'None'
p20
aS'None'
p21
aS'limonade (soda, sprite, 7up)'
p22
aa(lp23
S'1.0'
p24
aS'cuill\xc3\xa8re \xc3\xa0 caf\xc3\xa9 de'
p25
aS'sucre roux (cassonade)'
p26
aaa.