(lp0
S'Bali'
p1
aF3.8
aI8
a(lp2
(lp3
S'5.0'
p4
aS'cl de'
p5
aS'jus de fruits exotiques'
p6
aa(lp7
S'3.0'
p8
aS'cl de'
p9
aS'whisky (bourbon, whiskey)'
p10
aa(lp11
S'1.0'
p12
aS'cl de'
p13
aS'vermouth blanc (martini, cinzano)'
p14
aa(lp15
S'1.0'
p16
aS'cl de'
p17
aS'cura\xc3\xa7ao bleu'
p18
aaa.