(lp0
S'Eguisheim'
p1
aF3.7
aI21
a(lp2
(lp3
S'2.0'
p4
aS'cl de'
p5
aS'liqueur de framboises'
p6
aa(lp7
S'2.0'
p8
aS'cl de'
p9
aS'cr\xc3\xa8me de fraises'
p10
aa(lp11
S'5.0'
p12
aS'cl de'
p13
aS'kirsch'
p14
aa(lp15
S'1.0'
p16
aS"jaune d'"
p17
aS'oeufs'
p18
aaa.