(lp0
S'Pisse d\xe2\x80\x99Anne'
p1
aF3.0
aI143
a(lp2
(lp3
S'1.2'
p4
aS'kilo de'
p5
aS'sirop de miel'
p6
aa(lp7
S'1.0'
p8
aS'gousse de'
p9
aS'vanille'
p10
aa(lp11
S'2.5'
p12
aS"litres d'"
p13
aS'eau'
p14
aa(lp15
S'50.0'
p16
aS'grammes de'
p17
aS"fleurs d'oranger"
p18
aa(lp19
S'10.0'
p20
aS'grammes de'
p21
aS'levure de boulanger'
p22
aa(lp23
S'20.0'
p24
aS'grammes de'
p25
aS'gingembre'
p26
aa(lp27
S'3.0'
p28
aS'grammes de'
p29
aS'cardamome'
p30
aaa.