(lp0
S'Cointreau Teese'
p1
aF3.5
aI22
a(lp2
(lp3
S'4.0'
p4
aS'cl de'
p5
aS'triple sec (cointreau, grand marnier)'
p6
aa(lp7
S'2.0'
p8
aS'cl de'
p9
aS'jus de pommes'
p10
aa(lp11
S'1.5'
p12
aS'cl de'
p13
aS'sirop de violette'
p14
aa(lp15
S'1.5'
p16
aS'cl de'
p17
aS'jus de citrons'
p18
aaa.