(lp0
S'Verveine glac\xc3\xa9e'
p1
aF3.0
aI3
a(lp2
(lp3
S'4.0'
p4
aS'sachets de'
p5
aS'verveine'
p6
aa(lp7
S'40.0'
p8
aS'grammes de'
p9
aS'sucre'
p10
aa(lp11
S'4.0'
p12
aS'rondelles de'
p13
aS'citrons'
p14
aaa.