(lp0
S'Tijuana Car Bomb'
p1
aF2.5
aI2
a(lp2
(lp3
S'15.0'
p4
aS'cl de'
p5
aS'bi\xc3\x83\xc2\xa8re'
p6
aa(lp7
S'2.0'
p8
aS'cl de'
p9
aS'liqueur de caf\xc3\x83\xc2\xa9 (kahlua, marie brizard)'
p10
aa(lp11
S'2.0'
p12
aS'cl de'
p13
aS'tequila'
p14
aaa.