(lp0
S'Bamboo'
p1
aF3.5
aI2
a(lp2
(lp3
S'5.0'
p4
aS'cl de'
p5
aS'vermouth dry (martini, noilly prat)'
p6
aa(lp7
S'5.0'
p8
aS'cl de'
p9
aS'x\xc3\xa9r\xc3\xa8s (sherry)'
p10
aa(lp11
S'2.0'
p12
aS"traits d'"
p13
aS'angostura orange bitters'
p14
aaa.