(lp0
S'Liqueur de sapin'
p1
aF3.1
aI10
a(lp2
(lp3
S'None'
p4
aS"un peu d'"
p5
aS'eau'
p6
aa(lp7
S'300.0'
p8
aS'grammes de'
p9
aS'sucre'
p10
aa(lp11
S'100.0'
p12
aS'grammes de'
p13
aS'bourgeons de sapin'
p14
aa(lp15
S'0.5'
p16
aS"litre d'"
p17
aS'eau-de-vie'
p18
aaa.