(lp0
S'PC Punch'
p1
aF4.0
aI3
a(lp2
(lp3
S'1.0'
p4
aS'cl de'
p5
aS'schnapps \xc3\xa0 la p\xc3\xaache'
p6
aa(lp7
S'2.0'
p8
aS'cl de'
p9
aS'rhum blanc'
p10
aa(lp11
S'4.0'
p12
aS'cl de'
p13
aS'jus de cranberry (canneberges)'
p14
aaa.