(lp0
S'After8'
p1
aF5.0
aI2
a(lp2
(lp3
S'4.5'
p4
aS'cl de'
p5
aS'liqueur de menthe verte (get 27)'
p6
aa(lp7
S'4.0'
p8
aS'cl de'
p9
aS'liqueur de cacao brun'
p10
aa(lp11
S'10.0'
p12
aS'cl de'
p13
aS'cr\xc3\xa8me fra\xc3\xaeche liquide'
p14
aa(lp15
S'1.5'
p16
aS'cl de'
p17
aS'brandy'
p18
aaa.