(lp0
S'Mamajuana'
p1
aF2.6
aI26
a(lp2
(lp3
S'30.0'
p4
aS'cl de'
p5
aS'rhum brun'
p6
aa(lp7
S'None'
p8
aS'None'
p9
aS'vin rouge'
p10
aa(lp11
S'10.0'
p12
aS'cl de'
p13
aS'sirop de miel'
p14
aa(lp15
S'None'
p16
aS'None'
p17
aS'bois de ga\xc3\xafac'
p18
aaa.