(lp0
S'Rhum gingembre'
p1
aF3.1
aI146
a(lp2
(lp3
S'0.5'
p4
aS'cuill\xc3\xa8re \xc3\xa0 caf\xc3\xa9 de'
p5
aS'sucre roux (cassonade)'
p6
aa(lp7
S'10.0'
p8
aS'cl de'
p9
aS'rhum blanc'
p10
aa(lp11
S'20.0'
p12
aS'grammes de'
p13
aS'gingembre'
p14
aaa.