(lp0
S'Marion'
p1
aF4.0
aI6
a(lp2
(lp3
S'3.0'
p4
aS'cl de'
p5
aS'rhum blanc'
p6
aa(lp7
S'1.5'
p8
aS'cl de'
p9
aS'liqueur mandarine napol\xc3\xa9on'
p10
aa(lp11
S'1.5'
p12
aS'cl de'
p13
aS'cr\xc3\xa8me de p\xc3\xaache'
p14
aa(lp15
S'1.0'
p16
aS'cl de'
p17
aS'jus de fruit de la passion (maracuja)'
p18
aaa.