(lp0
S'P\xc3\xaach\xc3\xa9 Originel'
p1
aF3.0
aI3
a(lp2
(lp3
S'3.0'
p4
aS'cl de'
p5
aS'calvados'
p6
aa(lp7
S'2.0'
p8
aS'cl de'
p9
aS'liqueur mandarine napol\xc3\xa9on'
p10
aa(lp11
S'1.0'
p12
aS'cl de'
p13
aS'cr\xc3\xa8me fra\xc3\xaeche liquide'
p14
aa(lp15
S'2.0'
p16
aS'cl de'
p17
aS'nectar de poires'
p18
aaa.