(lp0
S'Albermarle Fizz'
p1
aF3.5
aI48
a(lp2
(lp3
S'4.0'
p4
aS'cl de'
p5
aS'gin'
p6
aa(lp7
S'2.0'
p8
aS'cl de'
p9
aS'sirop de framboises'
p10
aa(lp11
S'1.0'
p12
aS'cl de'
p13
aS'jus de citrons verts'
p14
aa(lp15
S'None'
p16
aS'None'
p17
aS'eau gazeuse (perrier, salvetat)'
p18
aaa.