(lp0
S'Sangria blanche'
p1
aF3.0
aI293
a(lp2
(lp3
S'4.0'
p4
aS'cl de'
p5
aS'sirop de cannelle'
p6
aa(lp7
S'150.0'
p8
aS'grammes de'
p9
aS'sucre'
p10
aa(lp11
S'3.0'
p12
aS'bouteilles de'
p13
aS'vin blanc'
p14
aa(lp15
S'2.0'
p16
aS'None'
p17
aS'kiwis'
p18
aa(lp19
S'1.0'
p20
aS'None'
p21
aS'poire'
p22
aa(lp23
S'2.0'
p24
aS'None'
p25
aS'pommes'
p26
aa(lp27
S'5.0'
p28
aS'None'
p29
aS'kumquat'
p30
aa(lp31
S'1.0'
p32
aS'pinc\xc3\xa9e de'
p33
aS'poivre'
p34
aa(lp35
S'2.0'
p36
aS'None'
p37
aS'nectarines'
p38
aaa.