(lp0
S'Envo\xc3\xbbtement'
p1
aF3.0
aI3
a(lp2
(lp3
S'3.5'
p4
aS'cl de'
p5
aS'pineau des charentes'
p6
aa(lp7
S'2.0'
p8
aS'cl de'
p9
aS'angostura bitters'
p10
aa(lp11
S'1.5'
p12
aS'cl de'
p13
aS'safari'
p14
aaa.