(lp0
S'Glace au caf\xc3\xa9'
p1
aF3.4
aI71
a(lp2
(lp3
S'4.0'
p4
aS'cl de'
p5
aS'cr\xc3\xa8me fra\xc3\xaeche liquide'
p6
aa(lp7
S'0.2'
p8
aS'tasse de'
p9
aS'caf\xc3\xa9'
p10
aa(lp11
S'0.2'
p12
aS'sachet de'
p13
aS'sucre vanille'
p14
aa(lp15
S'20.0'
p16
aS'grammes de'
p17
aS'sucre'
p18
aa(lp19
S'0.2'
p20
aS'pinc\xc3\xa9e de'
p21
aS'sel'
p22
aaa.