(lp0
S'Green heart'
p1
aF3.8
aI8
a(lp2
(lp3
S'2.0'
p4
aS'cl de'
p5
aS'triple sec (cointreau, grand marnier)'
p6
aa(lp7
S'4.0'
p8
aS'cl de'
p9
aS'calvados'
p10
aa(lp11
S'1.0'
p12
aS'cl de'
p13
aS'jus de citrons verts'
p14
aa(lp15
S'2.0'
p16
aS'None'
p17
aS'feuilles de menthe'
p18
aa(lp19
S'1.0'
p20
aS'cuill\xc3\xa8re de'
p21
aS'sucre'
p22
aa(lp23
S'6.0'
p24
aS'cl de'
p25
aS'tonic (schweppes)'
p26
aaa.