(lp0
S'Atomic'
p1
aF3.6
aI152
a(lp2
(lp3
S'2.0'
p4
aS'cl de'
p5
aS'aquavit (akvavit)'
p6
aa(lp7
S'4.0'
p8
aS'cl de'
p9
aS'drambuie'
p10
aa(lp11
S'2.0'
p12
aS'cl de'
p13
aS'jus de citrons'
p14
aa(lp15
S'1.0'
p16
aS'cuill\xc3\xa8re de'
p17
aS'cognac'
p18
aaa.