(lp0
S'Iberie Cocktail'
p1
aF3.0
aI1
a(lp2
(lp3
S'1.0'
p4
aS'cl de'
p5
aS'sirop de fraises'
p6
aa(lp7
S'2.0'
p8
aS'cl de'
p9
aS'jus de citrons'
p10
aa(lp11
S'2.0'
p12
aS"cl d'"
p13
aS'anisette (berger blanc)'
p14
aa(lp15
S'6.0'
p16
aS'cl de'
p17
aS'cognac'
p18
aaa.