(lp0
S'Grenadier'
p1
aF3.9
aI16
a(lp2
(lp3
S'10.0'
p4
aS'cl de'
p5
aS"jus d'oranges"
p6
aa(lp7
S'8.0'
p8
aS'cl de'
p9
aS'nectar de p\xc3\xaaches'
p10
aa(lp11
S'2.0'
p12
aS'cl de'
p13
aS'sirop de framboises'
p14
aaa.