(lp0
S'Costa verde'
p1
aF3.0
aI1
a(lp2
(lp3
S'None'
p4
aS'None'
p5
aS'tonic (schweppes)'
p6
aa(lp7
S'3.0'
p8
aS'cl de'
p9
aS'jus de pamplemousses'
p10
aa(lp11
S'1.0'
p12
aS'cl de'
p13
aS'liqueur de bananes (pisang ambon)'
p14
aa(lp15
S'1.0'
p16
aS'cl de'
p17
aS'cura\xc3\xa7ao bleu'
p18
aaa.