(lp0
S'Angostura Fizz'
p1
aF3.5
aI72
a(lp2
(lp3
S'5.0'
p4
aS'cl de'
p5
aS'jus de citrons'
p6
aa(lp7
S'1.0'
p8
aS'cl de'
p9
aS'sirop de sucre de canne'
p10
aa(lp11
S'0.5'
p12
aS'cl de'
p13
aS'angostura bitters'
p14
aa(lp15
S'1.0'
p16
aS"blanc d'"
p17
aS'oeufs'
p18
aa(lp19
S'12.0'
p20
aS'cl de'
p21
aS'limonade (soda, sprite, 7up)'
p22
aaa.