(lp0
S'Grand frisson'
p1
aF3.5
aI2
a(lp2
(lp3
S'14.0'
p4
aS'cl de'
p5
aS'lait'
p6
aa(lp7
S'2.0'
p8
aS'cl de'
p9
aS'anisette (berger blanc)'
p10
aa(lp11
S'2.0'
p12
aS'cl de'
p13
aS'sirop de menthe'
p14
aaa.