(lp0
S'Punch La Madeira'
p1
aF3.1
aI54
a(lp2
(lp3
S'1.0'
p4
aS'litre de'
p5
aS'rhum cubain'
p6
aa(lp7
S'1.0'
p8
aS'litre de'
p9
aS'nectar de coco'
p10
aa(lp11
S'1.0'
p12
aS'litre de'
p13
aS'jus de bananes'
p14
aa(lp15
S'1.0'
p16
aS'litre de'
p17
aS"jus d'ananas"
p18
aa(lp19
S'10.0'
p20
aS'cl de'
p21
aS'liqueur de bananes (pisang ambon)'
p22
aa(lp23
S'10.0'
p24
aS'cl de'
p25
aS'liqueur de pommes (manzana, manzanita)'
p26
aa(lp27
S'3.0'
p28
aS'rondelles de'
p29
aS'ananas'
p30
aa(lp31
S'20.0'
p32
aS'feuilles de'
p33
aS'menthe'
p34
aaa.