(lp0
S'Tomato Mint'
p1
aF4.5
aI2
a(lp2
(lp3
S'15.0'
p4
aS'cl de'
p5
aS'jus de tomates'
p6
aa(lp7
S'1.0'
p8
aS'pinc\xc3\xa9es de'
p9
aS'c\xc3\xa9leri'
p10
aa(lp11
S'4.0'
p12
aS'cl de'
p13
aS'feuilles de menthe'
p14
aaa.