(lp0
S'Festrus'
p1
aF2.5
aI2
a(lp2
(lp3
S'0.333333333333'
p4
aS'volumes de'
p5
aS'vodka'
p6
aa(lp7
S'0.333333333333'
p8
aS'volumes de'
p9
aS'triple sec (cointreau, grand marnier)'
p10
aa(lp11
S'0.333333333333'
p12
aS'volumes de'
p13
aS'vermouth dry (martini, noilly prat)'
p14
aa(lp15
S'1.0'
p16
aS"zeste d'"
p17
aS'oranges'
p18
aaa.