(lp0
S'Apple Pie Punch'
p1
aF3.0
aI11
a(lp2
(lp3
S'0.5'
p4
aS'cl de'
p5
aS'sirop de cannelle'
p6
aa(lp7
S'2.0'
p8
aS'cl de'
p9
aS'jus de pommes'
p10
aa(lp11
S'1.5'
p12
aS'cl de'
p13
aS'cidre'
p14
aa(lp15
S'1.5'
p16
aS'cl de'
p17
aS'rhum cubain'
p18
aaa.