(lp0
S'Harvard Cocktail'
p1
aF3.8
aI5
a(lp2
(lp3
S'4.0'
p4
aS'cl de'
p5
aS'brandy'
p6
aa(lp7
S'1.0'
p8
aS'cl de'
p9
aS'vermouth blanc (martini, cinzano)'
p10
aa(lp11
S'2.0'
p12
aS'cuill\xc3\xa8re \xc3\xa0 caf\xc3\xa9 de'
p13
aS'jus de citrons'
p14
aa(lp15
S'0.5'
p16
aS'cl de'
p17
aS'sirop de grenadine'
p18
aa(lp19
S'0.5'
p20
aS'cl de'
p21
aS'angostura bitters'
p22
aaa.