(lp0
S'Photon'
p1
aF3.0
aI2
a(lp2
(lp3
S'3.0'
p4
aS'cl de'
p5
aS'rhum blanc'
p6
aa(lp7
S'3.0'
p8
aS'cl de'
p9
aS'jus de papaye'
p10
aa(lp11
S'3.0'
p12
aS'cl de'
p13
aS'jus de pamplemousses'
p14
aa(lp15
S'1.0'
p16
aS'cl de'
p17
aS'liqueur de fraises'
p18
aaa.