(lp0
S'B-52 in the Desert'
p1
aF3.2
aI18
a(lp2
(lp3
S'3.0'
p4
aS'cl de'
p5
aS'tequila'
p6
aa(lp7
S'3.0'
p8
aS'cl de'
p9
aS'cr\xc3\x83\xc2\xa8me de whisky (baileys)'
p10
aa(lp11
S'3.0'
p12
aS'cl de'
p13
aS'liqueur de caf\xc3\x83\xc2\xa9 (kahlua, marie brizard)'
p14
aaa.