(lp0
S'Liqueur de coco (Malibu)'
p1
aF3.2
aI49
a(lp2
(lp3
S'0.025'
p4
aS'verre de'
p5
aS'rhum blanc'
p6
aa(lp7
S'0.05'
p8
aS'verre de'
p9
aS'sirop de noix de coco'
p10
aa(lp11
S'0.05'
p12
aS'None'
p13
aS'noix de coco r\xc3\xa2p\xc3\xa9e'
p14
aaa.