(lp0
S'Pina Colada Special'
p1
aF3.4
aI97
a(lp2
(lp3
S'4.0'
p4
aS'cl de'
p5
aS'sirop de pina colada'
p6
aa(lp7
S'6.0'
p8
aS'cl de'
p9
aS'rhum blanc'
p10
aa(lp11
S'4.0'
p12
aS'cl de'
p13
aS'lait'
p14
aaa.