(lp0
S'R\xc3\xa9volution'
p1
aF2.5
aI4
a(lp2
(lp3
S'5.0'
p4
aS'cl de'
p5
aS'limonade (soda, sprite, 7up)'
p6
aa(lp7
S'4.0'
p8
aS'cl de'
p9
aS'rhum blanc'
p10
aa(lp11
S'2.0'
p12
aS'cl de'
p13
aS'liqueur de menthe verte (get 27)'
p14
aa(lp15
S'1.0'
p16
aS'cl de'
p17
aS'jus de citrons'
p18
aaa.