(lp0
S'Rue royale'
p1
aF3.3
aI12
a(lp2
(lp3
S'None'
p4
aS'None'
p5
aS'champagne'
p6
aa(lp7
S'4.0'
p8
aS'cl de'
p9
aS'cr\xc3\xa8me de framboise'
p10
aa(lp11
S'2.0'
p12
aS'cl de'
p13
aS'armagnac'
p14
aaa.