(lp0
S'Kir Vierge'
p1
aF3.0
aI2
a(lp2
(lp3
S'2.0'
p4
aS'cl de'
p5
aS'sirop de cassis'
p6
aa(lp7
S'5.0'
p8
aS"gouttes d'"
p9
aS'angostura bitters'
p10
aa(lp11
S'None'
p12
aS'None'
p13
aS'eau gazeuse (perrier, salvetat)'
p14
aaa.