(lp0
S'Punch antillais'
p1
aF3.2
aI101
a(lp2
(lp3
S'6.0'
p4
aS'cl de'
p5
aS'rhum blanc'
p6
aa(lp7
S'1.0'
p8
aS'cl de'
p9
aS'triple sec (cointreau, grand marnier)'
p10
aa(lp11
S'2.5'
p12
aS'cl de'
p13
aS'jus de citrons verts'
p14
aa(lp15
S'0.5'
p16
aS'trait de'
p17
aS'sirop de grenadine'
p18
aa(lp19
S'0.5'
p20
aS'cuill\xc3\xa8re \xc3\xa0 caf\xc3\xa9 de'
p21
aS'sucre'
p22
aa(lp23
S'None'
p24
aS'None'
p25
aS'eau gazeuse (perrier, salvetat)'
p26
aaa.