(lp0
S'Porto simili'
p1
aF2.4
aI8
a(lp2
(lp3
S'3.0'
p4
aS'cuill\xc3\xa8res \xc3\xa0 soupe de'
p5
aS'chicor\xc3\xa9e'
p6
aa(lp7
S'1.0'
p8
aS'litres de'
p9
aS'vin rouge'
p10
aa(lp11
S'12.0'
p12
aS"cl d'"
p13
aS'alcool \xc3\xa0 90\xc2\xb0'
p14
aa(lp15
S'1.0'
p16
aS'sachet de'
p17
aS'sucre vanill\xc3\xa9'
p18
aa(lp19
S'130.0'
p20
aS'grammes de'
p21
aS'sucre'
p22
aa(lp23
S'None'
p24
aS"zestes d'une"
p25
aS'oranges'
p26
aa(lp27
S'None'
p28
aS"zestes d'un"
p29
aS'citrons'
p30
aaa.