(lp0
S'Texas fizz'
p1
aF3.7
aI15
a(lp2
(lp3
S'None'
p4
aS'None'
p5
aS'limonade (soda, sprite, 7up)'
p6
aa(lp7
S'5.0'
p8
aS'cl de'
p9
aS'gin'
p10
aa(lp11
S'3.0'
p12
aS'trais de'
p13
aS'liqueur de framboises'
p14
aa(lp15
S'2.0'
p16
aS'cl de'
p17
aS"jus d'oranges"
p18
aa(lp19
S'2.0'
p20
aS'cl de'
p21
aS'jus de citrons'
p22
aa(lp23
S'2.0'
p24
aS'cl de'
p25
aS'vermouth blanc (martini, cinzano)'
p26
aaa.