(lp0
S'L.A. sunrise'
p1
aF4.0
aI2
a(lp2
(lp3
S'6.0'
p4
aS'cl de'
p5
aS"jus d'oranges"
p6
aa(lp7
S'6.0'
p8
aS'cl de'
p9
aS"jus d'ananas"
p10
aa(lp11
S'3.0'
p12
aS'cl de'
p13
aS'vodka'
p14
aa(lp15
S'1.5'
p16
aS'cl de'
p17
aS'cr\xc3\xa8me de bananes'
p18
aa(lp19
S'1.0'
p20
aS'cl de'
p21
aS'rhum blanc'
p22
aaa.