(lp0
S'Bananas'
p1
aF3.6
aI25
a(lp2
(lp3
S'4.0'
p4
aS'cl de'
p5
aS'vodka'
p6
aa(lp7
S'2.0'
p8
aS'cl de'
p9
aS'cr\xc3\xa8me de bananes'
p10
aa(lp11
S'2.0'
p12
aS'cl de'
p13
aS'sirop de fraises'
p14
aa(lp15
S'1.0'
p16
aS'cl de'
p17
aS'sirop de citrons'
p18
aa(lp19
S'4.0'
p20
aS'cl de'
p21
aS"jus d'ananas"
p22
aaa.