(lp0
S'Pilypily'
p1
aF4.5
aI2
a(lp2
(lp3
S'4.0'
p4
aS'cl de'
p5
aS'vodka'
p6
aa(lp7
S'0.5'
p8
aS'cuill\xc3\xa8re a caf\xc3\xa9 de'
p9
aS'pur\xc3\xa9 de piment'
p10
aa(lp11
S'10.0'
p12
aS'gouttes de'
p13
aS'tabasco'
p14
aaa.