(lp0
S'Centenario'
p1
aF1.7
aI3
a(lp2
(lp3
S'4.0'
p4
aS'cl de'
p5
aS'rhum ambr\xc3\xa9'
p6
aa(lp7
S'2.0'
p8
aS'cl de'
p9
aS'rhum blanc'
p10
aa(lp11
S'1.0'
p12
aS'cl de'
p13
aS'sirop de grenadine'
p14
aa(lp15
S'1.0'
p16
aS'cl de'
p17
aS'triple sec (cointreau, grand marnier)'
p18
aa(lp19
S'1.0'
p20
aS'cl de'
p21
aS'liqueur de caf\xc3\xa9 (kahlua, marie brizard)'
p22
aa(lp23
S'1.0'
p24
aS'jus'
p25
aS'citrons verts'
p26
aaa.