(lp0
S'Apple pear'
p1
aF2.5
aI4
a(lp2
(lp3
S'4.0'
p4
aS'cl de'
p5
aS'vodka'
p6
aa(lp7
S'2.0'
p8
aS'cl de'
p9
aS'liqueur de pommes (manzana, manzanita)'
p10
aa(lp11
S'1.0'
p12
aS'cl de'
p13
aS'liqueur de coco (cocogif, malibu)'
p14
aa(lp15
S'4.0'
p16
aS'cl de'
p17
aS'jus de poires'
p18
aa(lp19
S'2.0'
p20
aS'cl de'
p21
aS'sirop de bananes'
p22
aaa.