(lp0
S'Chartreuse Jaune'
p1
aF3.7
aI3
a(lp2
(lp3
S'2.0'
p4
aS'grammes de'
p5
aS'noix de muscade r\xc3\xa2p\xc3\xa9e'
p6
aa(lp7
S'1.0'
p8
aS"gramme de racine d'"
p9
aS'ang\xc3\xa9lique'
p10
aa(lp11
S'2.0'
p12
aS'grammes de'
p13
aS'badiane'
p14
aa(lp15
S'1.0'
p16
aS'gramme de grains de'
p17
aS'fenouil'
p18
aa(lp19
S'1.0'
p20
aS'gramme de grains de'
p21
aS'cumin'
p22
aa(lp23
S'0.25'
p24
aS'grammes de pistil de'
p25
aS'safran'
p26
aa(lp27
S'1.0'
p28
aS"litre d'"
p29
aS'alcool \xc3\xa0 70\xc2\xb0'
p30
aa(lp31
S'700.0'
p32
aS'grammes de'
p33
aS'sucre'
p34
aaa.