(lp0
S'Caf\xc3\xa9 Amaretto'
p1
aF3.1
aI21
a(lp2
(lp3
S'None'
p4
aS'None'
p5
aS'cr\xc3\xa8me chantilly'
p6
aa(lp7
S'1.0'
p8
aS'tasse de'
p9
aS'caf\xc3\xa9'
p10
aa(lp11
S'2.0'
p12
aS'cl de'
p13
aS'liqueur de caf\xc3\xa9 (kahlua, marie brizard)'
p14
aa(lp15
S'2.0'
p16
aS"cl d'"
p17
aS'amaretto'
p18
aaa.