(lp0
S'MandaBa'
p1
aF3.0
aI1
a(lp2
(lp3
S'4.0'
p4
aS'cl de'
p5
aS'absolut mandarine'
p6
aa(lp7
S'1.0'
p8
aS'cl de'
p9
aS'sirop de grenadine'
p10
aa(lp11
S'8.0'
p12
aS'cl de'
p13
aS'jus de bananes'
p14
aaa.