(lp0
S'Wesley'
p1
aF3.5
aI23
a(lp2
(lp3
S'10.0'
p4
aS'cl de'
p5
aS'whisky (bourbon, whiskey)'
p6
aa(lp7
S'10.0'
p8
aS'cl de'
p9
aS'bi\xc3\xa8re'
p10
aa(lp11
S'10.0'
p12
aS'cl de'
p13
aS'cola (coca cola, pepsi)'
p14
aaa.