(lp0
S"Liqueur d'arquebuse"
p1
aF2.2
aI22
a(lp2
(lp3
S'2.0'
p4
aS"branches d'"
p5
aS'arquebuses'
p6
aa(lp7
S'1.0'
p8
aS"litre d'"
p9
aS'alcool de fruits'
p10
aa(lp11
S'10.0'
p12
aS'morceaux de'
p13
aS'sucre'
p14
aaa.