(lp0
S'Caviar de fruits'
p1
aF3.3
aI51
a(lp2
(lp3
S'20.0'
p4
aS'cl de'
p5
aS'jus de raisins'
p6
aa(lp7
S'4.0'
p8
aS'grammes de'
p9
aS'g\xc3\xa9latine en poudre'
p10
aa(lp11
S'20.0'
p12
aS"cl d'"
p13
aS'huile v\xc3\xa9g\xc3\xa9tale'
p14
aaa.