(lp0
S'Solfatare'
p1
aF4.2
aI19
a(lp2
(lp3
S'0.125'
p4
aS'de'
p5
aS'vodka'
p6
aa(lp7
S'0.125'
p8
aS'de'
p9
aS'triple sec (cointreau, grand marnier)'
p10
aa(lp11
S'0.125'
p12
aS'de'
p13
aS'aquavit (akvavit)'
p14
aa(lp15
S'0.125'
p16
aS'de'
p17
aS'tequila'
p18
aa(lp19
S'0.125'
p20
aS'de'
p21
aS'rhum blanc'
p22
aa(lp23
S'0.125'
p24
aS'de'
p25
aS'gin'
p26
aa(lp27
S'0.125'
p28
aS'de'
p29
aS'eau-de-vie de poires william'
p30
aa(lp31
S'0.125'
p32
aS'de'
p33
aS'marc italien (grappa)'
p34
aaa.