(lp0
S'Princess l\xc3\xa9ia'
p1
aF3.5
aI2
a(lp2
(lp3
S'6.0'
p4
aS'cl de'
p5
aS'limonade (soda, sprite, 7up)'
p6
aa(lp7
S'2.0'
p8
aS'cl de'
p9
aS'tequila'
p10
aa(lp11
S'2.0'
p12
aS'cl de'
p13
aS'liqueur de fraises des bois'
p14
aaa.