(lp0
S'Appletini (Abricotini)'
p1
aF3.5
aI44
a(lp2
(lp3
S'5.0'
p4
aS'cl de'
p5
aS'vodka'
p6
aa(lp7
S'1.5'
p8
aS'cl de'
p9
aS'triple sec (cointreau, grand marnier)'
p10
aa(lp11
S'1.5'
p12
aS'cl de'
p13
aS'schnaps \xc3\xa0 la pomme'
p14
aaa.