(lp0
S'Carenum'
p1
aF3.0
aI2
a(lp2
(lp3
S'3.0'
p4
aS'litres de'
p5
aS'vin blanc'
p6
aa(lp7
S'500.0'
p8
aS'grammes de'
p9
aS'sirop de miel'
p10
aa(lp11
S'1.0'
p12
aS'poign\xc3\xa9e de'
p13
aS'baies de geni\xc3\xa8vre'
p14
aa(lp15
S'10.0'
p16
aS'grains de'
p17
aS'poivre'
p18
aa(lp19
S'3.0'
p20
aS'b\xc3\xa2tons de'
p21
aS'cannelle'
p22
aa(lp23
S'0.5'
p24
aS'branche de'
p25
aS'fenouil'
p26
aa(lp27
S'10.0'
p28
aS'None'
p29
aS'noix'
p30
aaa.