(lp0
S'Point bleu'
p1
aF3.0
aI4
a(lp2
(lp3
S'None'
p4
aS'None'
p5
aS'limonade (soda, sprite, 7up)'
p6
aa(lp7
S'2.0'
p8
aS'cl de'
p9
aS'cura\xc3\xa7ao bleu'
p10
aa(lp11
S'2.0'
p12
aS'cl de'
p13
aS'jus de citrons'
p14
aa(lp15
S'2.0'
p16
aS'cl de'
p17
aS'anisette (berger blanc)'
p18
aaa.