(lp0
S'Vin de sauge'
p1
aF3.1
aI8
a(lp2
(lp3
S'0.1'
p4
aS'bouteille de'
p5
aS'vin rouge'
p6
aa(lp7
S'0.5'
p8
aS'cuill\xc3\xa8res \xc3\xa0 soupe de'
p9
aS'sucre'
p10
aa(lp11
S'5.0'
p12
aS'grammes de'
p13
aS'sauge'
p14
aaa.