(lp0
S'Senior Tom Coconuts'
p1
aF2.5
aI4
a(lp2
(lp3
S'2.5'
p4
aS'cl de'
p5
aS'lait de coco'
p6
aa(lp7
S'2.0'
p8
aS'cl de'
p9
aS'vodka'
p10
aa(lp11
S'2.0'
p12
aS'cl de'
p13
aS'liqueur de menthe blanche (get 31)'
p14
aa(lp15
S'2.0'
p16
aS'cl de'
p17
aS'liqueur de coco (cocogif, malibu)'
p18
aa(lp19
S'2.0'
p20
aS'pinc\xc3\xa9es de'
p21
aS'sucre'
p22
aaa.