(lp0
S'Lagoon 5'
p1
aF4.0
aI1
a(lp2
(lp3
S'4.0'
p4
aS'cl de'
p5
aS'vodka'
p6
aa(lp7
S'1.0'
p8
aS'cl de'
p9
aS'cura\xc3\xa7ao bleu'
p10
aa(lp11
S'1.0'
p12
aS'cl de'
p13
aS'sirop de gingembre'
p14
aa(lp15
S'None'
p16
aS'None'
p17
aS'tonic (schweppes)'
p18
aa(lp19
S'15.0'
p20
aS'None'
p21
aS'myrtilles (bleuets)'
p22
aaa.