(lp0
S'Bicerin'
p1
aF3.5
aI2
a(lp2
(lp3
S'1.0'
p4
aS'None'
p5
aS'caf\xc3\xa9'
p6
aa(lp7
S'2.0'
p8
aS'cuill\xc3\xa8res \xc3\xa0 soupe de'
p9
aS'chocolat en poudre'
p10
aa(lp11
S'10.0'
p12
aS'cl de'
p13
aS'lait'
p14
aa(lp15
S'2.0'
p16
aS'cuill\xc3\xa8res \xc3\xa0 soupe de'
p17
aS'cr\xc3\xa8me fra\xc3\xaeche liquide'
p18
aaa.