(lp0
S'\xc3\x89mois'
p1
aF3.7
aI3
a(lp2
(lp3
S'3.0'
p4
aS'cl de'
p5
aS'cognac'
p6
aa(lp7
S'2.5'
p8
aS'cl de'
p9
aS"jus d'oranges"
p10
aa(lp11
S'2.5'
p12
aS'cl de'
p13
aS'jus de goyaves'
p14
aa(lp15
S'2.0'
p16
aS'cl de'
p17
aS'cr\xc3\xa8me de cassis'
p18
aaa.