(lp0
S'Romanticos'
p1
aF2.8
aI4
a(lp2
(lp3
S'1.0'
p4
aS'trait'
p5
aS'cura\xc3\xa7ao bleu'
p6
aa(lp7
S'3.0'
p8
aS'doses'
p9
aS'cr\xc3\xa8me de bananes'
p10
aa(lp11
S'7.0'
p12
aS'doses'
p13
aS'rhum blanc'
p14
aa(lp15
S'9.0'
p16
aS'doses'
p17
aS"jus d'oranges"
p18
aa(lp19
S'1.0'
p20
aS'dose'
p21
aS'sirop de sucre de canne'
p22
aaa.