(lp0
S'Caf\xc3\xa9 royal'
p1
aF3.4
aI16
a(lp2
(lp3
S'None'
p4
aS'None'
p5
aS'caf\xc3\xa9'
p6
aa(lp7
S'1.0'
p8
aS'morceau de'
p9
aS'sucre'
p10
aa(lp11
S'None'
p12
aS'quelques go\xc3\xbbtes de'
p13
aS'cognac'
p14
aaa.