(lp0
S'Rainbow cooler'
p1
aF3.5
aI42
a(lp2
(lp3
S'4.0'
p4
aS'cl de'
p5
aS"jus d'oranges"
p6
aa(lp7
S'4.0'
p8
aS'cl de'
p9
aS"jus d'ananas"
p10
aa(lp11
S'4.0'
p12
aS'cl de'
p13
aS'jus de fruit de la passion (maracuja)'
p14
aa(lp15
S'None'
p16
aS"jus d'1/4 de"
p17
aS'citrons'
p18
aa(lp19
S'1.0'
p20
aS'cl de'
p21
aS'sirop de grenadine'
p22
aaa.