(lp0
S'Ginger ale'
p1
aF3.3
aI3
a(lp2
(lp3
S'100.0'
p4
aS'grammes de'
p5
aS'gingembre'
p6
aa(lp7
S'100.0'
p8
aS'grammes de'
p9
aS'sucre'
p10
aa(lp11
S'20.0'
p12
aS"cl d'"
p13
aS'eau gazeuse (perrier, salvetat)'
p14
aa(lp15
S'2.0'
p16
aS'None'
p17
aS'citrons'
p18
aaa.