(lp0
S'Balawech'
p1
aF3.8
aI33
a(lp2
(lp3
S'8.0'
p4
aS'cl de'
p5
aS"jus d'oranges"
p6
aa(lp7
S'4.0'
p8
aS'cl de'
p9
aS"jus d'abricots"
p10
aa(lp11
S'4.0'
p12
aS'cl de'
p13
aS'nectar de p\xc3\xaaches'
p14
aa(lp15
S'2.0'
p16
aS'cl de'
p17
aS'jus de citrons verts'
p18
aa(lp19
S'0.25'
p20
aS'None'
p21
aS'banane'
p22
aa(lp23
S'1.0'
p24
aS'cl de'
p25
aS'sirop de miel'
p26
aa(lp27
S'0.5'
p28
aS'cl de'
p29
aS'sirop de grenadine'
p30
aaa.