(lp0
S'Than-tavan'
p1
aF2.8
aI4
a(lp2
(lp3
S'0.5'
p4
aS'cl de'
p5
aS'liqueur de fraises'
p6
aa(lp7
S'2.0'
p8
aS'cl de'
p9
aS'citrons verts'
p10
aa(lp11
S'3.0'
p12
aS'cl de'
p13
aS'jus de goyaves'
p14
aa(lp15
S'3.0'
p16
aS'cl de'
p17
aS'jus de mangues'
p18
aa(lp19
S'4.0'
p20
aS'cl de'
p21
aS'gin'
p22
aaa.