(lp0
S'Black Shadow'
p1
aF3.3
aI72
a(lp2
(lp3
S'4.0'
p4
aS'cl de'
p5
aS'vodka noire'
p6
aa(lp7
S'0.5'
p8
aS'cl de'
p9
aS'jus de citrons'
p10
aa(lp11
S'None'
p12
aS'None'
p13
aS'cola (coca cola, pepsi)'
p14
aaa.