(lp0
S'Sirop de fleurs de sureau'
p1
aF3.5
aI107
a(lp2
(lp3
S'0.05'
p4
aS"litre d'"
p5
aS'eau'
p6
aa(lp7
S'0.085'
p8
aS'kilos de'
p9
aS'sucre'
p10
aa(lp11
S'0.15'
p12
aS'None'
p13
aS'citrons'
p14
aa(lp15
S'7.5'
p16
aS'grammes de'
p17
aS'fleurs de sureau'
p18
aaa.