(lp0
S'Coco mangue'
p1
aF3.5
aI72
a(lp2
(lp3
S'450.0'
p4
aS'grammes de'
p5
aS'mangues'
p6
aa(lp7
S'25.0'
p8
aS'cl de'
p9
aS'lait de coco'
p10
aa(lp11
S'50.0'
p12
aS'cl de'
p13
aS"jus d'ananas"
p14
aa(lp15
S'1.0'
p16
aS'None'
p17
aS'yaourt nature'
p18
aa(lp19
S'1.0'
p20
aS'peu de'
p21
aS'noix de coco r\xc3\xa2p\xc3\xa9e'
p22
aa(lp23
S'1.0'
p24
aS'zeste de'
p25
aS'citrons verts'
p26
aaa.