(lp0
S'Champion'
p1
aF3.7
aI6
a(lp2
(lp3
S'0.3'
p4
aS'volumes de'
p5
aS'vermouth dry (martini, noilly prat)'
p6
aa(lp7
S'0.3'
p8
aS'volumes de'
p9
aS'whisky (bourbon, whiskey)'
p10
aa(lp11
S'0.2'
p12
aS'volumes de'
p13
aS'b\xc3\xa9n\xc3\xa9dictine'
p14
aa(lp15
S'0.2'
p16
aS'volumes de'
p17
aS'triple sec (cointreau, grand marnier)'
p18
aaa.