(lp0
S'Marcassin'
p1
aF3.0
aI4
a(lp2
(lp3
S'2.0'
p4
aS'cl de'
p5
aS'cr\xc3\xa8me de cassis'
p6
aa(lp7
S'2.0'
p8
aS'cl de'
p9
aS'marc de bourgogne blanc'
p10
aa(lp11
S'None'
p12
aS'None'
p13
aS'vin blanc'
p14
aaa.