(lp0
S'Kat in the bath'
p1
aF5.0
aI1
a(lp2
(lp3
S'4.0'
p4
aS'cl de'
p5
aS'vodka'
p6
aa(lp7
S'2.0'
p8
aS'cl de'
p9
aS'cr\xc3\xa8me de fraises'
p10
aa(lp11
S'8.0'
p12
aS'cl de'
p13
aS"jus d'oranges"
p14
aaa.