(lp0
S'Cr\xc3\xa8me de banane'
p1
aF2.7
aI15
a(lp2
(lp3
S'1.0'
p4
aS'gousse de'
p5
aS'vanille'
p6
aa(lp7
S'1.0'
p8
aS'pinc\xc3\xa9e de'
p9
aS'safran'
p10
aa(lp11
S'0.8'
p12
aS"litre d'"
p13
aS'eau'
p14
aa(lp15
S'0.5'
p16
aS"litre d'"
p17
aS'alcool \xc3\xa0 95\xc2\xb0'
p18
aa(lp19
S'500.0'
p20
aS'grammes de'
p21
aS'bananes'
p22
aa(lp23
S'800.0'
p24
aS'grammes de'
p25
aS'sucre'
p26
aaa.