(lp0
S'Abakila'
p1
aF3.2
aI34
a(lp2
(lp3
S'2.5'
p4
aS'cl de'
p5
aS"jus d'ananas"
p6
aa(lp7
S'0.5'
p8
aS'cl de'
p9
aS'liqueur de kiwis'
p10
aa(lp11
S'1.5'
p12
aS'cl de'
p13
aS'liqueur de bananes (pisang ambon)'
p14
aa(lp15
S'2.0'
p16
aS'cl de'
p17
aS'tequila'
p18
aaa.