(lp0
S'Spicy Red'
p1
aF3.4
aI14
a(lp2
(lp3
S'3.0'
p4
aS'cl de'
p5
aS'vermouth rouge (martini, cinzano)'
p6
aa(lp7
S'2.0'
p8
aS'cl de'
p9
aS'chambord'
p10
aa(lp11
S'1.0'
p12
aS'cl de'
p13
aS"sirop d'\xc3\xa9pices (spicy)"
p14
aa(lp15
S'1.0'
p16
aS'cl de'
p17
aS'liqueur de citrons (limoncello)'
p18
aaa.