(lp0
S"Mother's day"
p1
aF3.8
aI5
a(lp2
(lp3
S'5.0'
p4
aS'cl de'
p5
aS'jus de framboises'
p6
aa(lp7
S'3.0'
p8
aS'cl de'
p9
aS'vodka'
p10
aa(lp11
S'2.0'
p12
aS'cl de'
p13
aS'cr\xc3\xa8me de rose'
p14
aa(lp15
S'None'
p16
aS'feuilles de'
p17
aS'menthe'
p18
aaa.