(lp0
S'Marvodk blue'
p1
aF3.0
aI2
a(lp2
(lp3
S'1.0'
p4
aS'cl de'
p5
aS'sirop de sucre de canne'
p6
aa(lp7
S'1.5'
p8
aS'cl de'
p9
aS'jus de citrons'
p10
aa(lp11
S'2.0'
p12
aS'cl de'
p13
aS'vermouth blanc (martini, cinzano)'
p14
aa(lp15
S'2.0'
p16
aS'cl de'
p17
aS'vodka'
p18
aa(lp19
S'1.0'
p20
aS'cl de'
p21
aS'cura\xc3\xa7ao bleu'
p22
aaa.