(lp0
S'Manda dry'
p1
aF0.0
aI0
a(lp2
(lp3
S'1.0'
p4
aS'cl de'
p5
aS'angostura bitters'
p6
aa(lp7
S'2.0'
p8
aS'cl de'
p9
aS'liqueur mandarine napol\xc3\xa9on'
p10
aa(lp11
S'3.0'
p12
aS'cl de'
p13
aS'gin'
p14
aaa.