(lp0
S'Sphinx'
p1
aF3.0
aI2
a(lp2
(lp3
S'3.0'
p4
aS'grammes de'
p5
aS'framboises'
p6
aa(lp7
S'1.0'
p8
aS'pinc\xc3\xa9es de'
p9
aS'gingembre'
p10
aa(lp11
S'3.0'
p12
aS'cl de'
p13
aS'jus de goyaves'
p14
aa(lp15
S'3.0'
p16
aS'cl de'
p17
aS'jus de cranberry (canneberges)'
p18
aa(lp19
S'1.0'
p20
aS'cl de'
p21
aS'lychees (litchis)'
p22
aa(lp23
S'3.0'
p24
aS'cl de'
p25
aS'vodka'
p26
aaa.