(lp0
S'Bebida de Bolacha'
p1
aF4.0
aI1
a(lp2
(lp3
S'10.0'
p4
aS'cl de'
p5
aS'lait concentr\xc3\xa9 non sucr\xc3\xa9'
p6
aa(lp7
S'10.0'
p8
aS'cl de'
p9
aS'lait'
p10
aa(lp11
S'3.0'
p12
aS'None'
p13
aS'petits beurre'
p14
aa(lp15
S'1.0'
p16
aS'cuill\xc3\xa8re \xc3\xa0 caf\xc3\xa9 de'
p17
aS'chocolat en poudre'
p18
aaa.