(lp0
S"Batracien d'Halloween"
p1
aF3.4
aI25
a(lp2
(lp3
S'2.0'
p4
aS'cl de'
p5
aS'sirop de banane verte'
p6
aa(lp7
S'1.0'
p8
aS'cl de'
p9
aS'sirop de jasmin'
p10
aa(lp11
S'2.0'
p12
aS'cl de'
p13
aS'jus de citrons'
p14
aa(lp15
S'3.0'
p16
aS'cl de'
p17
aS'gin'
p18
aa(lp19
S'1.0'
p20
aS'cuill\xc3\xa8re \xc3\xa0 soupe de'
p21
aS'perles du japon'
p22
aaa.