(lp0
S'Berry Good'
p1
aF4.0
aI2
a(lp2
(lp3
S'1.0'
p4
aS'poign\xc3\xa9e de'
p5
aS'fruits rouges'
p6
aa(lp7
S'2.0'
p8
aS'None'
p9
aS'dattes'
p10
aa(lp11
S'2.0'
p12
aS'poign\xc3\xa9es de'
p13
aS'l\xc3\xa9gumes verts'
p14
aa(lp15
S'25.0'
p16
aS"cl d'"
p17
aS'eau'
p18
aa(lp19
S'1.0'
p20
aS'poign\xc3\xa9e de'
p21
aS'myrtilles (bleuets)'
p22
aa(lp23
S'1.0'
p24
aS'poign\xc3\xa9e de'
p25
aS'framboises'
p26
aaa.