(lp0
S"Vin d'eucalyptus"
p1
aF3.2
aI9
a(lp2
(lp3
S'1.0'
p4
aS'bouteille de'
p5
aS'vin rouge'
p6
aa(lp7
S'50.0'
p8
aS'grammes de'
p9
aS"feuilles d'eucalyptus"
p10
aa(lp11
S'None'
p12
aS'None'
p13
aS'sucre'
p14
aaa.