(lp0
S'Ellisse'
p1
aF2.0
aI3
a(lp2
(lp3
S'6.0'
p4
aS'cl de'
p5
aS'cognac'
p6
aa(lp7
S'0.5'
p8
aS'cl de'
p9
aS'strega'
p10
aa(lp11
S'1.0'
p12
aS'cl de'
p13
aS'angostura bitters'
p14
aa(lp15
S'None'
p16
aS'None'
p17
aS'ginger ale (canada dry)'
p18
aaa.