(lp0
S'Colony Special'
p1
aF3.8
aI5
a(lp2
(lp3
S'2.0'
p4
aS'cl de'
p5
aS'cura\xc3\xa7ao bleu'
p6
aa(lp7
S'3.0'
p8
aS'cl de'
p9
aS'vodka au citron'
p10
aa(lp11
S'2.0'
p12
aS'cl de'
p13
aS'vodka'
p14
aa(lp15
S'2.0'
p16
aS'cl de'
p17
aS'liqueur de fruits rouges'
p18
aa(lp19
S'None'
p20
aS'cl de'
p21
aS'limonade (soda, sprite, 7up)'
p22
aaa.