(lp0
S'Lagon bleu'
p1
aF3.2
aI267
a(lp2
(lp3
S'4.0'
p4
aS'cl de'
p5
aS'liqueur de lychees (soho, litchao)'
p6
aa(lp7
S'4.0'
p8
aS'cl de'
p9
aS'jus de pamplemousses'
p10
aa(lp11
S'2.0'
p12
aS'cl de'
p13
aS'cura\xc3\xa7ao bleu'
p14
aaa.