(lp0
S'Atomic Hawaii'
p1
aF3.9
aI43
a(lp2
(lp3
S'3.0'
p4
aS'cl de'
p5
aS"jus d'ananas"
p6
aa(lp7
S'3.0'
p8
aS'cl de'
p9
aS'jus de goyaves'
p10
aa(lp11
S'1.0'
p12
aS'cl de'
p13
aS'sirop de violette'
p14
aaa.