(lp0
S'Coup de boules'
p1
aF3.0
aI6
a(lp2
(lp3
S'1.0'
p4
aS'trait de '
p5
aS'cura\xc3\xa7ao bleu'
p6
aa(lp7
S'2.0'
p8
aS'cl de'
p9
aS'triple sec (cointreau, grand marnier)'
p10
aa(lp11
S'2.0'
p12
aS'cl de'
p13
aS'gold strike (goldschlager)'
p14
aaa.