(lp0
S'Capitole'
p1
aF3.6
aI38
a(lp2
(lp3
S'0.5'
p4
aS'cl de'
p5
aS'sirop de menthe'
p6
aa(lp7
S'10.0'
p8
aS'cl de'
p9
aS"jus d'oranges"
p10
aa(lp11
S'5.0'
p12
aS'cl de'
p13
aS'limonade (soda, sprite, 7up)'
p14
aa(lp15
S'1.0'
p16
aS'boule de'
p17
aS'sorbet de citron vert'
p18
aaa.