(lp0
S'Dark emeraude'
p1
aF3.0
aI2
a(lp2
(lp3
S'1.0'
p4
aS'trait de'
p5
aS'sirop de violette'
p6
aa(lp7
S'3.0'
p8
aS'cuill\xc3\xa8re de'
p9
aS'caf\xc3\xa9 soluble'
p10
aa(lp11
S'4.0'
p12
aS'cl de'
p13
aS'vodka'
p14
aa(lp15
S'1.0'
p16
aS'cl de'
p17
aS'cura\xc3\xa7ao bleu'
p18
aaa.