(lp0
S'Seabreeze'
p1
aF3.2
aI24
a(lp2
(lp3
S'6.0'
p4
aS'cl de'
p5
aS'jus de cranberry (canneberges)'
p6
aa(lp7
S'6.0'
p8
aS'cl de'
p9
aS'vodka'
p10
aa(lp11
S'3.0'
p12
aS'cl de'
p13
aS'jus de pamplemousses'
p14
aaa.