(lp0
S'Watch Dogs'
p1
aF2.7
aI3
a(lp2
(lp3
S'4.0'
p4
aS'cl de'
p5
aS'liqueur de bananes (pisang ambon)'
p6
aa(lp7
S'3.0'
p8
aS'cl de'
p9
aS'liqueur de coco (cocogif, malibu)'
p10
aa(lp11
S'1.0'
p12
aS'cl de'
p13
aS'liqueur de menthe verte (get 27)'
p14
aa(lp15
S'1.0'
p16
aS'trait de'
p17
aS'cr\xc3\xa8me de cassis'
p18
aaa.