(lp0
S'Sirop de capucines'
p1
aF3.7
aI3
a(lp2
(lp3
S'250.0'
p4
aS'rammes de fleur et feuilles de'
p5
aS'capucines'
p6
aa(lp7
S'250.0'
p8
aS'grammes de'
p9
aS'sucre'
p10
aa(lp11
S'None'
p12
aS'None'
p13
aS'eau'
p14
aaa.