(lp0
S'Sherry coco beer'
p1
aF4.0
aI3
a(lp2
(lp3
S'20.0'
p4
aS'cl de'
p5
aS'bi\xc3\xa8re blonde'
p6
aa(lp7
S'4.0'
p8
aS'cl de'
p9
aS'liqueur de coco (cocogif, malibu)'
p10
aa(lp11
S'1.0'
p12
aS'cl de'
p13
aS'sirop de cerise'
p14
aaa.