(lp0
S"Lueur d'un soir"
p1
aF2.5
aI6
a(lp2
(lp3
S'3.0'
p4
aS'cl de'
p5
aS'whisky (bourbon, whiskey)'
p6
aa(lp7
S'3.0'
p8
aS'cl de'
p9
aS"jus d'ananas"
p10
aa(lp11
S'2.0'
p12
aS'cl de'
p13
aS"jus d'oranges"
p14
aa(lp15
S'2.0'
p16
aS'cl de'
p17
aS'jus de mangues'
p18
aa(lp19
S'0.5'
p20
aS'cl de'
p21
aS'sirop de grenadine'
p22
aaa.