(lp0
S'Havana Banana Fizz'
p1
aF3.4
aI5
a(lp2
(lp3
S'4.0'
p4
aS'cl de'
p5
aS'rhum blanc'
p6
aa(lp7
S'6.0'
p8
aS'cl de'
p9
aS"jus d'ananas"
p10
aa(lp11
S'4.0'
p12
aS'cl de'
p13
aS'jus de citrons verts'
p14
aa(lp15
S'1.0'
p16
aS'cl de'
p17
aS'angostura bitters'
p18
aa(lp19
S'0.333333333333'
p20
aS'de'
p21
aS'banane'
p22
aa(lp23
S'None'
p24
aS'None'
p25
aS'limonade (soda, sprite, 7up)'
p26
aaa.