(lp0
S'Sang et Or'
p1
aF3.9
aI10
a(lp2
(lp3
S'4.0'
p4
aS'cl de'
p5
aS'vodka'
p6
aa(lp7
S'4.0'
p8
aS'cl de'
p9
aS'rhum blanc'
p10
aa(lp11
S'4.0'
p12
aS'cl de'
p13
aS'tequila'
p14
aa(lp15
S'4.0'
p16
aS'cl de'
p17
aS'whisky (bourbon, whiskey)'
p18
aa(lp19
S'10.0'
p20
aS'cl de'
p21
aS"jus d'oranges"
p22
aa(lp23
S'1.0'
p24
aS'trait de'
p25
aS'sirop de grenadine'
p26
aaa.