(lp0
S'Hanky-Panky'
p1
aF4.5
aI4
a(lp2
(lp3
S'2.0'
p4
aS'cl de'
p5
aS'gin'
p6
aa(lp7
S'2.0'
p8
aS'cl de'
p9
aS'vermouth rouge (martini, cinzano)'
p10
aa(lp11
S'2.0'
p12
aS'traits de'
p13
aS'fernet-branca'
p14
aaa.