(lp0
S'Mariroc'
p1
aF5.0
aI1
a(lp2
(lp3
S'1.0'
p4
aS'cl de'
p5
aS'angostura bitters'
p6
aa(lp7
S'3.5'
p8
aS'cl de'
p9
aS'whisky (bourbon, whiskey)'
p10
aa(lp11
S'1.5'
p12
aS'cl de'
p13
aS"liqueur d'abricots (abricot brandy)"
p14
aa(lp15
S'2.0'
p16
aS'cl de'
p17
aS'vermouth blanc (martini, cinzano)'
p18
aaa.