(lp0
S'Like Tarte Tatin'
p1
aF4.0
aI52
a(lp2
(lp3
S'4.0'
p4
aS'cl de'
p5
aS'vodka'
p6
aa(lp7
S'1.0'
p8
aS'cl de'
p9
aS'sirop de caramel'
p10
aa(lp11
S'4.0'
p12
aS'cl de'
p13
aS'jus de pommes'
p14
aa(lp15
S'1.0'
p16
aS'cl de'
p17
aS'sirop de cannelle'
p18
aaa.