(lp0
S'Jerry Thomas bitter'
p1
aF4.0
aI2
a(lp2
(lp3
S'150.0'
p4
aS'grammes de'
p5
aS'raisins secs'
p6
aa(lp7
S'50.0'
p8
aS'grammes de'
p9
aS'cannelle'
p10
aa(lp11
S'1.0'
p12
aS'None'
p13
aS'citron'
p14
aa(lp15
S'1.0'
p16
aS'None'
p17
aS'orange'
p18
aa(lp19
S'30.0'
p20
aS'grammes de'
p21
aS'clous de girofle'
p22
aa(lp23
S'1.0'
p24
aS'petit'
p25
aS'piments rouges'
p26
aa(lp27
S'75.0'
p28
aS'cl de'
p29
aS'rhum blanc'
p30
aaa.