(lp0
S'Wake up'
p1
aF3.8
aI6
a(lp2
(lp3
S'2.0'
p4
aS'cl de'
p5
aS'triple sec (cointreau, grand marnier)'
p6
aa(lp7
S'2.0'
p8
aS'cl de'
p9
aS'rhum ambr\xc3\xa9'
p10
aa(lp11
S'2.0'
p12
aS'cl de'
p13
aS'liqueur de pistaches'
p14
aa(lp15
S'1.0'
p16
aS"jaune d'"
p17
aS'oeufs'
p18
aa(lp19
S'0.5'
p20
aS'cl de'
p21
aS"sirop d'\xc3\xa9rable"
p22
aaa.