(lp0
S'Rhum-piment'
p1
aF2.3
aI16
a(lp2
(lp3
S'1.0'
p4
aS'bouteille de'
p5
aS'rhum blanc'
p6
aa(lp7
S'5.0'
p8
aS'None'
p9
aS'piments rouges'
p10
aa(lp11
S'2.0'
p12
aS'None'
p13
aS'b\xc3\xa2tons de cannelle'
p14
aa(lp15
S'1.0'
p16
aS'cuill\xc3\xa8re \xc3\xa0 caf\xc3\xa9 de'
p17
aS"piment d'espelette"
p18
aa(lp19
S'10.0'
p20
aS'gouttes de'
p21
aS'tabasco'
p22
aaa.