(lp0
S'Batida de manga'
p1
aF3.2
aI5
a(lp2
(lp3
S'6.0'
p4
aS'cl de'
p5
aS'cacha\xc3\xa7a'
p6
aa(lp7
S'3.0'
p8
aS'cl de'
p9
aS'jus de mangues'
p10
aa(lp11
S'1.0'
p12
aS'cl de'
p13
aS'sirop de sucre de canne'
p14
aaa.