(lp0
S'Rocky mountain punch'
p1
aF3.0
aI1
a(lp2
(lp3
S'None'
p4
aS'cl de'
p5
aS'sirop de sucre de canne'
p6
aa(lp7
S'None'
p8
aS'None'
p9
aS'fruits de saison'
p10
aa(lp11
S'6.0'
p12
aS'None'
p13
aS'citrons'
p14
aa(lp15
S'5.0'
p16
aS'bouteilles de'
p17
aS'champagne'
p18
aa(lp19
S'1.0'
p20
aS'bouteille de'
p21
aS'marasquin'
p22
aa(lp23
S'1.0'
p24
aS'bouteille de'
p25
aS'rhum blanc'
p26
aaa.