(lp0
S'Royal Fruits'
p1
aF3.0
aI4
a(lp2
(lp3
S'2.0'
p4
aS'cl de'
p5
aS'chambord'
p6
aa(lp7
S'2.0'
p8
aS'cl de'
p9
aS'gloss de suze'
p10
aa(lp11
S'4.0'
p12
aS'cl de'
p13
aS'vodka rouge (eristoff)'
p14
aa(lp15
S'16.0'
p16
aS'cl de'
p17
aS'jus de pommes'
p18
aaa.