(lp0
S'Bavareisa'
p1
aF4.0
aI4
a(lp2
(lp3
S'10.0'
p4
aS'cl de'
p5
aS'lait'
p6
aa(lp7
S'1.0'
p8
aS'None'
p9
aS'caf\xc3\xa9'
p10
aa(lp11
S'3.0'
p12
aS'cl de'
p13
aS'sirop de sucre de canne'
p14
aa(lp15
S'2.0'
p16
aS'cuill\xc3\xa8res \xc3\xa0 soupe de'
p17
aS'chocolat en poudre'
p18
aaa.