(lp0
S'Despejito'
p1
aF3.7
aI91
a(lp2
(lp3
S'2.0'
p4
aS'cl de'
p5
aS'rhum blanc'
p6
aa(lp7
S'15.0'
p8
aS'cl de'
p9
aS'bi\xc3\xa8re desperados'
p10
aa(lp11
S'0.5'
p12
aS'None'
p13
aS'citrons vert'
p14
aa(lp15
S'7.0'
p16
aS'feuilles de'
p17
aS'menthe'
p18
aa(lp19
S'2.0'
p20
aS'cuill\xc3\xa8res \xc3\xa0 caf\xc3\xa9 de'
p21
aS'sucre en poudre'
p22
aaa.