(lp0
S'Martini'
p1
aF2.5
aI71
a(lp2
(lp3
S'4.0'
p4
aS'cl de'
p5
aS'vermouth blanc (martini, cinzano)'
p6
aa(lp7
S'4.0'
p8
aS'cl de'
p9
aS'gin'
p10
aa(lp11
S'3.0'
p12
aS'traits de'
p13
aS'angostura orange bitters'
p14
aaa.