(lp0
S'Caf\xc3\xa9 de No\xc3\xabl'
p1
aF3.8
aI4
a(lp2
(lp3
S'3.0'
p4
aS'cl de'
p5
aS'triple sec (cointreau, grand marnier)'
p6
aa(lp7
S'9.0'
p8
aS'cl de'
p9
aS'caf\xc3\xa9 chaud'
p10
aa(lp11
S'2.0'
p12
aS'cl de'
p13
aS'sirop de sucre de canne'
p14
aaa.