(lp0
S'Painkiller'
p1
aF3.4
aI20
a(lp2
(lp3
S'4.0'
p4
aS'cl de'
p5
aS'rhum ambr\xc3\xa9'
p6
aa(lp7
S'2.0'
p8
aS'cl de'
p9
aS'lait de coco'
p10
aa(lp11
S'8.0'
p12
aS'cl de'
p13
aS'jus de pommes'
p14
aa(lp15
S'2.0'
p16
aS'cl de'
p17
aS"jus d'oranges"
p18
aaa.