(lp0
S'Sirop de verveine'
p1
aF2.8
aI39
a(lp2
(lp3
S'100.0'
p4
aS'grammes de feuilles de'
p5
aS'verveine'
p6
aa(lp7
S'1.0'
p8
aS"litre d'"
p9
aS'eau'
p10
aa(lp11
S'1.0'
p12
aS'kilo de'
p13
aS'sucre'
p14
aaa.