(lp0
S'Old Fashioned Whisky Cocktail'
p1
aF3.7
aI61
a(lp2
(lp3
S'6.0'
p4
aS'cl de'
p5
aS'whisky (bourbon, whiskey)'
p6
aa(lp7
S'1.0'
p8
aS"trait d'"
p9
aS'angostura bitters'
p10
aa(lp11
S'1.0'
p12
aS'cube de'
p13
aS'sucre'
p14
aaa.