(lp0
S'Hypocras framboise'
p1
aF1.7
aI3
a(lp2
(lp3
S'500.0'
p4
aS'grammes de'
p5
aS'framboises'
p6
aa(lp7
S'1.0'
p8
aS'litres de'
p9
aS'vin rouge'
p10
aa(lp11
S'20.0'
p12
aS"cl d'"
p13
aS'eau-de-vie \xc3\xa0 70\xc2\xb0'
p14
aa(lp15
S'100.0'
p16
aS'grammes de'
p17
aS'sucre'
p18
aaa.