(lp0
S'Sirop de sucre de canne'
p1
aF3.7
aI138
a(lp2
(lp3
S'0.0666666666667'
p4
aS'kg de'
p5
aS'cassonade'
p6
aa(lp7
S'0.2'
p8
aS'None'
p9
aS'citrons verts'
p10
aa(lp11
S'0.133333333333'
p12
aS'gousses de'
p13
aS'vanille'
p14
aa(lp15
S'0.133333333333'
p16
aS'pinc\xc3\xa9es de'
p17
aS'cannelle'
p18
aa(lp19
S'0.0666666666667'
p20
aS'r\xc3\xa2pure de'
p21
aS'muscade'
p22
aa(lp23
S'0.133333333333'
p24
aS'None'
p25
aS'clous de girofle'
p26
aa(lp27
S'0.0666666666667'
p28
aS"zeste d'"
p29
aS'oranges'
p30
aaa.