(lp0
S'Margarita grenade'
p1
aF3.4
aI38
a(lp2
(lp3
S'2.0'
p4
aS'cl de'
p5
aS'sirop de grenade'
p6
aa(lp7
S'4.0'
p8
aS'cl de'
p9
aS'tequila'
p10
aa(lp11
S'2.0'
p12
aS'cl de'
p13
aS'triple sec (cointreau, grand marnier)'
p14
aa(lp15
S'2.0'
p16
aS'cl de'
p17
aS'jus de citrons verts'
p18
aaa.