(lp0
S'Feminin present'
p1
aF4.6
aI5
a(lp2
(lp3
S'1.5'
p4
aS'cl de'
p5
aS'tequila'
p6
aa(lp7
S'0.5'
p8
aS'cl de'
p9
aS'liqueur de fraises'
p10
aa(lp11
S'0.5'
p12
aS'cl de'
p13
aS'liqueur de poire'
p14
aa(lp15
S'4.0'
p16
aS'cl de'
p17
aS'vermouth rose (martini, cinzano)'
p18
aaa.