(lp0
S'Midnight sun'
p1
aF3.6
aI5
a(lp2
(lp3
S'4.0'
p4
aS'cl de'
p5
aS'whisky (bourbon, whiskey)'
p6
aa(lp7
S'2.0'
p8
aS'cl de'
p9
aS'liqueur de cerises (cherry brandy)'
p10
aa(lp11
S'1.0'
p12
aS'cl de'
p13
aS'liqueur de p\xc3\xaaches'
p14
aaa.