(lp0
S'Sour Cherry Americano'
p1
aF3.3
aI92
a(lp2
(lp3
S'2.0'
p4
aS'cl de'
p5
aS'campari'
p6
aa(lp7
S'2.0'
p8
aS'cl de'
p9
aS'sirop de cerise'
p10
aa(lp11
S'2.0'
p12
aS'cl de'
p13
aS'jus de citrons'
p14
aa(lp15
S'None'
p16
aS'None'
p17
aS'eau gazeuse (perrier, salvetat)'
p18
aaa.