(lp0
S"Strawberry tek'"
p1
aF3.0
aI1
a(lp2
(lp3
S'1.0'
p4
aS'trait de'
p5
aS'sirop de sucre de canne'
p6
aa(lp7
S'3.0'
p8
aS'cl de'
p9
aS'jus de framboises'
p10
aa(lp11
S'3.5'
p12
aS'cl de'
p13
aS'tequila'
p14
aa(lp15
S'1.5'
p16
aS'cl de'
p17
aS'gloss de suze'
p18
aa(lp19
S'1.0'
p20
aS'cl de'
p21
aS'jus de citrons'
p22
aaa.