(lp0
S'Fallen angel'
p1
aF3.0
aI2
a(lp2
(lp3
S'1.0'
p4
aS'None'
p5
aS'cerise'
p6
aa(lp7
S'0.5'
p8
aS'cl de'
p9
aS'angostura bitters'
p10
aa(lp11
S'3.0'
p12
aS'cl de'
p13
aS'jus de citrons'
p14
aa(lp15
S'1.0'
p16
aS'cl de'
p17
aS'liqueur de menthe verte (get 27)'
p18
aa(lp19
S'4.0'
p20
aS'cl de'
p21
aS'gin'
p22
aaa.