(lp0
S'Vin de laurier'
p1
aF2.2
aI6
a(lp2
(lp3
S'0.1'
p4
aS'kilo de'
p5
aS'sucre'
p6
aa(lp7
S'4.0'
p8
aS'feuilles de'
p9
aS'laurier'
p10
aa(lp11
S'0.1'
p12
aS"litre d'"
p13
aS'eau-de-vie de fruits'
p14
aaa.