(lp0
S'Sorbet \xc3\xa0 la fraise'
p1
aF3.6
aI71
a(lp2
(lp3
S'0.2'
p4
aS'kilo de'
p5
aS'fraises'
p6
aa(lp7
S'50.0'
p8
aS'grammes de'
p9
aS'sucre'
p10
aa(lp11
S'None'
p12
aS"le jus d'une"
p13
aS'oranges'
p14
aa(lp15
S'None'
p16
aS"le jus d'un"
p17
aS'citrons'
p18
aaa.