(lp0
S'Kon-Tiki'
p1
aF3.5
aI21
a(lp2
(lp3
S'12.0'
p4
aS'cl de'
p5
aS'lait'
p6
aa(lp7
S'2.0'
p8
aS'cl de'
p9
aS"jus d'ananas"
p10
aa(lp11
S'1.0'
p12
aS'boule de'
p13
aS"sorbet \xc3\xa0 l'orange"
p14
aa(lp15
S'1.0'
p16
aS'pinc\xc3\xa9e de'
p17
aS'sucre vanille'
p18
aa(lp19
S'None'
p20
aS'None'
p21
aS'cola (coca cola, pepsi)'
p22
aaa.