(lp0
S'Bol'
p1
aF2.2
aI5
a(lp2
(lp3
S'1.0'
p4
aS'dose de'
p5
aS'whisky (bourbon, whiskey)'
p6
aa(lp7
S'1.0'
p8
aS'lichette de'
p9
aS'sirop de p\xc3\xaache'
p10
aa(lp11
S'1.0'
p12
aS'petit peu de'
p13
aS'limonade (soda, sprite, 7up)'
p14
aaa.