(lp0
S'Kazi Cocktail'
p1
aF3.0
aI1
a(lp2
(lp3
S'6.0'
p4
aS'cl de'
p5
aS'jus de cranberry (canneberges)'
p6
aa(lp7
S'3.5'
p8
aS'cl de'
p9
aS'tequila'
p10
aa(lp11
S'0.5'
p12
aS'cl de'
p13
aS'jus de citrons verts'
p14
aaa.