(lp0
S'Martini Black Door'
p1
aF3.8
aI6
a(lp2
(lp3
S'4.0'
p4
aS'cl de'
p5
aS'gin'
p6
aa(lp7
S'1.0'
p8
aS"pointe d'"
p9
aS'encre de seiche'
p10
aa(lp11
S'2.0'
p12
aS'cl de'
p13
aS'pur\xc3\xa9e de fruit de la passion'
p14
aa(lp15
S'2.0'
p16
aS'cl de'
p17
aS'lime cordial'
p18
aa(lp19
S'1.0'
p20
aS'cl de'
p21
aS'sirop de fleurs de sureau'
p22
aaa.