(lp0
S'Jade raiser'
p1
aF2.1
aI10
a(lp2
(lp3
S'2.0'
p4
aS'cl de'
p5
aS'vermouth blanc (martini, cinzano)'
p6
aa(lp7
S'4.0'
p8
aS'cl de'
p9
aS'eau-de-vie de prune blanche'
p10
aa(lp11
S'0.5'
p12
aS'cl de'
p13
aS'spiritueux anis\xc3\xa9 (pastis, ricard, pernod)'
p14
aa(lp15
S'1.0'
p16
aS'cl de'
p17
aS'liqueur de menthe verte (get 27)'
p18
aaa.