(lp0
S'Smash Smoothie'
p1
aF4.0
aI1
a(lp2
(lp3
S'2.0'
p4
aS'cl de'
p5
aS'pur\xc3\xa9e de bananes'
p6
aa(lp7
S'3.0'
p8
aS'cl de'
p9
aS'pur\xc3\xa9e de framboise'
p10
aa(lp11
S'2.0'
p12
aS'cl de'
p13
aS'lait de coco'
p14
aa(lp15
S'1.0'
p16
aS'None'
p17
aS'yaourt nature'
p18
aa(lp19
S'1.0'
p20
aS'cl de'
p21
aS'sirop de miel'
p22
aaa.