(lp0
S"Peg o' My Heart"
p1
aF3.0
aI2
a(lp2
(lp3
S'6.0'
p4
aS'cl de'
p5
aS'rhum blanc'
p6
aa(lp7
S'3.0'
p8
aS'cl de'
p9
aS'jus de citrons verts'
p10
aa(lp11
S'2.0'
p12
aS'cuill\xc3\xa8res \xc3\xa0 caf\xc3\xa9 de'
p13
aS'sirop de grenadine'
p14
aaa.