(lp0
S'Black bitch'
p1
aF2.7
aI30
a(lp2
(lp3
S'0.375'
p4
aS'volumes de'
p5
aS'sambuca'
p6
aa(lp7
S'0.375'
p8
aS'volumes de'
p9
aS'cr\xc3\xa8me de whisky (baileys)'
p10
aa(lp11
S'0.25'
p12
aS'volumes de'
p13
aS'rhum blanc'
p14
aaa.