(lp0
S'Gastrokill'
p1
aF2.0
aI6
a(lp2
(lp3
S'1.0'
p4
aS'sachet de'
p5
aS'th\xc3\xa9 noir'
p6
aa(lp7
S'1.0'
p8
aS'sachet de'
p9
aS'camomille'
p10
aa(lp11
S'1.0'
p12
aS'brin de'
p13
aS'menthe'
p14
aa(lp15
S'20.0'
p16
aS"cl d'"
p17
aS'eau'
p18
aa(lp19
S'20.0'
p20
aS'cl de'
p21
aS'cola (coca cola, pepsi)'
p22
aaa.