(lp0
S'Mintocoffee'
p1
aF3.0
aI2
a(lp2
(lp3
S'10.0'
p4
aS'cl de'
p5
aS'caf\xc3\xa9'
p6
aa(lp7
S'5.0'
p8
aS'cl de'
p9
aS'cr\xc3\xa8me fra\xc3\xaeche liquide'
p10
aa(lp11
S'4.0'
p12
aS'cl de'
p13
aS'sirop de menthe'
p14
aaa.