(lp0
S'Soho long'
p1
aF3.2
aI36
a(lp2
(lp3
S'None'
p4
aS'None'
p5
aS'sirop de grenadine'
p6
aa(lp7
S'4.0'
p8
aS'cl de'
p9
aS'gin'
p10
aa(lp11
S'2.0'
p12
aS'cl de'
p13
aS'liqueur de lychees (soho, litchao)'
p14
aa(lp15
S'4.0'
p16
aS'cl de'
p17
aS"jus d'oranges"
p18
aaa.