(lp0
S'51 br\xc3\xa9silien'
p1
aF3.1
aI35
a(lp2
(lp3
S'3.0'
p4
aS'cl de'
p5
aS'spiritueux anis\xc3\xa9 (pastis, ricard, pernod)'
p6
aa(lp7
S'0.5'
p8
aS'None'
p9
aS'citron'
p10
aa(lp11
S'1.0'
p12
aS'cuill\xc3\xa8re a caf\xc3\xa9 de'
p13
aS'sucre'
p14
aa(lp15
S'None'
p16
aS'None'
p17
aS'eau'
p18
aaa.