(lp0
S'Caf\xc3\xa9 au kirsch'
p1
aF2.5
aI2
a(lp2
(lp3
S'2.0'
p4
aS'petites tasses de'
p5
aS'caf\xc3\xa9'
p6
aa(lp7
S'3.0'
p8
aS'cl de'
p9
aS'kirsch'
p10
aa(lp11
S'1.0'
p12
aS'cuill\xc3\xa8re de'
p13
aS'sucre'
p14
aa(lp15
S'1.0'
p16
aS"blanc d'"
p17
aS'oeufs'
p18
aaa.