(lp0
S'Apple champagne'
p1
aF3.4
aI39
a(lp2
(lp3
S'1.0'
p4
aS'cl de'
p5
aS'sirop de fraises'
p6
aa(lp7
S'4.0'
p8
aS'cl de'
p9
aS'liqueur de pommes (manzana, manzanita)'
p10
aa(lp11
S'7.0'
p12
aS'cl de'
p13
aS'champagne'
p14
aaa.