(lp0
S"K\xc3\xa9fir de fruits (k\xc3\xa9fir d'eau)"
p1
aF4.0
aI1
a(lp2
(lp3
S'3.33333333333'
p4
aS'cuill\xc3\xa8res \xc3\xa0 caf\xc3\xa9 de'
p5
aS'sucre roux (cassonade)'
p6
aa(lp7
S'0.333333333333'
p8
aS'None'
p9
aS'figue'
p10
aa(lp11
S'None'
p12
aS"jus d'1/2"
p13
aS'citrons'
p14
aa(lp15
S'0.333333333333'
p16
aS'cuill\xc3\xa8re \xc3\xa0 soupe de'
p17
aS'grains de kefir de fruits'
p18
aa(lp19
S'None'
p20
aS'None'
p21
aS'eau'
p22
aaa.