(lp0
S'Peppermint fizz'
p1
aF3.5
aI6
a(lp2
(lp3
S'1.0'
p4
aS'cl de'
p5
aS'jus de citrons'
p6
aa(lp7
S'2.0'
p8
aS'cl de'
p9
aS'liqueur de menthe verte (get 27)'
p10
aa(lp11
S'1.0'
p12
aS'cl de'
p13
aS'gin'
p14
aa(lp15
S'None'
p16
aS'None'
p17
aS'limonade (soda, sprite, 7up)'
p18
aaa.