(lp0
S'Silver Cosmo'
p1
aF2.7
aI15
a(lp2
(lp3
S'0.666666666667'
p4
aS'de'
p5
aS'vodka'
p6
aa(lp7
S'0.333333333333'
p8
aS'de'
p9
aS'triple sec (cointreau, grand marnier)'
p10
aa(lp11
S'1.0'
p12
aS'tranche de'
p13
aS'citrons verts'
p14
aa(lp15
S'None'
p16
aS'None'
p17
aS'spiked silver'
p18
aaa.