(lp0
S'Souvenirs Vintage'
p1
aF3.8
aI6
a(lp2
(lp3
S'5.0'
p4
aS'cl de'
p5
aS'rhum blanc'
p6
aa(lp7
S'2.0'
p8
aS'cl de'
p9
aS'sirop de past\xc3\xa8que (watermelon)'
p10
aa(lp11
S'1.5'
p12
aS'cl de'
p13
aS'lime cordial'
p14
aa(lp15
S'None'
p16
aS'None'
p17
aS'eau gazeuse (perrier, salvetat)'
p18
aaa.