(lp0
S"Slim Shady's Fucking Nirvana"
p1
aF4.8
aI4
a(lp2
(lp3
S'2.0'
p4
aS'cl de'
p5
aS'vodka'
p6
aa(lp7
S'1.0'
p8
aS'cl de'
p9
aS'lime cordial'
p10
aa(lp11
S'1.0'
p12
aS'cl de'
p13
aS"sirop d'\xc3\xa9pices (spicy)"
p14
aa(lp15
S'1.0'
p16
aS'cl de'
p17
aS'liqueur de jasmin'
p18
aa(lp19
S'4.0'
p20
aS'cl de'
p21
aS'jus de cranberry (canneberges)'
p22
aaa.