(lp0
S'Spanish Bomb'
p1
aF3.0
aI2
a(lp2
(lp3
S'2.0'
p4
aS'cl de'
p5
aS'vodka'
p6
aa(lp7
S'1.0'
p8
aS'cl de'
p9
aS'licor 43'
p10
aa(lp11
S'None'
p12
aS'None'
p13
aS"jus d'oranges"
p14
aa(lp15
S'None'
p16
aS'None'
p17
aS'lait'
p18
aa(lp19
S'None'
p20
aS"rondelle d'"
p21
aS'oranges'
p22
aaa.