(lp0
S'Trinidad Mimosa'
p1
aF3.5
aI17
a(lp2
(lp3
S'4.0'
p4
aS'cl de'
p5
aS'rhum ambr\xc3\xa9'
p6
aa(lp7
S'2.0'
p8
aS'cl de'
p9
aS'triple sec (cointreau, grand marnier)'
p10
aa(lp11
S'2.0'
p12
aS'cl de'
p13
aS"jus d'oranges"
p14
aa(lp15
S'1.0'
p16
aS'trait de'
p17
aS'jus de citrons'
p18
aa(lp19
S'2.0'
p20
aS"traits d'"
p21
aS'angostura orange bitters'
p22
aa(lp23
S'None'
p24
aS'None'
p25
aS'champagne'
p26
aaa.