(lp0
S'Hoole'
p1
aF3.3
aI11
a(lp2
(lp3
S'10.0'
p4
aS'cl de'
p5
aS'jus de carottes'
p6
aa(lp7
S'5.0'
p8
aS'cl de'
p9
aS'jus de tomates'
p10
aa(lp11
S'0.2'
p12
aS'cl de'
p13
aS'jus de citrons'
p14
aa(lp15
S'None'
p16
aS'une pinc\xc3\xa9e'
p17
aS'sel de celeri'
p18
aa(lp19
S'None'
p20
aS'une pinc\xc3\xa9e'
p21
aS'poivre'
p22
aaa.