(lp0
S'Fuck vodka'
p1
aF4.0
aI1
a(lp2
(lp3
S'0.5'
p4
aS'cl de'
p5
aS'sirop de grenadine'
p6
aa(lp7
S'0.5'
p8
aS'cl de'
p9
aS'gin'
p10
aa(lp11
S'3.0'
p12
aS'cl de'
p13
aS"jus d'abricots"
p14
aa(lp15
S'0.5'
p16
aS'cl de'
p17
aS'jus de citrons'
p18
aa(lp19
S'1.5'
p20
aS'cl de'
p21
aS'liqueur de poire'
p22
aaa.