(lp0
S'Zhong Zag'
p1
aF3.2
aI10
a(lp2
(lp3
S'None'
p4
aS'None'
p5
aS'sucre'
p6
aa(lp7
S'0.5'
p8
aS'cl de'
p9
aS'jus de citrons'
p10
aa(lp11
S'1.0'
p12
aS'cl de'
p13
aS'whisky (bourbon, whiskey)'
p14
aa(lp15
S'12.0'
p16
aS"cl d'"
p17
aS'infusion de th\xc3\xa9'
p18
aaa.