(lp0
S'Desiree'
p1
aF4.3
aI18
a(lp2
(lp3
S'None'
p4
aS'jus'
p5
aS'pamplemousses'
p6
aa(lp7
S'4.0'
p8
aS'cl de'
p9
aS'vodka'
p10
aa(lp11
S'1.5'
p12
aS'cl de'
p13
aS"liqueur d'abricots (abricot brandy)"
p14
aa(lp15
S'0.5'
p16
aS'cl de'
p17
aS'jus de citrons'
p18
aaa.