(lp0
S'Y2k'
p1
aF3.0
aI1
a(lp2
(lp3
S'2.0'
p4
aS'boules de'
p5
aS'sorbet de banane'
p6
aa(lp7
S'2.0'
p8
aS'cl de'
p9
aS'triple sec (cointreau, grand marnier)'
p10
aa(lp11
S'None'
p12
aS'None'
p13
aS'champagne'
p14
aaa.