(lp0
S"Vin chaud \xc3\xa0 l'orange"
p1
aF3.9
aI10
a(lp2
(lp3
S'5.0'
p4
aS'None'
p5
aS'oranges'
p6
aa(lp7
S'75.0'
p8
aS'cl de'
p9
aS'vin rouge'
p10
aa(lp11
S'200.0'
p12
aS'grammes de'
p13
aS'sucre'
p14
aa(lp15
S'25.0'
p16
aS"cl d'"
p17
aS'eau'
p18
aa(lp19
S'2.0'
p20
aS'None'
p21
aS'clous de girofle'
p22
aa(lp23
S'1.0'
p24
aS'b\xc3\xa2ton de'
p25
aS'cannelle'
p26
aaa.