(lp0
S'Gim 35'
p1
aF3.0
aI3
a(lp2
(lp3
S'2.0'
p4
aS'cl de'
p5
aS'liqueur de coco (cocogif, malibu)'
p6
aa(lp7
S'2.0'
p8
aS'cl de'
p9
aS'cr\xc3\xa8me de fruit de la passion'
p10
aa(lp11
S'2.0'
p12
aS'cl de'
p13
aS'liqueur de pommes (manzana, manzanita)'
p14
aa(lp15
S'0.5'
p16
aS'cl de'
p17
aS'liqueur de menthe blanche (get 31)'
p18
aaa.