(lp0
S'Lait de provence'
p1
aF3.2
aI18
a(lp2
(lp3
S'None'
p4
aS'None'
p5
aS'lait'
p6
aa(lp7
S'1.0'
p8
aS'branche de'
p9
aS'cerfeuil'
p10
aa(lp11
S'1.0'
p12
aS'branche de'
p13
aS'thym'
p14
aa(lp15
S'1.0'
p16
aS'None'
p17
aS'tomate verte'
p18
aa(lp19
S'1.0'
p20
aS"petit coeurd'"
p21
aS'artichaut'
p22
aa(lp23
S'1.0'
p24
aS"feuille d'"
p25
aS'\xc3\xa9pinards'
p26
aa(lp27
S'None'
p28
aS'None'
p29
aS'sel'
p30
aa(lp31
S'None'
p32
aS'None'
p33
aS'poivre'
p34
aa(lp35
S'None'
p36
aS'None'
p37
aS'citrons'
p38
aaa.