(lp0
S'Green mojito'
p1
aF3.3
aI57
a(lp2
(lp3
S'2.0'
p4
aS'cl de'
p5
aS'vodka'
p6
aa(lp7
S'3.0'
p8
aS'cl de'
p9
aS'midori'
p10
aa(lp11
S'4.0'
p12
aS'cl de'
p13
aS'jus de bananes'
p14
aa(lp15
S'6.0'
p16
aS'cl de'
p17
aS'eau gazeuse (perrier, salvetat)'
p18
aa(lp19
S'15.0'
p20
aS'cl de'
p21
aS'feuilles de menthe'
p22
aa(lp23
S'0.5'
p24
aS'cl de'
p25
aS'citrons verts'
p26
aa(lp27
S'0.5'
p28
aS'cuill\xc3\xa8re de'
p29
aS'cassonade'
p30
aaa.