(lp0
S'L\xc3\xa8che moi'
p1
aF2.8
aI4
a(lp2
(lp3
S'1.0'
p4
aS'cl de'
p5
aS'gin'
p6
aa(lp7
S'1.0'
p8
aS'cl de'
p9
aS'sirop de myrtilles'
p10
aa(lp11
S'1.0'
p12
aS'cl de'
p13
aS'sirop de gingembre'
p14
aa(lp15
S'None'
p16
aS'None'
p17
aS'eau gazeuse (perrier, salvetat)'
p18
aaa.