(lp0
S'Rastafari'
p1
aF3.5
aI2
a(lp2
(lp3
S'2.4'
p4
aS'cl de'
p5
aS'sirop de grenadine'
p6
aa(lp7
S'0.6'
p8
aS'cl de'
p9
aS'rhum blanc'
p10
aa(lp11
S'1.0'
p12
aS'cl de'
p13
aS'sirop de fruit de la passion (maracuja)'
p14
aa(lp15
S'2.0'
p16
aS'cl de'
p17
aS'liqueur de coco (cocogif, malibu)'
p18
aa(lp19
S'1.0'
p20
aS'trait de'
p21
aS'jus de citrons'
p22
aa(lp23
S'3.0'
p24
aS'cl de'
p25
aS'liqueur de bananes (pisang ambon)'
p26
aa(lp27
S'1.0'
p28
aS'cl de'
p29
aS'triple sec (cointreau, grand marnier)'
p30
aaa.