(lp0
S'Mauve cherry'
p1
aF4.4
aI5
a(lp2
(lp3
S'4.0'
p4
aS'cl de'
p5
aS'sirop de sucre de canne'
p6
aa(lp7
S'10.0'
p8
aS'cl de'
p9
aS'jus de cerises'
p10
aa(lp11
S'15.0'
p12
aS'cl de'
p13
aS'infusion de mauve froide'
p14
aaa.