(lp0
S"Conca d'oro"
p1
aF3.8
aI8
a(lp2
(lp3
S'0.625'
p4
aS'volumes de'
p5
aS'gin'
p6
aa(lp7
S'0.125'
p8
aS'volumes de'
p9
aS'liqueur de cerises (cherry brandy)'
p10
aa(lp11
S'0.125'
p12
aS'volumes de'
p13
aS'triple sec (cointreau, grand marnier)'
p14
aa(lp15
S'0.125'
p16
aS'volumes de'
p17
aS'marasquin'
p18
aa(lp19
S'1.0'
p20
aS"zeste d'"
p21
aS'oranges'
p22
aaa.