(lp0
S'Spritz dolce'
p1
aF2.8
aI870
a(lp2
(lp3
S'6.0'
p4
aS'cl de'
p5
aS'vin blanc'
p6
aa(lp7
S'4.0'
p8
aS"cl d'"
p9
aS'aperol'
p10
aa(lp11
S'4.0'
p12
aS"cl d'"
p13
aS'eau gazeuse (perrier, salvetat)'
p14
aaa.