(lp0
S'Slydog'
p1
aF3.0
aI67
a(lp2
(lp3
S'2.0'
p4
aS'cl de'
p5
aS'vodka'
p6
aa(lp7
S'2.0'
p8
aS'cl de'
p9
aS'gin'
p10
aa(lp11
S'None'
p12
aS'None'
p13
aS"jus d'oranges"
p14
aa(lp15
S'None'
p16
aS'None'
p17
aS'orangina rouge'
p18
aaa.