(lp0
S'Florodora'
p1
aF3.0
aI5
a(lp2
(lp3
S'2.0'
p4
aS'cuill\xc3\xa8res \xc3\xa0 caf\xc3\xa9 de'
p5
aS'sirop de framboises'
p6
aa(lp7
S'1.0'
p8
aS'None'
p9
aS'citrons vert'
p10
aa(lp11
S'6.0'
p12
aS'cl de'
p13
aS'gin'
p14
aa(lp15
S'None'
p16
aS'None'
p17
aS'ginger ale (canada dry)'
p18
aaa.