(lp0
S'The special'
p1
aF3.6
aI5
a(lp2
(lp3
S'3.0'
p4
aS'cl de'
p5
aS'liqueur de fraises'
p6
aa(lp7
S'7.0'
p8
aS'cl de'
p9
aS'jus de mangues'
p10
aa(lp11
S'5.0'
p12
aS'cl de'
p13
aS"jus d'oranges"
p14
aa(lp15
S'5.0'
p16
aS'cl de'
p17
aS'jus de bananes'
p18
aa(lp19
S'3.0'
p20
aS'cl de'
p21
aS"jus d'ananas"
p22
aa(lp23
S'2.0'
p24
aS'cl de'
p25
aS'jus de citrons'
p26
aa(lp27
S'10.0'
p28
aS'cl de'
p29
aS'eau gazeuse (perrier, salvetat)'
p30
aaa.