(lp0
S'Winston'
p1
aF3.6
aI5
a(lp2
(lp3
S'6.0'
p4
aS'cl de'
p5
aS'cognac'
p6
aa(lp7
S'1.5'
p8
aS'cl de'
p9
aS'triple sec (cointreau, grand marnier)'
p10
aa(lp11
S'1.0'
p12
aS'cl de'
p13
aS'chartreuse jaune'
p14
aa(lp15
S'2.0'
p16
aS'traits de'
p17
aS'angostura bitters'
p18
aaa.