(lp0
S'R\xc3\xaave rose'
p1
aF4.0
aI1
a(lp2
(lp3
S'4.0'
p4
aS'cl de'
p5
aS'gin'
p6
aa(lp7
S'2.0'
p8
aS'cl de'
p9
aS'spiritueux anis\xc3\xa9 (pastis, ricard, pernod)'
p10
aa(lp11
S'1.0'
p12
aS'cl de'
p13
aS'cr\xc3\xa8me fra\xc3\xaeche liquide'
p14
aa(lp15
S'0.5'
p16
aS'cl de'
p17
aS'sirop de grenadine'
p18
aaa.