(lp0
S'Thin blue line'
p1
aF3.6
aI5
a(lp2
(lp3
S'5.0'
p4
aS'goutes de'
p5
aS'cura\xc3\xa7ao bleu'
p6
aa(lp7
S'1.0'
p8
aS'mesure de'
p9
aS'triple sec (cointreau, grand marnier)'
p10
aa(lp11
S'1.0'
p12
aS'mesure de'
p13
aS'vodka'
p14
aaa.