(lp0
S'Vin de No\xc3\xabl'
p1
aF2.9
aI42
a(lp2
(lp3
S'1.0'
p4
aS'cl de'
p5
aS'cura\xc3\xa7ao bleu'
p6
aa(lp7
S'2.0'
p8
aS'cl de'
p9
aS'liqueur de romarin'
p10
aa(lp11
S'None'
p12
aS'None'
p13
aS'champagne'
p14
aaa.