(lp0
S'Cheetah'
p1
aF4.5
aI2
a(lp2
(lp3
S'1.0'
p4
aS'cl de'
p5
aS'vodka'
p6
aa(lp7
S'1.0'
p8
aS'cl de'
p9
aS'citrons verts'
p10
aa(lp11
S'1.0'
p12
aS'cl de'
p13
aS'cr\xc3\xa8me de bananes'
p14
aa(lp15
S'1.0'
p16
aS'cl de'
p17
aS'liqueur de coco (cocogif, malibu)'
p18
aaa.