(lp0
S'Coffee diablo'
p1
aF1.5
aI2
a(lp2
(lp3
S'1.0'
p4
aS'None'
p5
aS'caf\xc3\xa9'
p6
aa(lp7
S'1.0'
p8
aS'None'
p9
aS'zestes de citron'
p10
aa(lp11
S'1.0'
p12
aS'None'
p13
aS"zestes d'orange"
p14
aa(lp15
S'2.0'
p16
aS'None'
p17
aS'clous de girofle'
p18
aa(lp19
S'1.0'
p20
aS'cl de'
p21
aS'triple sec (cointreau, grand marnier)'
p22
aa(lp23
S'2.0'
p24
aS'cl de'
p25
aS'cognac'
p26
aaa.