(lp0
S'Fucking Peach'
p1
aF3.5
aI12
a(lp2
(lp3
S'4.0'
p4
aS'cl de'
p5
aS'vodka'
p6
aa(lp7
S'3.0'
p8
aS'cl de'
p9
aS'liqueur de p\xc3\xaaches'
p10
aa(lp11
S'8.0'
p12
aS'cl de'
p13
aS'jus de pommes'
p14
aa(lp15
S'3.0'
p16
aS'cl de'
p17
aS'sirop de pina colada'
p18
aaa.