(lp0
S'Espuma passion'
p1
aF2.8
aI6
a(lp2
(lp3
S'33.0'
p4
aS'cl de'
p5
aS'jus de fruit de la passion (maracuja)'
p6
aa(lp7
S'1.0'
p8
aS'gousse de'
p9
aS'vanille'
p10
aa(lp11
S'2.0'
p12
aS'cuill\xc3\xa8res \xc3\xa0 soupe de'
p13
aS'sucre'
p14
aa(lp15
S'1.0'
p16
aS'sachet de'
p17
aS'g\xc3\xa9latine en poudre'
p18
aaa.