(lp0
S'Passion champagne'
p1
aF3.5
aI15
a(lp2
(lp3
S'0.5'
p4
aS'cl de'
p5
aS'sirop de framboises'
p6
aa(lp7
S'2.0'
p8
aS'cl de'
p9
aS'vodka au citron'
p10
aa(lp11
S'2.0'
p12
aS'cl de'
p13
aS"jus d'oranges"
p14
aa(lp15
S'4.0'
p16
aS'cl de'
p17
aS'jus de fruit de la passion (maracuja)'
p18
aa(lp19
S'9.0'
p20
aS'cl de'
p21
aS'champagne'
p22
aaa.