(lp0
S'Vin de m\xc3\xbbres'
p1
aF3.2
aI12
a(lp2
(lp3
S'0.8'
p4
aS'kilos de'
p5
aS'm\xc3\xbbres'
p6
aa(lp7
S'25.0'
p8
aS'grammes de'
p9
aS'sucre'
p10
aa(lp11
S'0.1'
p12
aS'gramme de'
p13
aS'levure de bi\xc3\xa8re'
p14
aa(lp15
S'0.1'
p16
aS"gramme d'"
p17
aS'acide tartrique'
p18
aaa.