(lp0
S'Calvados Sour'
p1
aF3.8
aI6
a(lp2
(lp3
S'4.0'
p4
aS'cl de'
p5
aS'calvados'
p6
aa(lp7
S'4.0'
p8
aS'pinc\xc3\xa9es de'
p9
aS'sucre'
p10
aa(lp11
S'3.0'
p12
aS'traits de'
p13
aS'jus de citrons'
p14
aaa.