(lp0
S'Finsbury park'
p1
aF4.1
aI7
a(lp2
(lp3
S'2.0'
p4
aS'cl de'
p5
aS'jus de bananes'
p6
aa(lp7
S'2.0'
p8
aS'cl de'
p9
aS"jus d'ananas"
p10
aa(lp11
S'0.5'
p12
aS'cl de'
p13
aS'liqueur de kiwis'
p14
aa(lp15
S'2.0'
p16
aS'cl de'
p17
aS'gin'
p18
aaa.