(lp0
S'KoKo Style'
p1
aF2.7
aI3
a(lp2
(lp3
S'3.0'
p4
aS'cl de'
p5
aS'vodka'
p6
aa(lp7
S'9.0'
p8
aS'cl de'
p9
aS'liqueur de framboises'
p10
aa(lp11
S'12.5'
p12
aS'cl de'
p13
aS'limonade (soda, sprite, 7up)'
p14
aa(lp15
S'1.0'
p16
aS'trait de'
p17
aS'sirop de mangue'
p18
aa(lp19
S'1.0'
p20
aS'trait de'
p21
aS'sirop de fruit de la passion (maracuja)'
p22
aa(lp23
S'5.0'
p24
aS'cl de'
p25
aS'cura\xc3\xa7ao bleu'
p26
aaa.