(lp0
S'Frosty Lime'
p1
aF3.2
aI20
a(lp2
(lp3
S'1.0'
p4
aS'boule de'
p5
aS'sorbet de citron vert'
p6
aa(lp7
S'2.0'
p8
aS'cl de'
p9
aS'jus de pamplemousses'
p10
aa(lp11
S'2.0'
p12
aS'cl de'
p13
aS'sirop de menthe'
p14
aaa.