(lp0
S'Triple p\xc3\xaache vert'
p1
aF3.0
aI3
a(lp2
(lp3
S'5.0'
p4
aS'cl de'
p5
aS'triple sec (cointreau, grand marnier)'
p6
aa(lp7
S'1.0'
p8
aS'cl de'
p9
aS'cura\xc3\xa7ao bleu'
p10
aa(lp11
S'18.0'
p12
aS'cl de'
p13
aS'nectar de p\xc3\xaaches'
p14
aaa.