(lp0
S'Pink Purple'
p1
aF3.4
aI10
a(lp2
(lp3
S'5.0'
p4
aS'cl de'
p5
aS'porto pink'
p6
aa(lp7
S'1.0'
p8
aS'trait de'
p9
aS'sirop de m\xc3\xbbre'
p10
aa(lp11
S'10.0'
p12
aS'cl de'
p13
aS'tonic (schweppes)'
p14
aaa.