(lp0
S'Caf\xc3\xa9 au beurre (Bulletproof coffee)'
p1
aF3.2
aI19
a(lp2
(lp3
S'1.0'
p4
aS'None'
p5
aS'caf\xc3\xa9 chaud'
p6
aa(lp7
S'1.0'
p8
aS'cuill\xc3\xa8re \xc3\xa0 caf\xc3\xa9 de'
p9
aS'beurre'
p10
aa(lp11
S'1.0'
p12
aS"cuill\xc3\xa8re \xc3\xa0 caf\xc3\xa9 d'"
p13
aS'huile de coco'
p14
aaa.