(lp0
S'Muslum (vin miell\xc3\xa9)'
p1
aF3.3
aI11
a(lp2
(lp3
S'0.1'
p4
aS'litre de'
p5
aS'vin blanc'
p6
aa(lp7
S'0.5'
p8
aS'cuill\xc3\xa8res \xc3\xa0 soupe de'
p9
aS'sirop de miel'
p10
aa(lp11
S'0.4'
p12
aS'grains de'
p13
aS'poivre'
p14
aa(lp15
S'0.1'
p16
aS'b\xc3\xa2ton de'
p17
aS'cannelle'
p18
aa(lp19
S'0.3'
p20
aS'feuilles de'
p21
aS'laurier'
p22
aa(lp23
S'0.1'
p24
aS'franche de'
p25
aS'romarin'
p26
aaa.