(lp0
S'Snow helvetia'
p1
aF3.7
aI3
a(lp2
(lp3
S'0.5'
p4
aS'cl de'
p5
aS'sirop de grenadine'
p6
aa(lp7
S'2.0'
p8
aS'cl de'
p9
aS'cr\xc3\xa8me fra\xc3\xaeche liquide'
p10
aa(lp11
S'1.5'
p12
aS'cl de'
p13
aS'eau-de-vie de framboises'
p14
aa(lp15
S'3.0'
p16
aS'cl de'
p17
aS'cr\xc3\xa8me de cassis'
p18
aaa.