(lp0
S'Sweet surprise'
p1
aF4.0
aI1
a(lp2
(lp3
S'2.0'
p4
aS'cl de'
p5
aS'rhum blanc'
p6
aa(lp7
S'2.0'
p8
aS'cl de'
p9
aS"jus d'oranges"
p10
aa(lp11
S'1.0'
p12
aS'cl de'
p13
aS'rhum ambr\xc3\xa9'
p14
aa(lp15
S'1.0'
p16
aS'cl de'
p17
aS'sirop de grenadine'
p18
aa(lp19
S'1.0'
p20
aS'cl de'
p21
aS'triple sec (cointreau, grand marnier)'
p22
aa(lp23
S'1.0'
p24
aS'cl de'
p25
aS'jus de citrons'
p26
aa(lp27
S'0.5'
p28
aS'cl de'
p29
aS'spiritueux anis\xc3\xa9 (pastis, ricard, pernod)'
p30
aaa.