(lp0
S'Cuban cocktail'
p1
aF3.8
aI4
a(lp2
(lp3
S'2.0'
p4
aS'cl de'
p5
aS'brandy'
p6
aa(lp7
S'0.5'
p8
aS'cl de'
p9
aS"eau-de-vie d'abricots"
p10
aa(lp11
S'4.0'
p12
aS'cl de'
p13
aS'rhum blanc'
p14
aa(lp15
S'None'
p16
aS"jus d'un"
p17
aS'citrons'
p18
aaa.