(lp0
S'Zombie'
p1
aF3.4
aI595
a(lp2
(lp3
S'3.0'
p4
aS'cl de'
p5
aS'rhum ambr\xc3\xa9'
p6
aa(lp7
S'3.0'
p8
aS'cl de'
p9
aS'rhum blanc'
p10
aa(lp11
S'1.5'
p12
aS'cl de'
p13
aS"liqueur d'abricots (abricot brandy)"
p14
aa(lp15
S'2.0'
p16
aS'cl de'
p17
aS'jus de citrons verts'
p18
aa(lp19
S'0.5'
p20
aS'cl de'
p21
aS'sirop de grenadine'
p22
aa(lp23
S'6.0'
p24
aS'cl de'
p25
aS"jus d'ananas"
p26
aa(lp27
S'1.5'
p28
aS'cl de'
p29
aS'sirop de sucre de canne'
p30
aaa.