(lp0
S'Cocol coffee'
p1
aF4.0
aI4
a(lp2
(lp3
S'4.0'
p4
aS'cl de'
p5
aS'liqueur de menthe blanche (get 31)'
p6
aa(lp7
S'5.0'
p8
aS'cl de'
p9
aS'cr\xc3\xa8me fra\xc3\xaeche liquide'
p10
aa(lp11
S'10.0'
p12
aS'cl de'
p13
aS'caf\xc3\xa9'
p14
aaa.