(lp0
S'Cherry cream'
p1
aF3.4
aI14
a(lp2
(lp3
S'1.0'
p4
aS'cl de'
p5
aS'sucre'
p6
aa(lp7
S'1.0'
p8
aS'cl de'
p9
aS'cr\xc3\xa8me fra\xc3\xaeche liquide'
p10
aa(lp11
S'2.0'
p12
aS'cl de'
p13
aS'kirsch'
p14
aa(lp15
S'4.0'
p16
aS'cl de'
p17
aS'guignolet'
p18
aaa.