(lp0
S'N\xc2\xb05'
p1
aF4.3
aI4
a(lp2
(lp3
S'3.0'
p4
aS'cl de'
p5
aS'vodka'
p6
aa(lp7
S'3.0'
p8
aS'cl de'
p9
aS'tequila'
p10
aa(lp11
S'3.0'
p12
aS'cl de'
p13
aS'gin'
p14
aa(lp15
S'3.0'
p16
aS'cl de'
p17
aS'liqueur de lychees (soho, litchao)'
p18
aa(lp19
S'3.0'
p20
aS'cl de'
p21
aS'melocot\xc3\xb3n'
p22
aa(lp23
S'3.0'
p24
aS'cl de'
p25
aS'midori'
p26
aa(lp27
S'3.0'
p28
aS'cl de'
p29
aS'cr\xc3\xa8me de fraises'
p30
aa(lp31
S'1.0'
p32
aS'trait de'
p33
aS'sirop de framboises'
p34
aa(lp35
S'37.5'
p36
aS'cl de'
p37
aS"jus d'oranges"
p38
aaa.