(lp0
S'Sweet lullaby'
p1
aF4.0
aI3
a(lp2
(lp3
S'10.0'
p4
aS'cl de'
p5
aS"jus d'oranges"
p6
aa(lp7
S'3.0'
p8
aS'cl de'
p9
aS'rhum blanc'
p10
aa(lp11
S'3.0'
p12
aS'cl de'
p13
aS'liqueur de bananes (pisang ambon)'
p14
aaa.