(lp0
S'Paris delight cocktail'
p1
aF4.0
aI1
a(lp2
(lp3
S'2.0'
p4
aS"blanc d'"
p5
aS'oeufs'
p6
aa(lp7
S'4.0'
p8
aS'cl de'
p9
aS'gin'
p10
aa(lp11
S'2.0'
p12
aS'cl de'
p13
aS'jus de pamplemousses'
p14
aa(lp15
S'3.0'
p16
aS'cl de'
p17
aS"liqueur d'abricots (abricot brandy)"
p18
aaa.