(lp0
S'Boisson \xc3\xa9nergisante'
p1
aF3.0
aI37
a(lp2
(lp3
S'10.0'
p4
aS'cuill\xc3\xa8res \xc3\xa0 caf\xc3\xa9 de'
p5
aS'miel'
p6
aa(lp7
S'1.0'
p8
aS'cuill\xc3\xa8re \xc3\xa0 caf\xc3\xa9 de'
p9
aS'bicarbonate de soude'
p10
aa(lp11
S'15.0'
p12
aS'cl de'
p13
aS'jus de citrons'
p14
aa(lp15
S'1.0'
p16
aS"litre d'"
p17
aS'eau'
p18
aaa.