(lp0
S'Quebec and the beach'
p1
aF4.3
aI4
a(lp2
(lp3
S'2.0'
p4
aS'cl de'
p5
aS'midori'
p6
aa(lp7
S'2.0'
p8
aS'cl de'
p9
aS'vodka'
p10
aa(lp11
S'6.0'
p12
aS'cl de'
p13
aS'jus de cranberry (canneberges)'
p14
aa(lp15
S'6.0'
p16
aS'cl de'
p17
aS'jus de pamplemousses'
p18
aa(lp19
S'2.0'
p20
aS'cl de'
p21
aS'chambord'
p22
aaa.