(lp0
S'Sous le signe du printemps'
p1
aF4.0
aI3
a(lp2
(lp3
S'5.0'
p4
aS"cl d'"
p5
aS'armagnac'
p6
aa(lp7
S'1.0'
p8
aS'cl de'
p9
aS'liqueur de violette'
p10
aa(lp11
S'1.0'
p12
aS'cl de'
p13
aS'jus de citrons'
p14
aa(lp15
S'1.0'
p16
aS'demi branche de'
p17
aS'romarin'
p18
aa(lp19
S'None'
p20
aS'None'
p21
aS'limonade (soda, sprite, 7up)'
p22
aaa.