(lp0
S'Fun House'
p1
aF2.9
aI20
a(lp2
(lp3
S'2.0'
p4
aS'cl de'
p5
aS'sirop de barbe \xc3\xa0 papa'
p6
aa(lp7
S'4.0'
p8
aS'cl de'
p9
aS'jus de pommes'
p10
aa(lp11
S'4.0'
p12
aS'cl de'
p13
aS'limonade (soda, sprite, 7up)'
p14
aaa.