(lp0
S'Flash dancer'
p1
aF5.0
aI1
a(lp2
(lp3
S'1.0'
p4
aS'pinc\xc3\xa9e'
p5
aS'cannelle'
p6
aa(lp7
S'3.0'
p8
aS'cl de'
p9
aS'limonade (soda, sprite, 7up)'
p10
aa(lp11
S'3.0'
p12
aS'cl de'
p13
aS'cura\xc3\xa7ao bleu'
p14
aa(lp15
S'3.0'
p16
aS'cl de'
p17
aS'triple sec (cointreau, grand marnier)'
p18
aaa.