(lp0
S'Rise of the Guardians'
p1
aF2.7
aI3
a(lp2
(lp3
S'3.0'
p4
aS'cl de'
p5
aS'vermouth rouge (martini, cinzano)'
p6
aa(lp7
S'2.0'
p8
aS'cl de'
p9
aS'liqueur de romarin'
p10
aa(lp11
S'2.0'
p12
aS'cl de'
p13
aS'jus de citrons verts'
p14
aa(lp15
S'3.0'
p16
aS"gouttes d'"
p17
aS'angostura bitters'
p18
aaa.