(lp0
S'Much more'
p1
aF4.0
aI5
a(lp2
(lp3
S'2.5'
p4
aS'cl de'
p5
aS'gin'
p6
aa(lp7
S'1.0'
p8
aS'cl de'
p9
aS'liqueur de fraises'
p10
aa(lp11
S'1.0'
p12
aS'cl de'
p13
aS'liqueur de cerises (cherry brandy)'
p14
aa(lp15
S'1.0'
p16
aS'cl de'
p17
aS'cr\xc3\xa8me de bananes'
p18
aa(lp19
S'0.5'
p20
aS'cl de'
p21
aS"jus d'oranges"
p22
aaa.