(lp0
S'Deauvillais'
p1
aF3.3
aI9
a(lp2
(lp3
S'0.5'
p4
aS'cl de'
p5
aS'jus de citrons'
p6
aa(lp7
S'2.0'
p8
aS'cl de'
p9
aS'vodka'
p10
aa(lp11
S'0.5'
p12
aS'cl de'
p13
aS'liqueur de cerises (cherry brandy)'
p14
aa(lp15
S'1.5'
p16
aS'cl de'
p17
aS'liqueur de fraises'
p18
aa(lp19
S'3.0'
p20
aS'cl de'
p21
aS"jus d'ananas"
p22
aaa.