(lp0
S'Poison'
p1
aF3.9
aI14
a(lp2
(lp3
S'7.0'
p4
aS'cl de'
p5
aS'tequila'
p6
aa(lp7
S'2.0'
p8
aS'cl de'
p9
aS'sirop de jasmin'
p10
aa(lp11
S'1.0'
p12
aS'cl de'
p13
aS'sirop de macaron'
p14
aa(lp15
S'1.0'
p16
aS'cl de'
p17
aS'liqueur de citrons (limoncello)'
p18
aaa.