(lp0
S'GMX'
p1
aF3.0
aI1
a(lp2
(lp3
S'3.0'
p4
aS'cl de'
p5
aS'cr\xc3\x83\xc2\xa8me de whisky (baileys)'
p6
aa(lp7
S'2.0'
p8
aS'cl de'
p9
aS'liqueur de coco (cocogif, malibu)'
p10
aa(lp11
S'1.0'
p12
aS'cl de'
p13
aS'liqueur de caf\xc3\x83\xc2\xa9 (kahlua, marie brizard)'
p14
aaa.