(lp0
S'Calvapple'
p1
aF2.8
aI5
a(lp2
(lp3
S'1.0'
p4
aS'volume de'
p5
aS'jus de pommes'
p6
aa(lp7
S'1.0'
p8
aS'volume de'
p9
aS'calvados'
p10
aa(lp11
S'None'
p12
aS'morceaux de'
p13
aS'pommes'
p14
aa(lp15
S'None'
p16
aS'morceaux de'
p17
aS'poires'
p18
aaa.