(lp0
S'Madmix'
p1
aF3.6
aI5
a(lp2
(lp3
S'1.0'
p4
aS'trait de'
p5
aS'cura\xc3\xa7ao bleu'
p6
aa(lp7
S'1.0'
p8
aS'cl de'
p9
aS'sirop de grenadine'
p10
aa(lp11
S'6.0'
p12
aS'cl de'
p13
aS'tequila'
p14
aa(lp15
S'8.0'
p16
aS'cl de'
p17
aS'rhum blanc'
p18
aaa.