(lp0
S'White land'
p1
aF3.3
aI3
a(lp2
(lp3
S'1.0'
p4
aS'cl de'
p5
aS'triple sec (cointreau, grand marnier)'
p6
aa(lp7
S'1.0'
p8
aS'cl de'
p9
aS'liqueur de bananes (pisang ambon)'
p10
aa(lp11
S'2.0'
p12
aS'cl de'
p13
aS'lait'
p14
aa(lp15
S'2.0'
p16
aS'cl de'
p17
aS'whisky (bourbon, whiskey)'
p18
aaa.