(lp0
S'Kalis 1769'
p1
aF4.3
aI4
a(lp2
(lp3
S'5.0'
p4
aS'cl de'
p5
aS'whisky (bourbon, whiskey)'
p6
aa(lp7
S'1.0'
p8
aS'cl de'
p9
aS'eau de vie de myrte'
p10
aa(lp11
S'3.0'
p12
aS'cl de'
p13
aS'jus de citrons'
p14
aa(lp15
S'1.0'
p16
aS'cl de'
p17
aS'lait'
p18
aa(lp19
S'6.0'
p20
aS'cl de'
p21
aS'eau gazeuse (perrier, salvetat)'
p22
aaa.