(lp0
S'Pays du soleil levant'
p1
aF2.8
aI6
a(lp2
(lp3
S'0.333333333333'
p4
aS'de'
p5
aS'shochu'
p6
aa(lp7
S'0.333333333333'
p8
aS'de'
p9
aS'midori'
p10
aa(lp11
S'0.333333333333'
p12
aS'de'
p13
aS'jus de citron'
p14
aaa.