(lp0
S'4 seasons kir'
p1
aF3.4
aI12
a(lp2
(lp3
S'1.0'
p4
aS'cl de'
p5
aS'liqueur de rhubarbe'
p6
aa(lp7
S'1.0'
p8
aS'cl de'
p9
aS'liqueur de fraises'
p10
aa(lp11
S'1.0'
p12
aS'cl de'
p13
aS'liqueur mandarine napol\xc3\xa9on'
p14
aa(lp15
S'None'
p16
aS'cl de'
p17
aS'champagne'
p18
aaa.