(lp0
S'Fun at the beach'
p1
aF4.3
aI92
a(lp2
(lp3
S'2.0'
p4
aS'cl de'
p5
aS'vodka'
p6
aa(lp7
S'2.0'
p8
aS'cl de'
p9
aS'midori'
p10
aa(lp11
S'2.0'
p12
aS'cl de'
p13
aS'cr\xc3\xa8me de m\xc3\xbbre'
p14
aa(lp15
S'3.0'
p16
aS'cl de'
p17
aS"jus d'oranges"
p18
aa(lp19
S'3.0'
p20
aS'cl de'
p21
aS'jus de cranberry (canneberges)'
p22
aaa.