(lp0
S'Punch a la peche'
p1
aF3.0
aI5
a(lp2
(lp3
S'1.0'
p4
aS"litre d'"
p5
aS'eau gazeuse (perrier, salvetat)'
p6
aa(lp7
S'1.0'
p8
aS"litre d'"
p9
aS'eau'
p10
aa(lp11
S'50.0'
p12
aS'cl de'
p13
aS"jus d'oranges"
p14
aa(lp15
S'0.25'
p16
aS'litres de'
p17
aS'jus de citrons'
p18
aa(lp19
S'200.0'
p20
aS'g de'
p21
aS'sucre'
p22
aa(lp23
S'4.0'
p24
aS'None'
p25
aS'p\xc3\xaaches'
p26
aaa.