(lp0
S'Austrian friendship'
p1
aF4.0
aI1
a(lp2
(lp3
S'None'
p4
aS'jus'
p5
aS"jus d'ananas"
p6
aa(lp7
S'2.0'
p8
aS'cl de'
p9
aS'liqueur de coco (cocogif, malibu)'
p10
aa(lp11
S'2.0'
p12
aS'cl de'
p13
aS'liqueur de poire'
p14
aa(lp15
S'2.0'
p16
aS'cl de'
p17
aS'liqueur de p\xc3\xaaches'
p18
aa(lp19
S'1.0'
p20
aS'cl de'
p21
aS'liqueur de cerises (cherry brandy)'
p22
aaa.