(lp0
S'La Navicule Bleue'
p1
aF3.9
aI9
a(lp2
(lp3
S'2.0'
p4
aS'cl de'
p5
aS'cognac'
p6
aa(lp7
S'1.0'
p8
aS'cl de'
p9
aS'cura\xc3\xa7ao bleu'
p10
aa(lp11
S'5.0'
p12
aS'cl de'
p13
aS"jus d'ananas"
p14
aa(lp15
S'2.0'
p16
aS'cl de'
p17
aS'pineau des charentes'
p18
aaa.