(lp0
S'Verra Mexiquaine'
p1
aF4.3
aI4
a(lp2
(lp3
S'1.0'
p4
aS'cuill\xc3\xa8re de'
p5
aS'cura\xc3\xa7ao bleu'
p6
aa(lp7
S'2.0'
p8
aS'cl de'
p9
aS'triple sec (cointreau, grand marnier)'
p10
aa(lp11
S'2.0'
p12
aS'cl de'
p13
aS'tequila'
p14
aa(lp15
S'1.0'
p16
aS'pinc\xc3\xa9es de'
p17
aS'piments rouges'
p18
aa(lp19
S'25.0'
p20
aS'gouttes de'
p21
aS'aloe vera'
p22
aaa.