(lp0
S'Kiss & Roses'
p1
aF3.0
aI4
a(lp2
(lp3
S'4.0'
p4
aS'cl de'
p5
aS'vodka'
p6
aa(lp7
S'3.0'
p8
aS'cl de'
p9
aS'jus de fraises'
p10
aa(lp11
S'1.5'
p12
aS'cl de'
p13
aS'sirop de roses'
p14
aa(lp15
S'0.5'
p16
aS'cl de'
p17
aS'jus de citrons verts'
p18
aa(lp19
S'None'
p20
aS'None'
p21
aS'limonade (soda, sprite, 7up)'
p22
aaa.