(lp0
S'Soaring blue'
p1
aF4.4
aI10
a(lp2
(lp3
S'3.0'
p4
aS'cl de'
p5
aS'whisky (bourbon, whiskey)'
p6
aa(lp7
S'1.5'
p8
aS'cl de'
p9
aS'cura\xc3\xa7ao bleu'
p10
aa(lp11
S'1.0'
p12
aS'cl de'
p13
aS'gin'
p14
aa(lp15
S'1.0'
p16
aS'cl de'
p17
aS'jus de citrons verts'
p18
aa(lp19
S'0.5'
p20
aS'cl de'
p21
aS'sirop de sucre de canne'
p22
aaa.