(lp0
S'Perfect Chocolate'
p1
aF3.2
aI26
a(lp2
(lp3
S'70.0'
p4
aS'grammes de'
p5
aS'chocolat amer'
p6
aa(lp7
S'50.0'
p8
aS'cl de'
p9
aS'lait'
p10
aa(lp11
S'2.0'
p12
aS'cl de'
p13
aS'sirop de miel'
p14
aa(lp15
S'None'
p16
aS"zeste d'une demie"
p17
aS'oranges'
p18
aa(lp19
S'2.0'
p20
aS'cl de'
p21
aS'sirop de cannelle'
p22
aa(lp23
S'5.0'
p24
aS'cl de'
p25
aS'rhum blanc'
p26
aaa.