(lp0
S'Sirop de sucre vanill\xc3\xa9'
p1
aF3.0
aI2
a(lp2
(lp3
S'2.0'
p4
aS'gousses de'
p5
aS'vanille'
p6
aa(lp7
S'1.0'
p8
aS"litres d'"
p9
aS'eau'
p10
aa(lp11
S'1.0'
p12
aS'kilo de'
p13
aS'sucre'
p14
aaa.