(lp0
S'Liqueur de menthe'
p1
aF3.0
aI23
a(lp2
(lp3
S'25.0'
p4
aS'grammes de'
p5
aS'feuilles de menthe'
p6
aa(lp7
S'0.1'
p8
aS"litre d'"
p9
aS'alcool de fruits'
p10
aa(lp11
S'0.1'
p12
aS'kg de'
p13
aS'sucre'
p14
aa(lp15
S'5.0'
p16
aS"cl d'"
p17
aS'eau'
p18
aa(lp19
S'0.1'
p20
aS'cuill\xc3\xa8re \xc3\xa0 soupe de'
p21
aS'sirop de menthe'
p22
aaa.