(lp0
S'Mandeville'
p1
aF4.0
aI8
a(lp2
(lp3
S'2.0'
p4
aS'cl de'
p5
aS'rhum ambr\xc3\xa9'
p6
aa(lp7
S'2.0'
p8
aS'cl de'
p9
aS'rhum blanc'
p10
aa(lp11
S'1.0'
p12
aS'cl de'
p13
aS'spiritueux anis\xc3\xa9 (pastis, ricard, pernod)'
p14
aa(lp15
S'1.0'
p16
aS'cl de'
p17
aS'jus de citrons'
p18
aa(lp19
S'0.5'
p20
aS'cuill\xc3\xa8re \xc3\xa0 caf\xc3\xa9 de'
p21
aS'sirop de grenadine'
p22
aa(lp23
S'None'
p24
aS'None'
p25
aS'cola (coca cola, pepsi)'
p26
aaa.