(lp0
S'Fruit Cup'
p1
aF3.7
aI13
a(lp2
(lp3
S'4.0'
p4
aS'cl de'
p5
aS"jus d'oranges"
p6
aa(lp7
S'4.0'
p8
aS'cl de'
p9
aS'jus de citrons'
p10
aa(lp11
S'4.0'
p12
aS'cl de'
p13
aS"jus d'ananas"
p14
aa(lp15
S'4.0'
p16
aS'cl de'
p17
aS'jus de raisin noir'
p18
aa(lp19
S'4.0'
p20
aS'cl de'
p21
aS'sirop de framboises'
p22
aa(lp23
S'4.0'
p24
aS'cl de'
p25
aS'sirop de fraises'
p26
aa(lp27
S'0.5'
p28
aS'None'
p29
aS'banane'
p30
aaa.