(lp0
S'Fr\xc3\xa9jus'
p1
aF4.0
aI1
a(lp2
(lp3
S'3.0'
p4
aS'cl de'
p5
aS'spiritueux anis\xc3\xa9 (pastis, ricard, pernod)'
p6
aa(lp7
S'2.0'
p8
aS'cl de'
p9
aS'cura\xc3\xa7ao bleu'
p10
aa(lp11
S'0.5'
p12
aS'cl de'
p13
aS'angostura bitters'
p14
aaa.