(lp0
S'Viti levu'
p1
aF2.6
aI10
a(lp2
(lp3
S'6.0'
p4
aS'cl de'
p5
aS"jus d'ananas"
p6
aa(lp7
S'2.0'
p8
aS'cl de'
p9
aS'rhum blanc'
p10
aa(lp11
S'1.0'
p12
aS'cl de'
p13
aS'liqueur de coco (cocogif, malibu)'
p14
aa(lp15
S'3.0'
p16
aS'cl de'
p17
aS'sirop de kiwi'
p18
aaa.