(lp0
S'Aramis'
p1
aF3.2
aI6
a(lp2
(lp3
S'1.0'
p4
aS'cl de'
p5
aS'cura\xc3\xa7ao bleu'
p6
aa(lp7
S'5.0'
p8
aS'cl de'
p9
aS'gin'
p10
aa(lp11
S'10.0'
p12
aS'cl de'
p13
aS'jus de pamplemousses'
p14
aa(lp15
S'2.0'
p16
aS'cl de'
p17
aS'cura\xc3\xa7ao bleu'
p18
aaa.