(lp0
S'Europa'
p1
aF4.0
aI5
a(lp2
(lp3
S'None'
p4
aS'None'
p5
aS'tonic (schweppes)'
p6
aa(lp7
S'3.0'
p8
aS'cl de'
p9
aS'gin'
p10
aa(lp11
S'3.0'
p12
aS'cl de'
p13
aS"jus d'ananas"
p14
aa(lp15
S'1.5'
p16
aS'cl de'
p17
aS'cr\xc3\xa8me de p\xc3\xaache'
p18
aaa.