(lp0
S'Yaourt \xc3\xa0 boire'
p1
aF3.0
aI12
a(lp2
(lp3
S'1.0'
p4
aS'None'
p5
aS'yaourt nature'
p6
aa(lp7
S'3.0'
p8
aS'cl de'
p9
aS'lait'
p10
aa(lp11
S'2.0'
p12
aS'cl de'
p13
aS'sirop de miel'
p14
aaa.