(lp0
S'Five dominos'
p1
aF3.8
aI6
a(lp2
(lp3
S'0.333333333333'
p4
aS'de'
p5
aS'rhum blanc'
p6
aa(lp7
S'0.333333333333'
p8
aS'de'
p9
aS'lait de coco'
p10
aa(lp11
S'0.333333333333'
p12
aS'de'
p13
aS'cr\xc3\xa8me de banane'
p14
aaa.