(lp0
S'Pastis Valaisan'
p1
aF4.2
aI6
a(lp2
(lp3
S'2.0'
p4
aS'cl de'
p5
aS'jus de fruits exotiques'
p6
aa(lp7
S'0.5'
p8
aS'cl de'
p9
aS'liqueur de poire'
p10
aa(lp11
S'1.5'
p12
aS'cl de'
p13
aS'spiritueux anis\xc3\xa9 (pastis, ricard, pernod)'
p14
aa(lp15
S'4.0'
p16
aS'cuill\xc3\xa8re de'
p17
aS'sucre'
p18
aa(lp19
S'1.0'
p20
aS'cuill\xc3\xa8re de'
p21
aS'raisins'
p22
aaa.