(lp0
S'G\xc3\xa9om\xc3\xa9trie'
p1
aF3.2
aI9
a(lp2
(lp3
S'4.0'
p4
aS'cl de'
p5
aS'sak\xc3\xa9 (alcool de riz)'
p6
aa(lp7
S'2.0'
p8
aS'cl de'
p9
aS'triple sec (cointreau, grand marnier)'
p10
aa(lp11
S'1.0'
p12
aS'cl de'
p13
aS'liqueur de menthe verte (get 27)'
p14
aa(lp15
S'3.0'
p16
aS'cl de'
p17
aS'jus de pamplemousses'
p18
aaa.