(lp0
S'Passoa red bull'
p1
aF3.4
aI18
a(lp2
(lp3
S'3.0'
p4
aS'cl de'
p5
aS'cr\xc3\xa8me de fruit de la passion'
p6
aa(lp7
S'0.5'
p8
aS'canette de'
p9
aS'energy drink (red bull, pitbull, duff)'
p10
aaa.