(lp0
S'Cactious'
p1
aF3.0
aI2
a(lp2
(lp3
S'1.0'
p4
aS'gouttes de'
p5
aS'sirop de bubble gum'
p6
aa(lp7
S'1.0'
p8
aS'trait de'
p9
aS'sirop de kiwi'
p10
aa(lp11
S'2.0'
p12
aS'cl de'
p13
aS'cacha\xc3\xa7a'
p14
aaa.