(lp0
S'Nuage rose'
p1
aF4.3
aI4
a(lp2
(lp3
S'6.0'
p4
aS'cl de'
p5
aS'rhum blanc'
p6
aa(lp7
S'1.0'
p8
aS'cl de'
p9
aS'kirsch'
p10
aa(lp11
S'1.0'
p12
aS'cl de'
p13
aS'sirop de sucre de canne'
p14
aa(lp15
S'1.0'
p16
aS'trait de'
p17
aS'sirop de grenadine'
p18
aa(lp19
S'3.0'
p20
aS'cuill\xc3\xa8re de'
p21
aS'cr\xc3\xa8me chantilly'
p22
aaa.