(lp0
S'Red Caipiroska'
p1
aF3.2
aI70
a(lp2
(lp3
S'0.25'
p4
aS"d'un"
p5
aS'pamplemousses'
p6
aa(lp7
S'1.0'
p8
aS'cuill\xc3\xa8re \xc3\xa0 soupe de'
p9
aS'sucre'
p10
aa(lp11
S'4.0'
p12
aS'cl de'
p13
aS'vodka rouge (eristoff)'
p14
aaa.