(lp0
S'Coup de Fouet'
p1
aF4.0
aI9
a(lp2
(lp3
S'6.0'
p4
aS'cuill\xc3\xa8res \xc3\xa0 soupe'
p5
aS'fleurs de bruy\xc3\xa8re'
p6
aa(lp7
S'6.0'
p8
aS'cuill\xc3\xa8res \xc3\xa0 soupe'
p9
aS'racines de chiendent'
p10
aa(lp11
S'6.0'
p12
aS'cuill\xc3\xa8res \xc3\xa0 soupe'
p13
aS'queues de cerises'
p14
aaa.