(lp0
S'Sorbet \xc3\xa0 la framboise'
p1
aF3.7
aI57
a(lp2
(lp3
S'133.333333333'
p4
aS'grammes de'
p5
aS'framboises'
p6
aa(lp7
S'66.6666666667'
p8
aS'grammes de'
p9
aS'sucre'
p10
aa(lp11
S'6.66666666667'
p12
aS"cl d'"
p13
aS'eau'
p14
aa(lp15
S'0.166666666667'
p16
aS'None'
p17
aS'citron'
p18
aaa.