(lp0
S'Cherrylore'
p1
aF3.0
aI9
a(lp2
(lp3
S'1.5'
p4
aS'cl de'
p5
aS'mangalore'
p6
aa(lp7
S'2.0'
p8
aS'cl de'
p9
aS'cr\xc3\xa8me de m\xc3\xbbre'
p10
aa(lp11
S'1.0'
p12
aS'cl de'
p13
aS'sirop de cerise'
p14
aa(lp15
S'3.0'
p16
aS'cl de'
p17
aS"jus d'ananas"
p18
aa(lp19
S'0.5'
p20
aS'cl de'
p21
aS'jus de citrons'
p22
aaa.