(lp0
S'Alexander baby'
p1
aF3.5
aI6
a(lp2
(lp3
S'9.0'
p4
aS'cl de'
p5
aS'rhum blanc'
p6
aa(lp7
S'4.5'
p8
aS'cl de'
p9
aS'liqueur de cacao brun'
p10
aa(lp11
S'2.5'
p12
aS'cl de'
p13
aS'cr\xc3\xa8me fra\xc3\xaeche liquide'
p14
aa(lp15
S'None'
p16
aS'None'
p17
aS'noix de muscade r\xc3\xa2p\xc3\xa9e'
p18
aaa.