(lp0
S'Stinger tomato'
p1
aF2.0
aI1
a(lp2
(lp3
S'2.0'
p4
aS'cl de'
p5
aS'liqueur de menthe blanche (get 31)'
p6
aa(lp7
S'2.0'
p8
aS'cl de'
p9
aS'jus de tomates'
p10
aa(lp11
S'2.0'
p12
aS'cl de'
p13
aS'gin'
p14
aa(lp15
S'0.5'
p16
aS'cl de'
p17
aS'citrons verts'
p18
aa(lp19
S'1.0'
p20
aS'pinc\xc3\xa9e de'
p21
aS'sel'
p22
aa(lp23
S'1.0'
p24
aS'pinc\xc3\xa9e de'
p25
aS'poivre'
p26
aaa.