(lp0
S'Exotic Night'
p1
aF2.5
aI2
a(lp2
(lp3
S'4.0'
p4
aS'cl de'
p5
aS'gin'
p6
aa(lp7
S'2.0'
p8
aS'cl de'
p9
aS'cr\xc3\xa8me de fruit de la passion'
p10
aa(lp11
S'2.0'
p12
aS'cl de'
p13
aS'liqueur de lychees (soho, litchao)'
p14
aa(lp15
S'4.0'
p16
aS'cl de'
p17
aS'jus de mangues'
p18
aa(lp19
S'2.0'
p20
aS'cl de'
p21
aS'jus de citrons verts'
p22
aa(lp23
S'2.0'
p24
aS'cl de'
p25
aS'sirop de grenadine'
p26
aaa.