(lp0
S'Astronaut'
p1
aF3.4
aI13
a(lp2
(lp3
S'None'
p4
aS'None'
p5
aS'caf\xc3\xa9 en poudre'
p6
aa(lp7
S'None'
p8
aS'None'
p9
aS'sucre'
p10
aa(lp11
S'3.0'
p12
aS'cl de'
p13
aS'vodka'
p14
aa(lp15
S'1.0'
p16
aS'quartier de'
p17
aS'citrons'
p18
aaa.