(lp0
S'Bonbon rose'
p1
aF4.0
aI2
a(lp2
(lp3
S'3.0'
p4
aS'cl de'
p5
aS'jus de citrons'
p6
aa(lp7
S'3.0'
p8
aS"cl d'"
p9
aS'eau'
p10
aa(lp11
S'1.5'
p12
aS'cl de'
p13
aS'liqueur de framboises'
p14
aa(lp15
S'1.0'
p16
aS'cl de'
p17
aS'sucre'
p18
aaa.