(lp0
S'Village'
p1
aF3.0
aI2
a(lp2
(lp3
S'3.0'
p4
aS'cl de'
p5
aS'whisky (bourbon, whiskey)'
p6
aa(lp7
S'1.5'
p8
aS'cl de'
p9
aS'cr\xc3\xa8me de whisky (baileys)'
p10
aa(lp11
S'1.5'
p12
aS'cl de'
p13
aS"jus d'ananas"
p14
aa(lp15
S'0.5'
p16
aS'cl de'
p17
aS'jus de citrons'
p18
aa(lp19
S'0.5'
p20
aS'cl de'
p21
aS'sirop de fraises'
p22
aaa.