(lp0
S'Royal Ice Mojito'
p1
aF3.7
aI3
a(lp2
(lp3
S'2.0'
p4
aS'boules de'
p5
aS'sorbet de citron vert'
p6
aa(lp7
S'5.0'
p8
aS'None'
p9
aS'feuilles de menthe'
p10
aa(lp11
S'2.0'
p12
aS'cl de'
p13
aS'vodka'
p14
aa(lp15
S'None'
p16
aS'None'
p17
aS'champagne'
p18
aaa.