(lp0
S'Red moon'
p1
aF3.5
aI11
a(lp2
(lp3
S'2.0'
p4
aS'cl de'
p5
aS'liqueur de lychees (soho, litchao)'
p6
aa(lp7
S'6.0'
p8
aS'cl de'
p9
aS'jus de cerises'
p10
aa(lp11
S'2.0'
p12
aS'cl de'
p13
aS'jus de cranberry (canneberges)'
p14
aaa.