(lp0
S'Vienna shooter'
p1
aF3.1
aI21
a(lp2
(lp3
S'12.0'
p4
aS'cl de'
p5
aS'caf\xc3\xa9'
p6
aa(lp7
S'6.0'
p8
aS'cl de'
p9
aS'cr\xc3\xa8me fra\xc3\xaeche liquide'
p10
aa(lp11
S'None'
p12
aS'None'
p13
aS'cr\xc3\xa8me fra\xc3\xaeche liquide'
p14
aa(lp15
S'None'
p16
aS'None'
p17
aS'chocolat en poudre'
p18
aa(lp19
S'0.5'
p20
aS'cuill\xc3\xa8re \xc3\xa0 caf\xc3\xa9 de'
p21
aS'cannelle'
p22
aa(lp23
S'1.0'
p24
aS'cl de'
p25
aS'sirop de chocolat'
p26
aaa.