(lp0
S'Champagne punch'
p1
aF3.0
aI1
a(lp2
(lp3
S'0.5'
p4
aS'bouteille de'
p5
aS'marasquin'
p6
aa(lp7
S'0.5'
p8
aS'bouteille de'
p9
aS'triple sec (cointreau, grand marnier)'
p10
aa(lp11
S'1.0'
p12
aS'bouteille de'
p13
aS'cognac'
p14
aa(lp15
S'250.0'
p16
aS'g de'
p17
aS'sucre'
p18
aa(lp19
S'500.0'
p20
aS'g de'
p21
aS'fraises'
p22
aa(lp23
S'4.0'
p24
aS'None'
p25
aS'pamplemousses'
p26
aa(lp27
S'6.0'
p28
aS'None'
p29
aS'oranges'
p30
aa(lp31
S'3.0'
p32
aS'None'
p33
aS'ananas'
p34
aaa.