(lp0
S'Enm\xc3\xa9'
p1
aF3.2
aI9
a(lp2
(lp3
S'4.0'
p4
aS'cl de'
p5
aS'rhum blanc'
p6
aa(lp7
S'0.05'
p8
aS'None'
p9
aS'mangue'
p10
aa(lp11
S'0.3'
p12
aS'branches de'
p13
aS'menthe'
p14
aa(lp15
S'0.6'
p16
aS'cl de'
p17
aS'sirop de gingembre'
p18
aa(lp19
S'1.5'
p20
aS'cl de'
p21
aS'sirop de sucre de canne'
p22
aaa.