(lp0
S'Hot toddy'
p1
aF3.3
aI4
a(lp2
(lp3
S'6.0'
p4
aS'cl de'
p5
aS'whisky (bourbon, whiskey)'
p6
aa(lp7
S'None'
p8
aS'None'
p9
aS'noix de muscade r\xc3\xa2p\xc3\xa9e'
p10
aa(lp11
S'1.0'
p12
aS'morceau de'
p13
aS'sucre'
p14
aa(lp15
S'1.0'
p16
aS'None'
p17
aS'citron'
p18
aa(lp19
S'1.0'
p20
aS'trait de'
p21
aS'sirop de cannelle'
p22
aaa.