(lp0
S'A la Russe'
p1
aF3.5
aI71
a(lp2
(lp3
S'10.0'
p4
aS'cl de'
p5
aS'vodka'
p6
aa(lp7
S'2.0'
p8
aS'cl de'
p9
aS'sirop de sucre de canne'
p10
aa(lp11
S'1.0'
p12
aS'None'
p13
aS'citrons vert'
p14
aaa.