(lp0
S'Copacabana Sun'
p1
aF2.7
aI7
a(lp2
(lp3
S'2.0'
p4
aS'cl de'
p5
aS'lait de coco'
p6
aa(lp7
S'4.0'
p8
aS'cl de'
p9
aS'rhum blanc'
p10
aa(lp11
S'2.0'
p12
aS'cl de'
p13
aS'cura\xc3\xa7ao bleu'
p14
aaa.