(lp0
S'Force de Menthe'
p1
aF3.3
aI3
a(lp2
(lp3
S'2.0'
p4
aS'cuill\xc3\xa8res \xc3\xa0 soupe'
p5
aS"semences d'anis vert"
p6
aa(lp7
S'3.0'
p8
aS'cuill\xc3\xa8res \xc3\xa0 soupe'
p9
aS"feuilles d'eucalyptus"
p10
aa(lp11
S'4.0'
p12
aS'cuill\xc3\xa8res \xc3\xa0 soupe'
p13
aS'feuilles de thym'
p14
aa(lp15
S'4.0'
p16
aS'cuill\xc3\xa8res \xc3\xa0 soupe'
p17
aS'feuilles de romarin'
p18
aa(lp19
S'5.0'
p20
aS'cuill\xc3\xa8res \xc3\xa0 soupe'
p21
aS'feuilles de menthe'
p22
aaa.