(lp0
S'Bob'
p1
aF1.7
aI3
a(lp2
(lp3
S'2.0'
p4
aS'cl de'
p5
aS'sirop de kiwi'
p6
aa(lp7
S'8.0'
p8
aS'cl de'
p9
aS'jus de framboises'
p10
aa(lp11
S'4.0'
p12
aS'cl de'
p13
aS'jus de melons'
p14
aa(lp15
S'1.0'
p16
aS'cl de'
p17
aS'sirop de cerise'
p18
aa(lp19
S'8.0'
p20
aS'cl de'
p21
aS'jus de bananes'
p22
aaa.