(lp0
S'Cape Codder'
p1
aF3.5
aI17
a(lp2
(lp3
S'5.0'
p4
aS'cl de'
p5
aS'vodka'
p6
aa(lp7
S'16.0'
p8
aS'cl de'
p9
aS'jus de cranberry (canneberges)'
p10
aa(lp11
S'1.0'
p12
aS'None'
p13
aS'citrons vert'
p14
aaa.