(lp0
S'Sweet Fizz'
p1
aF3.0
aI1
a(lp2
(lp3
S'4.0'
p4
aS'cl de'
p5
aS'tequila'
p6
aa(lp7
S'2.0'
p8
aS'cl de'
p9
aS'triple sec (cointreau, grand marnier)'
p10
aa(lp11
S'4.0'
p12
aS'cl de'
p13
aS"jus d'oranges"
p14
aa(lp15
S'2.0'
p16
aS'cl de'
p17
aS'jus de citrons verts'
p18
aa(lp19
S'0.5'
p20
aS'cl de'
p21
aS'sirop de miel'
p22
aa(lp23
S'1.0'
p24
aS"blanc d'"
p25
aS'oeufs'
p26
aa(lp27
S'None'
p28
aS'None'
p29
aS'tonic (schweppes)'
p30
aaa.