(lp0
S'Le francois antilla cup'
p1
aF3.3
aI3
a(lp2
(lp3
S'50.0'
p4
aS'cl de'
p5
aS"jus d'oranges"
p6
aa(lp7
S'None'
p8
aS"jus d'1/2"
p9
aS'citrons verts'
p10
aa(lp11
S'8.0'
p12
aS'cl de'
p13
aS'liqueur de caf\xc3\xa9 (kahlua, marie brizard)'
p14
aa(lp15
S'8.0'
p16
aS'cl de'
p17
aS'rhum ambr\xc3\xa9'
p18
aaa.