(lp0
S'Vitamine'
p1
aF3.1
aI19
a(lp2
(lp3
S'8.0'
p4
aS'cl de'
p5
aS'jus de pamplemousses'
p6
aa(lp7
S'4.0'
p8
aS'cl de'
p9
aS'angostura bitters'
p10
aa(lp11
S'3.0'
p12
aS'cl de'
p13
aS"jus d'oranges"
p14
aaa.