(lp0
S'Douceur fruit\xc3\xa9e'
p1
aF3.5
aI112
a(lp2
(lp3
S'3.0'
p4
aS'cl de'
p5
aS'liqueur de lychees (soho, litchao)'
p6
aa(lp7
S'4.0'
p8
aS'cl de'
p9
aS'jus de bananes'
p10
aa(lp11
S'7.0'
p12
aS'cl de'
p13
aS'jus de goyaves'
p14
aaa.