(lp0
S'Virgin Mojito'
p1
aF3.2
aI905
a(lp2
(lp3
S'2.0'
p4
aS'cl de'
p5
aS'sirop de mojito'
p6
aa(lp7
S'3.0'
p8
aS'cl de'
p9
aS'sirop caribbean (saveur rhum)'
p10
aa(lp11
S'1.0'
p12
aS'quartier de '
p13
aS'citrons verts'
p14
aa(lp15
S'2.0'
p16
aS'feuilles de'
p17
aS'menthe'
p18
aa(lp19
S'10.0'
p20
aS'cl de'
p21
aS'eau gazeuse (perrier, salvetat)'
p22
aaa.