(lp0
S'Jango'
p1
aF3.5
aI6
a(lp2
(lp3
S'0.3'
p4
aS'cl de'
p5
aS'tequila'
p6
aa(lp7
S'0.2'
p8
aS'cl de'
p9
aS'cacha\xc3\xa7a'
p10
aa(lp11
S'0.2'
p12
aS'cl de'
p13
aS'jus de pamplemousses'
p14
aa(lp15
S'0.4'
p16
aS'cl de'
p17
aS"jus d'ananas"
p18
aa(lp19
S'0.1'
p20
aS'cl de'
p21
aS'cura\xc3\xa7ao bleu'
p22
aa(lp23
S'0.1'
p24
aS'cl de'
p25
aS'sirop de fraises'
p26
aa(lp27
S'0.1'
p28
aS'cl de'
p29
aS'sirop de sucre de canne'
p30
aaa.