(lp0
S'Planteur guadeloup\xc3\xa9en'
p1
aF3.4
aI43
a(lp2
(lp3
S'2.5'
p4
aS'cl de'
p5
aS'sirop de sucre de canne'
p6
aa(lp7
S'5.0'
p8
aS'cl de'
p9
aS'rhum blanc'
p10
aa(lp11
S'5.0'
p12
aS'cl de'
p13
aS'jus de goyaves'
p14
aaa.