(lp0
S'Amaretto Strong'
p1
aF3.1
aI34
a(lp2
(lp3
S'3.0'
p4
aS"cl d'"
p5
aS'amaretto'
p6
aa(lp7
S'3.0'
p8
aS'cl de'
p9
aS'cognac'
p10
aa(lp11
S'4.0'
p12
aS'cl de'
p13
aS'cr\xc3\xa8me fra\xc3\xaeche liquide'
p14
aaa.