(lp0
S'Cherry Lovely'
p1
aF4.0
aI1
a(lp2
(lp3
S'3.0'
p4
aS'cl de'
p5
aS'jus de fruit de la passion (maracuja)'
p6
aa(lp7
S'2.0'
p8
aS'cl de'
p9
aS'sirop de vanille'
p10
aa(lp11
S'2.0'
p12
aS'traits de'
p13
aS'bitter cherry'
p14
aa(lp15
S'6.0'
p16
aS'cl de'
p17
aS'jus de poires'
p18
aa(lp19
S'5.0'
p20
aS'cl de'
p21
aS'vodka'
p22
aaa.