(lp0
S'Perfect Manhattan'
p1
aF2.9
aI18
a(lp2
(lp3
S'6.0'
p4
aS'cl de'
p5
aS'whisky (bourbon, whiskey)'
p6
aa(lp7
S'2.0'
p8
aS'cl de'
p9
aS'vermouth rouge (martini, cinzano)'
p10
aa(lp11
S'2.0'
p12
aS'cl de'
p13
aS'vermouth dry (martini, noilly prat)'
p14
aa(lp15
S'None'
p16
aS'quelques gouttes'
p17
aS'angostura bitters'
p18
aaa.