(lp0
S'Golden Rico'
p1
aF2.5
aI2
a(lp2
(lp3
S'1.0'
p4
aS'cl de'
p5
aS'sirop de vanille'
p6
aa(lp7
S'2.0'
p8
aS'cl de'
p9
aS'vodka'
p10
aa(lp11
S'1.5'
p12
aS'cl de'
p13
aS'liqueur de cacao brun'
p14
aa(lp15
S'4.0'
p16
aS'cl de'
p17
aS"jus d'oranges"
p18
aa(lp19
S'2.0'
p20
aS'cl de'
p21
aS'cr\xc3\xa8me fra\xc3\xaeche liquide'
p22
aaa.