(lp0
S'Empire celeste'
p1
aF3.8
aI8
a(lp2
(lp3
S'2.0'
p4
aS'cl de'
p5
aS"jus d'arbrouse"
p6
aa(lp7
S'2.0'
p8
aS'cl de'
p9
aS'jus de lychees (litchis)'
p10
aa(lp11
S'4.0'
p12
aS"cl d'"
p13
aS'sak\xc3\xa9 (alcool de riz)'
p14
aa(lp15
S'3.0'
p16
aS'None'
p17
aS'lychees (litchis)'
p18
aaa.