(lp0
S'Fruit des \xc3\xaeles'
p1
aF3.5
aI467
a(lp2
(lp3
S'2.0'
p4
aS'cl de'
p5
aS'jus de lychees (litchis)'
p6
aa(lp7
S'3.0'
p8
aS'cl de'
p9
aS'jus de kiwi'
p10
aa(lp11
S'6.0'
p12
aS'cl de'
p13
aS'jus de fruit de la passion (maracuja)'
p14
aa(lp15
S'4.0'
p16
aS'cl de'
p17
aS'jus de goyaves'
p18
aaa.