(lp0
S'Coconut kiss'
p1
aF2.8
aI16
a(lp2
(lp3
S'3.0'
p4
aS'cl de'
p5
aS"jus d'ananas"
p6
aa(lp7
S'4.0'
p8
aS'cl de'
p9
aS"jus d'oranges"
p10
aa(lp11
S'2.0'
p12
aS'cl de'
p13
aS'sirop de noix de coco'
p14
aa(lp15
S'3.0'
p16
aS'cl de'
p17
aS'cr\xc3\xa8me fra\xc3\xaeche liquide'
p18
aaa.