(lp0
S'Raspberry Lemon Sorbet'
p1
aF3.0
aI4
a(lp2
(lp3
S'2.0'
p4
aS'cl de'
p5
aS'liqueur de citrons (limoncello)'
p6
aa(lp7
S'5.0'
p8
aS'cl de'
p9
aS'vodka'
p10
aa(lp11
S'1.0'
p12
aS'cl de'
p13
aS'cr\xc3\xa8me de myrtilles'
p14
aa(lp15
S'2.0'
p16
aS'cl de'
p17
aS'sirop de framboises'
p18
aa(lp19
S'1.0'
p20
aS'boule de'
p21
aS'sorbet citron'
p22
aaa.