(lp0
S'Ginger beer it'
p1
aF3.7
aI15
a(lp2
(lp3
S'12.5'
p4
aS'grammes de'
p5
aS'gingembre'
p6
aa(lp7
S'0.2'
p8
aS'None'
p9
aS'clous de girofle'
p10
aa(lp11
S'20.0'
p12
aS'grammes de'
p13
aS'sucre'
p14
aa(lp15
S'None'
p16
aS'zeste et jus de deux'
p17
aS'citrons'
p18
aaa.