(lp0
S'Punch Laury'
p1
aF3.7
aI6
a(lp2
(lp3
S'20.0'
p4
aS'cl de'
p5
aS'rhum blanc'
p6
aa(lp7
S'2.0'
p8
aS'cl de'
p9
aS"jus d'oranges"
p10
aa(lp11
S'5.0'
p12
aS'cl de'
p13
aS"jus d'ananas"
p14
aa(lp15
S'5.0'
p16
aS'cl de'
p17
aS'jus de fruit de la passion (maracuja)'
p18
aa(lp19
S'0.5'
p20
aS'cl de'
p21
aS'sirop de sucre de canne'
p22
aa(lp23
S'0.2'
p24
aS'cl de'
p25
aS'cannelle s\xc3\x83\xc2\xa9ch\xc3\x83\xc2\xa9e'
p26
aa(lp27
S'0.2'
p28
aS'cl de'
p29
aS'gousses de vanille'
p30
aaa.