(lp0
S'Champagne fraise'
p1
aF3.0
aI122
a(lp2
(lp3
S'None'
p4
aS'None'
p5
aS'champagne'
p6
aa(lp7
S'0.5'
p8
aS'cl de'
p9
aS'sirop de sucre de canne'
p10
aa(lp11
S'0.5'
p12
aS'cl de'
p13
aS'jus de citrons'
p14
aa(lp15
S'0.5'
p16
aS'cl de'
p17
aS'cognac'
p18
aa(lp19
S'1.0'
p20
aS'cl de'
p21
aS'liqueur de fraises'
p22
aaa.