(lp0
S'M'
p1
aF4.0
aI4
a(lp2
(lp3
S'0.333333333333'
p4
aS'de'
p5
aS'sirop de fraise'
p6
aa(lp7
S'0.333333333333'
p8
aS'de'
p9
aS'rhum blanc'
p10
aa(lp11
S'0.333333333333'
p12
aS'de'
p13
aS'cura\xc3\xa7ao bleu'
p14
aaa.