(lp0
S'Thimothe'
p1
aF3.3
aI8
a(lp2
(lp3
S'90.0'
p4
aS'grammes de'
p5
aS'salade de feuilles de ch\xc3\xaane'
p6
aa(lp7
S'10.0'
p8
aS'grammes de'
p9
aS'basilic'
p10
aa(lp11
S'70.0'
p12
aS"grammes de pur\xc3\xa9e d'"
p13
aS'abricots'
p14
aa(lp15
S'100.0'
p16
aS'grammes de'
p17
aS'mandarines'
p18
aa(lp19
S'2.0'
p20
aS'grammes de'
p21
aS'sucre'
p22
aaa.