(lp0
S'Caipirinha'
p1
aF4.0
aI1173
a(lp2
(lp3
S'6.0'
p4
aS'cl de'
p5
aS'cacha\xc3\xa7a'
p6
aa(lp7
S'1.0'
p8
aS'None'
p9
aS'citrons vert'
p10
aa(lp11
S'1.0'
p12
aS'cuill\xc3\xa8re \xc3\xa0 soupe de'
p13
aS'sucre'
p14
aaa.