(lp0
S'Chocolate Ebony'
p1
aF3.0
aI7
a(lp2
(lp3
S'2.0'
p4
aS'cl de'
p5
aS'vodka'
p6
aa(lp7
S'2.0'
p8
aS'cl de'
p9
aS'rhum blanc'
p10
aa(lp11
S'1.0'
p12
aS'cl de'
p13
aS'cr\xc3\xa8me fra\xc3\xaeche liquide'
p14
aa(lp15
S'3.0'
p16
aS'cuill\xc3\xa8re de'
p17
aS'chocolat en poudre'
p18
aa(lp19
S'1.0'
p20
aS'pinc\xc3\xa9es de'
p21
aS'poivre'
p22
aaa.