(lp0
S'Agave sec margarita'
p1
aF3.9
aI42
a(lp2
(lp3
S'4.0'
p4
aS'cl de'
p5
aS'tequila'
p6
aa(lp7
S'2.0'
p8
aS"cl d'"
p9
aS'agave sec'
p10
aa(lp11
S'2.0'
p12
aS'cl de'
p13
aS'jus de citrons verts'
p14
aaa.