(lp0
S'Banana Morning'
p1
aF3.8
aI12
a(lp2
(lp3
S'2.0'
p4
aS'cuill\xc3\xa8re de'
p5
aS'chocolat en poudre'
p6
aa(lp7
S'6.0'
p8
aS'cl de'
p9
aS'vodka'
p10
aa(lp11
S'2.0'
p12
aS'cl de'
p13
aS'liqueur de caf\xc3\xa9 (kahlua, marie brizard)'
p14
aa(lp15
S'4.0'
p16
aS'cl de'
p17
aS'jus de bananes'
p18
aa(lp19
S'8.0'
p20
aS'cl de'
p21
aS'lait'
p22
aaa.