(lp0
S'Gin daisy'
p1
aF2.4
aI131
a(lp2
(lp3
S'1.0'
p4
aS'cl de'
p5
aS'sirop de sucre de canne'
p6
aa(lp7
S'0.5'
p8
aS'None'
p9
aS'citron'
p10
aa(lp11
S'3.0'
p12
aS'cl de'
p13
aS'gin'
p14
aa(lp15
S'1.0'
p16
aS'cl de'
p17
aS'triple sec (cointreau, grand marnier)'
p18
aaa.