(lp0
S'Scaldino'
p1
aF4.1
aI19
a(lp2
(lp3
S'40.0'
p4
aS'grammes de'
p5
aS'feuilles de tilleul'
p6
aa(lp7
S'20.0'
p8
aS'grammes de'
p9
aS"feuilles d'oranger"
p10
aa(lp11
S'None'
p12
aS"jus d'un demi"
p13
aS'citrons'
p14
aaa.