(lp0
S'Grolle'
p1
aF2.8
aI32
a(lp2
(lp3
S'10.0'
p4
aS'cl de'
p5
aS'caf\xc3\xa9'
p6
aa(lp7
S'0.166666666667'
p8
aS'None'
p9
aS'orange'
p10
aa(lp11
S'0.166666666667'
p12
aS'None'
p13
aS'citron'
p14
aa(lp15
S'5.0'
p16
aS'cl de'
p17
aS'cognac'
p18
aa(lp19
S'8.33333333333'
p20
aS'grammes de'
p21
aS'sucre'
p22
aa(lp23
S'1.66666666667'
p24
aS'cl de'
p25
aS'g\xc3\xa9n\xc3\xa9pi'
p26
aa(lp27
S'None'
p28
aS'None'
p29
aS'cannelle'
p30
aa(lp31
S'0.333333333333'
p32
aS'None'
p33
aS'clous de girofle'
p34
aaa.