(lp0
S'Pink coco lopez'
p1
aF4.2
aI13
a(lp2
(lp3
S'2.0'
p4
aS'cl de'
p5
aS'sirop de cassis'
p6
aa(lp7
S'5.0'
p8
aS'cl de'
p9
aS"jus d'oranges"
p10
aa(lp11
S'5.0'
p12
aS'cl de'
p13
aS'lait de coco'
p14
aaa.