(lp0
S'Gran Sangria'
p1
aF2.7
aI7
a(lp2
(lp3
S'2.5'
p4
aS'cl de'
p5
aS'cognac'
p6
aa(lp7
S'2.5'
p8
aS'cl de'
p9
aS'triple sec (cointreau, grand marnier)'
p10
aa(lp11
S'5.0'
p12
aS'cl de'
p13
aS'vin rouge'
p14
aa(lp15
S'2.0'
p16
aS"traits d'"
p17
aS'angostura orange bitters'
p18
aa(lp19
S'5.0'
p20
aS'cl de'
p21
aS"jus d'oranges"
p22
aaa.