(lp0
S'Purple Nasty'
p1
aF2.6
aI5
a(lp2
(lp3
S'4.0'
p4
aS'cl de'
p5
aS'bi\xc3\xa8re'
p6
aa(lp7
S'8.0'
p8
aS'cl de'
p9
aS'cidre'
p10
aa(lp11
S'2.0'
p12
aS'cl de'
p13
aS'cr\xc3\xa8me de cassis'
p14
aaa.