(lp0
S'Lucide'
p1
aF3.2
aI5
a(lp2
(lp3
S'2.0'
p4
aS'cl de'
p5
aS'liqueur de menthe blanche (get 31)'
p6
aa(lp7
S'3.0'
p8
aS'cl de'
p9
aS'vodka'
p10
aa(lp11
S'4.0'
p12
aS'cl de'
p13
aS'liqueur de cacao blanc'
p14
aaa.