(lp0
S'Le Printemps'
p1
aF3.1
aI10
a(lp2
(lp3
S'3.0'
p4
aS'cl de'
p5
aS'triple sec (cointreau, grand marnier)'
p6
aa(lp7
S'5.0'
p8
aS'cl de'
p9
aS"jus d'ananas"
p10
aa(lp11
S'2.0'
p12
aS'cl de'
p13
aS'jus de citrons verts'
p14
aa(lp15
S'1.0'
p16
aS'cl de'
p17
aS'cura\xc3\xa7ao bleu'
p18
aa(lp19
S'0.5'
p20
aS'cuill\xc3\xa8re de'
p21
aS'gla\xc3\xa7ons'
p22
aaa.