(lp0
S'Liberty'
p1
aF3.3
aI4
a(lp2
(lp3
S'3.0'
p4
aS'cl de'
p5
aS'vodka'
p6
aa(lp7
S'2.0'
p8
aS'cl de'
p9
aS'jus de cranberry blanc (canneberges)'
p10
aa(lp11
S'2.0'
p12
aS'cl de'
p13
aS'jus de citrons verts'
p14
aa(lp15
S'1.0'
p16
aS'cl de'
p17
aS'cr\xc3\xa8me de m\xc3\xbbre'
p18
aa(lp19
S'2.0'
p20
aS'cl de'
p21
aS'tonic (schweppes)'
p22
aaa.