(lp0
S'Bird of Paradise'
p1
aF3.0
aI1
a(lp2
(lp3
S'6.0'
p4
aS'cl de'
p5
aS'gin'
p6
aa(lp7
S'1.0'
p8
aS'cl de'
p9
aS'sirop de grenadine'
p10
aa(lp11
S'1.0'
p12
aS'cl de'
p13
aS'sucre'
p14
aa(lp15
S'2.0'
p16
aS'cl de'
p17
aS'citrons'
p18
aa(lp19
S'1.0'
p20
aS"blanc d'"
p21
aS'oeufs'
p22
aa(lp23
S'None'
p24
aS'None'
p25
aS'tonic (schweppes)'
p26
aaa.