(lp0
S'Sangria fran\xc3\xa7aise'
p1
aF3.3
aI549
a(lp2
(lp3
S'0.125'
p4
aS'de'
p5
aS'cognac'
p6
aa(lp7
S'0.125'
p8
aS'de'
p9
aS'porto rouge'
p10
aa(lp11
S'0.125'
p12
aS'de'
p13
aS'triple sec (cointreau, grand marnier)'
p14
aa(lp15
S'0.625'
p16
aS'de'
p17
aS'vin'
p18
aa(lp19
S'None'
p20
aS'None'
p21
aS'cannelle'
p22
aa(lp23
S'None'
p24
aS'None'
p25
aS'gingembre'
p26
aa(lp27
S'None'
p28
aS'None'
p29
aS'sucre'
p30
aa(lp31
S'None'
p32
aS'None'
p33
aS'fruits de saison'
p34
aaa.