(lp0
S'Energie'
p1
aF3.8
aI11
a(lp2
(lp3
S'1.0'
p4
aS'cuill\xc3\xa8res \xc3\xa0 soupe'
p5
aS'feuilles de thym'
p6
aa(lp7
S'1.0'
p8
aS'cuill\xc3\xa8res \xc3\xa0 soupe'
p9
aS'feuilles de romarin'
p10
aa(lp11
S'1.0'
p12
aS'cuill\xc3\xa8re \xc3\xa0 soupe de'
p13
aS'feuilles de sauge'
p14
aaa.