(lp0
S'Cider cup'
p1
aF3.4
aI8
a(lp2
(lp3
S'None'
p4
aS'None'
p5
aS'feuilles de menthe'
p6
aa(lp7
S'None'
p8
aS'rondelles de'
p9
aS'pommes'
p10
aa(lp11
S'4.0'
p12
aS'cuill\xc3\xa8re \xc3\xa0 caf\xc3\xa9 de'
p13
aS'sucre'
p14
aa(lp15
S'24.0'
p16
aS'cl de'
p17
aS'eau gazeuse (perrier, salvetat)'
p18
aa(lp19
S'6.0'
p20
aS'cl de'
p21
aS'triple sec (cointreau, grand marnier)'
p22
aa(lp23
S'12.0'
p24
aS'cl de'
p25
aS'brandy'
p26
aa(lp27
S'48.0'
p28
aS'cl de'
p29
aS'cidre'
p30
aaa.