(lp0
S"Vin d'anis"
p1
aF3.6
aI7
a(lp2
(lp3
S'0.05'
p4
aS'litres de'
p5
aS'vin blanc'
p6
aa(lp7
S'1.5'
p8
aS"grammes de graines d'"
p9
aS'anis'
p10
aa(lp11
S'6.25'
p12
aS'grammes de'
p13
aS'sucre'
p14
aaa.