(lp0
S'Vin Chaud sans alcool'
p1
aF3.3
aI6
a(lp2
(lp3
S'8.0'
p4
aS'cl de'
p5
aS'jus de raisins'
p6
aa(lp7
S'1.0'
p8
aS'cl de'
p9
aS'sirop de cardamome'
p10
aa(lp11
S'1.0'
p12
aS'cl de'
p13
aS'sirop de cannelle'
p14
aa(lp15
S'2.0'
p16
aS'cl de'
p17
aS'jus de citrons'
p18
aa(lp19
S'1.0'
p20
aS"cl d'"
p21
aS'angostura bitters'
p22
aaa.