(lp0
S'Russian Island'
p1
aF4.3
aI11
a(lp2
(lp3
S'6.0'
p4
aS'cl de'
p5
aS'vodka'
p6
aa(lp7
S'3.0'
p8
aS'cl de'
p9
aS'triple sec (cointreau, grand marnier)'
p10
aa(lp11
S'3.0'
p12
aS'cl de'
p13
aS"jus d'ananas"
p14
aa(lp15
S'3.0'
p16
aS'cl de'
p17
aS'jus de cranberry (canneberges)'
p18
aa(lp19
S'3.0'
p20
aS'cl de'
p21
aS"jus d'oranges"
p22
aa(lp23
S'1.0'
p24
aS'cl de'
p25
aS'lait de coco'
p26
aa(lp27
S'1.0'
p28
aS'cl de'
p29
aS'jus de citrons'
p30
aa(lp31
S'1.0'
p32
aS'trait de'
p33
aS'sirop de grenadine'
p34
aaa.