(lp0
S'Le K'
p1
aF3.8
aI8
a(lp2
(lp3
S'4.0'
p4
aS'cl de'
p5
aS'rhum ambr\xc3\xa9'
p6
aa(lp7
S'6.0'
p8
aS'cl de'
p9
aS'jus de framboises'
p10
aa(lp11
S'1.0'
p12
aS'cl de'
p13
aS'sirop de cannelle'
p14
aa(lp15
S'1.0'
p16
aS'cl de'
p17
aS'sirop de vanille'
p18
aa(lp19
S'5.0'
p20
aS'grammes de'
p21
aS'citrons verts'
p22
aaa.