(lp0
S'Runny Monkey'
p1
aF4.0
aI2
a(lp2
(lp3
S'5.0'
p4
aS'cl de'
p5
aS'whisky ambr\xc3\xa9'
p6
aa(lp7
S'2.0'
p8
aS'cl de'
p9
aS'sirop de miel'
p10
aa(lp11
S'2.0'
p12
aS'cl de'
p13
aS'cr\xc3\xa8me de m\xc3\xbbre'
p14
aa(lp15
S'2.0'
p16
aS'trait de'
p17
aS'angostura bitters'
p18
aaa.