(lp0
S'Jagertee'
p1
aF2.6
aI5
a(lp2
(lp3
S'5.0'
p4
aS'cl de'
p5
aS'th\xc3\xa9 noir'
p6
aa(lp7
S'5.0'
p8
aS'cl de'
p9
aS'vin'
p10
aa(lp11
S'0.8'
p12
aS'cl de'
p13
aS'rhum ambr\xc3\xa9'
p14
aa(lp15
S'0.8'
p16
aS'cl de'
p17
aS'schnaps'
p18
aa(lp19
S'0.1'
p20
aS'b\xc3\xa2ton de'
p21
aS'cannelle'
p22
aa(lp23
S'0.4'
p24
aS'None'
p25
aS'clous de girofle'
p26
aa(lp27
S'None'
p28
aS'None'
p29
aS'sucre'
p30
aaa.