(lp0
S'Coco Oco'
p1
aF4.3
aI15
a(lp2
(lp3
S'2.0'
p4
aS'cl de'
p5
aS'sirop de noix de coco'
p6
aa(lp7
S'1.0'
p8
aS'cl de'
p9
aS'jus de citrons'
p10
aa(lp11
S'0.5'
p12
aS'cl de'
p13
aS'sirop de maraschino'
p14
aa(lp15
S'10.0'
p16
aS'cl de'
p17
aS'lait'
p18
aa(lp19
S'4.0'
p20
aS'traits de'
p21
aS'angostura bitters'
p22
aaa.