(lp0
S'Brandy Dub Style'
p1
aF5.0
aI1
a(lp2
(lp3
S'0.5'
p4
aS'cl de'
p5
aS'angostura bitters'
p6
aa(lp7
S'4.0'
p8
aS'cl de'
p9
aS'cognac'
p10
aa(lp11
S'2.0'
p12
aS'cl de'
p13
aS'triple sec (cointreau, grand marnier)'
p14
aaa.