(lp0
S'Gla\xc3\xa7ons de vodka'
p1
aF3.7
aI39
a(lp2
(lp3
S'0.666666666667'
p4
aS'cl de'
p5
aS'vodka'
p6
aa(lp7
S'0.666666666667'
p8
aS"cl d'"
p9
aS'eau'
p10
aa(lp11
S'1.33333333333'
p12
aS'grammes de'
p13
aS'sucre'
p14
aa(lp15
S'0.133333333333'
p16
aS'grammes de'
p17
aS'g\xc3\xa9latine en poudre'
p18
aa(lp19
S'0.333333333333'
p20
aS'cl de'
p21
aS'sirop de cerise'
p22
aaa.