(lp0
S'Ricard Melon'
p1
aF3.7
aI3
a(lp2
(lp3
S'100.0'
p4
aS'grammes de morceaux de'
p5
aS'melons'
p6
aa(lp7
S'0.5'
p8
aS"bottes d'"
p9
aS'estragon'
p10
aa(lp11
S'3.75'
p12
aS'cl de'
p13
aS'spiritueux anis\xc3\xa9 (pastis, ricard, pernod)'
p14
aa(lp15
S'37.5'
p16
aS'grammes de'
p17
aS'sucre'
p18
aa(lp19
S'0.25'
p20
aS'barquette de'
p21
aS'groseilles'
p22
aaa.