(lp0
S'Ratafia de noix'
p1
aF1.0
aI2
a(lp2
(lp3
S'0.0714285714286'
p4
aS'de'
p5
aS'racine de gentiane'
p6
aa(lp7
S'0.0714285714286'
p8
aS'de'
p9
aS"jus d'orange"
p10
aa(lp11
S'0.142857142857'
p12
aS"d'"
p13
aS'eau-de-vie'
p14
aa(lp15
S'0.285714285714'
p16
aS'de'
p17
aS'sirop de sucre de canne'
p18
aa(lp19
S'0.428571428571'
p20
aS'de'
p21
aS'vin'
p22
aa(lp23
S'200.0'
p24
aS'grammes de'
p25
aS'noix'
p26
aa(lp27
S'None'
p28
aS'None'
p29
aS'sucre'
p30
aa(lp31
S'None'
p32
aS'None'
p33
aS'\xc3\xa9pices'
p34
aaa.