(lp0
S'Leg up'
p1
aF3.3
aI7
a(lp2
(lp3
S'3.0'
p4
aS'cl de'
p5
aS'gin'
p6
aa(lp7
S'2.0'
p8
aS'cl de'
p9
aS'lime cordial'
p10
aa(lp11
S'3.0'
p12
aS'cl de'
p13
aS'pur\xc3\xa9e de p\xc3\xaache'
p14
aa(lp15
S'1.0'
p16
aS'cl de'
p17
aS'liqueur de romarin'
p18
aaa.