(lp0
S'Applesky'
p1
aF3.5
aI24
a(lp2
(lp3
S'4.0'
p4
aS'cl de'
p5
aS'whisky (bourbon, whiskey)'
p6
aa(lp7
S'1.0'
p8
aS'cube de'
p9
aS'sucre roux (cassonade)'
p10
aa(lp11
S'1.0'
p12
aS'quart de'
p13
aS'citrons verts'
p14
aa(lp15
S'8.0'
p16
aS'cl de'
p17
aS'jus de pommes'
p18
aaa.