(lp0
S'Voyageur las'
p1
aF3.6
aI13
a(lp2
(lp3
S'1.0'
p4
aS'lichette de'
p5
aS"sirop d'\xc3\xa9rable"
p6
aa(lp7
S'1.0'
p8
aS'cuiller\xc3\xa9e de'
p9
aS'tabasco'
p10
aa(lp11
S'3.0'
p12
aS'cl de'
p13
aS'jus de tomates'
p14
aa(lp15
S'6.0'
p16
aS'cl de'
p17
aS'bi\xc3\xa8re'
p18
aa(lp19
S'6.0'
p20
aS'cl de'
p21
aS'vin'
p22
aaa.