(lp0
S'Whisky coca framboises'
p1
aF3.4
aI7
a(lp2
(lp3
S'4.0'
p4
aS'cl de'
p5
aS'whisky (bourbon, whiskey)'
p6
aa(lp7
S'2.0'
p8
aS'cl de'
p9
aS'sirop de framboises'
p10
aa(lp11
S'8.0'
p12
aS'cl de'
p13
aS'limonade (soda, sprite, 7up)'
p14
aaa.