(lp0
S'Ambassade'
p1
aF3.0
aI26
a(lp2
(lp3
S'1.5'
p4
aS'cl de'
p5
aS'triple sec (cointreau, grand marnier)'
p6
aa(lp7
S'1.5'
p8
aS'cl de'
p9
aS'gin'
p10
aa(lp11
S'4.0'
p12
aS'cl de'
p13
aS'pineau des charentes'
p14
aaa.