(lp0
S'Chocolat chaud vanill\xc3\xa9'
p1
aF3.5
aI11
a(lp2
(lp3
S'12.5'
p4
aS'cl de'
p5
aS'lait'
p6
aa(lp7
S'47.5'
p8
aS'grammes de'
p9
aS'chocolat'
p10
aa(lp11
S'0.25'
p12
aS'gousse de'
p13
aS'vanille'
p14
aaa.