(lp0
S'C\xc3\xa9sar'
p1
aF3.0
aI21
a(lp2
(lp3
S'0.5'
p4
aS'cl de'
p5
aS'tabasco'
p6
aa(lp7
S'1.0'
p8
aS'cl de'
p9
aS'sauce worcestershire'
p10
aa(lp11
S'3.0'
p12
aS'cl de'
p13
aS'jus de citrons'
p14
aa(lp15
S'1.0'
p16
aS'pinc\xc3\xa9e de'
p17
aS'poivre'
p18
aa(lp19
S'10.0'
p20
aS'cl de'
p21
aS'jus de tomates'
p22
aa(lp23
S'2.0'
p24
aS'cl de'
p25
aS'vodka'
p26
aaa.