(lp0
S'Oogy Wawa'
p1
aF3.3
aI22
a(lp2
(lp3
S'None'
p4
aS'None'
p5
aS'rhum blanc'
p6
aa(lp7
S'1.0'
p8
aS'cuill\xc3\xa8re de'
p9
aS'caf\xc3\xa9'
p10
aa(lp11
S'1.0'
p12
aS'cuill\xc3\xa8re de'
p13
aS'cr\xc3\xa8me fra\xc3\xaeche liquide'
p14
aaa.