(lp0
S'Roulette Russe'
p1
aF3.6
aI50
a(lp2
(lp3
S'0.333333333333'
p4
aS'de shooter'
p5
aS'vodka'
p6
aa(lp7
S'0.333333333333'
p8
aS'de shooter'
p9
aS'galliano'
p10
aa(lp11
S'6.0'
p12
aS'cl de'
p13
aS'sambuca'
p14
aa(lp15
S'1.0'
p16
aS'quartier de'
p17
aS'citrons'
p18
aa(lp19
S'None'
p20
aS'None'
p21
aS'sucre'
p22
aaa.