(lp0
S'Elixir de Ronce'
p1
aF4.0
aI1
a(lp2
(lp3
S'5.0'
p4
aS'None'
p5
aS'm\xc3\xbbres'
p6
aa(lp7
S'2.0'
p8
aS'cl de'
p9
aS'lime cordial'
p10
aa(lp11
S'2.0'
p12
aS'cl de'
p13
aS'cr\xc3\xa8me de m\xc3\xbbre'
p14
aa(lp15
S'None'
p16
aS'None'
p17
aS'tequila'
p18
aaa.