(lp0
S'Koko flower'
p1
aF4.3
aI4
a(lp2
(lp3
S'12.0'
p4
aS'cl de'
p5
aS'cola (coca cola, pepsi)'
p6
aa(lp7
S'4.0'
p8
aS'cl de'
p9
aS'liqueur de coco (cocogif, malibu)'
p10
aa(lp11
S'1.0'
p12
aS'cl de'
p13
aS'jus de citrons'
p14
aaa.