(lp0
S'Feu rouge'
p1
aF4.0
aI2
a(lp2
(lp3
S'0.5'
p4
aS'jus'
p5
aS'citrons'
p6
aa(lp7
S'2.0'
p8
aS'cl de'
p9
aS'triple sec (cointreau, grand marnier)'
p10
aa(lp11
S'2.0'
p12
aS'cl de'
p13
aS'liqueur de cerises (cherry brandy)'
p14
aa(lp15
S'2.0'
p16
aS'cl de'
p17
aS'armagnac'
p18
aaa.