(lp0
S'Coco Caraibe'
p1
aF3.0
aI7
a(lp2
(lp3
S'3.0'
p4
aS'cl de'
p5
aS'rhum ambr\xc3\xa9'
p6
aa(lp7
S'8.0'
p8
aS'cl de'
p9
aS"jus d'abricots"
p10
aa(lp11
S'2.0'
p12
aS'cl de'
p13
aS'sirop de noix de coco'
p14
aaa.