(lp0
S'Sweety'
p1
aF2.0
aI2
a(lp2
(lp3
S'0.5'
p4
aS'cl de'
p5
aS'sirop de grenadine'
p6
aa(lp7
S'0.5'
p8
aS'cl de'
p9
aS'cr\xc3\xa8me fra\xc3\xaeche liquide'
p10
aa(lp11
S'3.5'
p12
aS'cl de'
p13
aS'cognac'
p14
aa(lp15
S'1.0'
p16
aS'cl de'
p17
aS'fraises'
p18
aa(lp19
S'1.5'
p20
aS'cl de'
p21
aS'lait de coco'
p22
aaa.