(lp0
S'Metropolitan'
p1
aF3.1
aI169
a(lp2
(lp3
S'5.0'
p4
aS'cl de'
p5
aS'vodka'
p6
aa(lp7
S'2.0'
p8
aS'cl de'
p9
aS'jus de citrons verts'
p10
aa(lp11
S'2.0'
p12
aS'cl de'
p13
aS'jus de cranberry (canneberges)'
p14
aa(lp15
S'0.5'
p16
aS'cl de'
p17
aS'cr\xc3\xa8me de cassis'
p18
aaa.