(lp0
S'Condeep'
p1
aF3.0
aI2
a(lp2
(lp3
S'1.0'
p4
aS"blanc d'"
p5
aS'oeufs'
p6
aa(lp7
S'0.5'
p8
aS'cl de'
p9
aS'jus de citrons'
p10
aa(lp11
S'3.5'
p12
aS'cl de'
p13
aS'vodka'
p14
aa(lp15
S'2.0'
p16
aS'cl de'
p17
aS'cognac'
p18
aa(lp19
S'2.0'
p20
aS'cl de'
p21
aS'triple sec (cointreau, grand marnier)'
p22
aa(lp23
S'1.5'
p24
aS'cl de'
p25
aS'cura\xc3\xa7ao bleu'
p26
aaa.