(lp0
S'Lena'
p1
aF4.0
aI4
a(lp2
(lp3
S'0.5'
p4
aS'volumes de'
p5
aS'whisky (bourbon, whiskey)'
p6
aa(lp7
S'0.2'
p8
aS'volumes de'
p9
aS'vermouth rouge (martini, cinzano)'
p10
aa(lp11
S'0.1'
p12
aS'volumes de'
p13
aS'vermouth blanc (martini, cinzano)'
p14
aa(lp15
S'0.1'
p16
aS'volumes de'
p17
aS'angostura bitters'
p18
aa(lp19
S'0.1'
p20
aS'volumes de'
p21
aS'liqueur galliano'
p22
aa(lp23
S'1.0'
p24
aS'None'
p25
aS'cerises confite'
p26
aaa.