(lp0
S'Planteur martiniquais'
p1
aF3.1
aI520
a(lp2
(lp3
S'0.1'
p4
aS'litres de'
p5
aS'jus de goyaves'
p6
aa(lp7
S'0.1'
p8
aS'litres de'
p9
aS'fruit de la passion (maracuja)'
p10
aa(lp11
S'0.06'
p12
aS'litres de'
p13
aS"jus d'oranges"
p14
aa(lp15
S'0.06'
p16
aS'litres de'
p17
aS'cocktails de fruits'
p18
aa(lp19
S'0.06'
p20
aS'litres de'
p21
aS"jus d'ananas"
p22
aa(lp23
S'2.0'
p24
aS'cl de'
p25
aS'sirop de sucre de canne'
p26
aa(lp27
S'0.08'
p28
aS'litres de'
p29
aS'rhum blanc'
p30
aa(lp31
S'None'
p32
aS'essence de'
p33
aS"vanille, d'amande am\xc3\xa8re et de la muscade"
p34
aaa.