(lp0
S'Vino Tea pot'
p1
aF3.9
aI11
a(lp2
(lp3
S'9.0'
p4
aS"cl d'"
p5
aS'infusion de th\xc3\xa9'
p6
aa(lp7
S'None'
p8
aS'None'
p9
aS'sucre'
p10
aa(lp11
S'2.0'
p12
aS'cl de'
p13
aS'vin blanc'
p14
aa(lp15
S'1.5'
p16
aS'cl de'
p17
aS'cognac'
p18
aaa.