(lp0
S'Gemada'
p1
aF2.9
aI7
a(lp2
(lp3
S'None'
p4
aS'None'
p5
aS'bi\xc3\xa8re'
p6
aa(lp7
S'1.0'
p8
aS'cuill\xc3\xa8re \xc3\xa0 soupe de'
p9
aS'sucre'
p10
aa(lp11
S'1.0'
p12
aS"jaune d'"
p13
aS'oeufs'
p14
aa(lp15
S'1.0'
p16
aS'cuill\xc3\xa8re \xc3\xa0 soupe de'
p17
aS'sirop de groseilles'
p18
aaa.