(lp0
S'Aqualight'
p1
aF3.6
aI9
a(lp2
(lp3
S'4.0'
p4
aS'cl de'
p5
aS'triple sec (cointreau, grand marnier)'
p6
aa(lp7
S'5.0'
p8
aS'cl de'
p9
aS'limonade (soda, sprite, 7up)'
p10
aa(lp11
S'1.0'
p12
aS'trait'
p13
aS'angostura bitters'
p14
aa(lp15
S'3.0'
p16
aS'cl de'
p17
aS'rhum blanc'
p18
aaa.