(lp0
S"Scarlet O'Hara"
p1
aF3.9
aI7
a(lp2
(lp3
S'3.0'
p4
aS'cl de'
p5
aS'southern comfort'
p6
aa(lp7
S'2.0'
p8
aS'cl de'
p9
aS'jus de citrons'
p10
aa(lp11
S'5.0'
p12
aS'cl de'
p13
aS'jus de cranberry (canneberges)'
p14
aaa.