(lp0
S'Aromatic bitter'
p1
aF4.4
aI7
a(lp2
(lp3
S'0.05'
p4
aS'None'
p5
aS'citron'
p6
aa(lp7
S'3.75'
p8
aS'cl de'
p9
aS'vodka'
p10
aa(lp11
S'2.0'
p12
aS"gouttes d'"
p13
aS'extrait de gentiane'
p14
aa(lp15
S'0.05'
p16
aS'cuill\xc3\xa8re \xc3\xa0 caf\xc3\xa9 de grains de'
p17
aS'poivre noir'
p18
aa(lp19
S'0.05'
p20
aS'b\xc3\xa2ton de'
p21
aS'cannelle'
p22
aa(lp23
S'0.05'
p24
aS'morceau de'
p25
aS'gingembre'
p26
aa(lp27
S'0.2'
p28
aS'grains'
p29
aS'quatre-\xc3\xa9pices'
p30
aa(lp31
S'0.2'
p32
aS'None'
p33
aS'clous de girofle'
p34
aaa.