(lp0
S'Inferno mojito'
p1
aF2.9
aI37
a(lp2
(lp3
S'5.0'
p4
aS'cl de'
p5
aS'tequila'
p6
aa(lp7
S'3.0'
p8
aS'cl de'
p9
aS'cr\xc3\xa8me de m\xc3\xbbre'
p10
aa(lp11
S'0.5'
p12
aS'cl de'
p13
aS'citrons verts'
p14
aa(lp15
S'0.5'
p16
aS'cuill\xc3\xa8re de'
p17
aS'cassonade'
p18
aa(lp19
S'15.0'
p20
aS'cl de'
p21
aS'feuilles de menthe'
p22
aa(lp23
S'30.0'
p24
aS'grammes de'
p25
aS'cassis'
p26
aaa.