(lp0
S"Endy's"
p1
aF4.3
aI3
a(lp2
(lp3
S'3.0'
p4
aS'cl de'
p5
aS'vodka'
p6
aa(lp7
S'3.0'
p8
aS'cl de'
p9
aS'chartreuse verte'
p10
aa(lp11
S'10.0'
p12
aS'cl de'
p13
aS'tonic (schweppes)'
p14
aa(lp15
S'1.0'
p16
aS'trait de'
p17
aS'jus de citrons'
p18
aa(lp19
S'1.0'
p20
aS'trait de'
p21
aS'sirop de sucre de canne'
p22
aaa.