(lp0
S'Jalisco'
p1
aF4.0
aI1
a(lp2
(lp3
S'3.0'
p4
aS'cl de'
p5
aS'jus de citrons verts'
p6
aa(lp7
S'1.0'
p8
aS'cl de'
p9
aS'liqueur de coco (cocogif, malibu)'
p10
aa(lp11
S'2.0'
p12
aS'cl de'
p13
aS'tequila'
p14
aa(lp15
S'1.0'
p16
aS'cl de'
p17
aS'liqueur de verveine menthe'
p18
aaa.