(lp0
S'Jack Your Melon'
p1
aF2.5
aI2
a(lp2
(lp3
S'5.0'
p4
aS'cl de'
p5
aS'whisky (bourbon, whiskey)'
p6
aa(lp7
S'2.0'
p8
aS'cl de'
p9
aS'sirop de past\xc3\xa8que (watermelon)'
p10
aa(lp11
S'None'
p12
aS'None'
p13
aS'eau gazeuse (perrier, salvetat)'
p14
aaa.