(lp0
S'Roland garros'
p1
aF3.4
aI19
a(lp2
(lp3
S'3.0'
p4
aS'None'
p5
aS'fraises'
p6
aa(lp7
S'1.0'
p8
aS"tranche d'"
p9
aS"jus d'ananas"
p10
aa(lp11
S'4.0'
p12
aS'None'
p13
aS'framboises'
p14
aa(lp15
S'None'
p16
aS"jus d'un"
p17
aS'citrons'
p18
aa(lp19
S'None'
p20
aS'jus de trois'
p21
aS'oranges'
p22
aa(lp23
S'0.5'
p24
aS'cl de'
p25
aS'sirop de grenadine'
p26
aa(lp27
S'2.0'
p28
aS'cl de'
p29
aS'sucre'
p30
aaa.