(lp0
S'Tartatin'
p1
aF4.2
aI11
a(lp2
(lp3
S'3.0'
p4
aS'cl de'
p5
aS'gold strike (goldschlager)'
p6
aa(lp7
S'18.0'
p8
aS'cl de'
p9
aS'jus de pommes'
p10
aa(lp11
S'0.5'
p12
aS'cl de'
p13
aS'sirop de caramel'
p14
aaa.