(lp0
S'Soleil de minuit'
p1
aF3.7
aI6
a(lp2
(lp3
S'2.0'
p4
aS'cl de'
p5
aS'eau-de-vie de framboises'
p6
aa(lp7
S'2.0'
p8
aS'cl de'
p9
aS'amaretto'
p10
aa(lp11
S'0.5'
p12
aS'cl de'
p13
aS'fraises'
p14
aa(lp15
S'2.0'
p16
aS'cl de'
p17
aS'nectar de p\xc3\xaaches'
p18
aaa.