(lp0
S'Maloa'
p1
aF4.6
aI12
a(lp2
(lp3
S'3.0'
p4
aS'cl de'
p5
aS'liqueur de coco (cocogif, malibu)'
p6
aa(lp7
S'3.0'
p8
aS'cl de'
p9
aS'cr\xc3\xa8me de fruit de la passion'
p10
aa(lp11
S'6.0'
p12
aS'cl de'
p13
aS"jus d'oranges"
p14
aa(lp15
S'1.0'
p16
aS'trait de'
p17
aS'sirop de grenadine'
p18
aaa.