(lp0
S'Red Raid'
p1
aF3.0
aI35
a(lp2
(lp3
S'13.0'
p4
aS'cl de'
p5
aS"jus d'oranges sanguines"
p6
aa(lp7
S'3.0'
p8
aS'cl de'
p9
aS'sirop de fraises'
p10
aa(lp11
S'None'
p12
aS'None'
p13
aS'vin mousseux'
p14
aaa.