(lp0
S'Grzaniec'
p1
aF4.5
aI2
a(lp2
(lp3
S'25.0'
p4
aS'cl de'
p5
aS'bi\xc3\xa8re'
p6
aa(lp7
S'1.0'
p8
aS"jaunes d'"
p9
aS'oeufs'
p10
aa(lp11
S'4.0'
p12
aS'cuill\xc3\xa8re \xc3\xa0 caf\xc3\xa9 de'
p13
aS'cannelle'
p14
aa(lp15
S'2.0'
p16
aS'None'
p17
aS'clous de girofle'
p18
aa(lp19
S'0.5'
p20
aS'cuill\xc3\xa8re \xc3\xa0 caf\xc3\xa9 de'
p21
aS'gingembre en poudre'
p22
aa(lp23
S'0.5'
p24
aS'pinc\xc3\xa9e de'
p25
aS'noix de muscade r\xc3\xa2p\xc3\xa9e'
p26
aa(lp27
S'0.5'
p28
aS'None'
p29
aS'orange'
p30
aaa.