(lp0
S'Soupe champenoise'
p1
aF3.5
aI1247
a(lp2
(lp3
S'1.66666666667'
p4
aS'cl de'
p5
aS'triple sec (cointreau, grand marnier)'
p6
aa(lp7
S'1.66666666667'
p8
aS'cl de'
p9
aS'sirop de sucre de canne'
p10
aa(lp11
S'0.166666666667'
p12
aS'bouteilles de'
p13
aS'champagne'
p14
aa(lp15
S'1.66666666667'
p16
aS'cl de'
p17
aS'jus de citrons'
p18
aaa.