(lp0
S'Eau de citron'
p1
aF3.8
aI6
a(lp2
(lp3
S'0.7'
p4
aS'cuill\xc3\xa8res \xc3\xa0 soupe de'
p5
aS'sucre'
p6
aa(lp7
S'0.1'
p8
aS'None'
p9
aS'citrons vert'
p10
aa(lp11
S'0.1'
p12
aS"litre d'"
p13
aS'eau'
p14
aaa.