(lp0
S'Kiwini'
p1
aF3.8
aI71
a(lp2
(lp3
S'4.0'
p4
aS'cl de'
p5
aS'vodka'
p6
aa(lp7
S'3.0'
p8
aS'cl de'
p9
aS'jus de citrons'
p10
aa(lp11
S'2.0'
p12
aS'cl de'
p13
aS"jus d'oranges"
p14
aa(lp15
S'3.0'
p16
aS'cl de'
p17
aS'sirop de kiwi'
p18
aaa.