(lp0
S'Scotchestnut'
p1
aF3.2
aI5
a(lp2
(lp3
S'3.0'
p4
aS'cl de'
p5
aS'whisky (bourbon, whiskey)'
p6
aa(lp7
S'2.0'
p8
aS'cl de'
p9
aS'sirop de ch\xc3\xa2taigne'
p10
aa(lp11
S'1.0'
p12
aS'cl de'
p13
aS'liqueur de citrons (limoncello)'
p14
aaa.