(lp0
S'Vertige'
p1
aF3.6
aI5
a(lp2
(lp3
S'None'
p4
aS'None'
p5
aS'champagne'
p6
aa(lp7
S'0.5'
p8
aS'cl de'
p9
aS'jus de citrons'
p10
aa(lp11
S'0.5'
p12
aS'cl de'
p13
aS'eau-de-vie de poires williams'
p14
aa(lp15
S'1.5'
p16
aS'cl de'
p17
aS'triple sec (cointreau, grand marnier)'
p18
aaa.