(lp0
S'Kampai'
p1
aF3.0
aI1
a(lp2
(lp3
S'2.5'
p4
aS'cl de'
p5
aS'vodka'
p6
aa(lp7
S'2.0'
p8
aS'cl de'
p9
aS'triple sec (cointreau, grand marnier)'
p10
aa(lp11
S'2.0'
p12
aS'cl de'
p13
aS'angostura bitters'
p14
aaa.