(lp0
S'Le 513'
p1
aF3.8
aI4
a(lp2
(lp3
S'7.0'
p4
aS'cl de'
p5
aS'rhum'
p6
aa(lp7
S'10.0'
p8
aS'cl de'
p9
aS'cr\xc3\xa8me de fruit de la passion'
p10
aa(lp11
S'10.0'
p12
aS'cl de'
p13
aS'jus de fruits exotiques'
p14
aa(lp15
S'7.5'
p16
aS'cl de'
p17
aS'energy drink (red bull, pitbull, duff)'
p18
aaa.