(lp0
S'M\xc3\xa9tempsyrhum'
p1
aF2.0
aI2
a(lp2
(lp3
S'2.0'
p4
aS'cl de'
p5
aS'rhum blanc'
p6
aa(lp7
S'2.0'
p8
aS'cl de'
p9
aS'gin'
p10
aa(lp11
S'1.0'
p12
aS'cl de'
p13
aS'sirop de grenadine'
p14
aa(lp15
S'1.0'
p16
aS'cl de'
p17
aS'jus de citrons verts'
p18
aa(lp19
S'1.0'
p20
aS'trait de'
p21
aS'cura\xc3\xa7ao bleu'
p22
aa(lp23
S'1.0'
p24
aS'pinc\xc3\xa9es de'
p25
aS'cannelle'
p26
aaa.