(lp0
S'Italian Sunrise'
p1
aF3.0
aI1
a(lp2
(lp3
S'0.166666666667'
p4
aS'de'
p5
aS'vodka'
p6
aa(lp7
S'0.25'
p8
aS'de'
p9
aS'angostura bitters'
p10
aa(lp11
S'0.0833333333333'
p12
aS'de'
p13
aS'liqueur de citrons (limoncello)'
p14
aa(lp15
S'0.25'
p16
aS'de'
p17
aS"jus d'oranges"
p18
aa(lp19
S'0.25'
p20
aS'de'
p21
aS'sweet & sour'
p22
aaa.