(lp0
S'Ricard Julep'
p1
aF3.5
aI20
a(lp2
(lp3
S'4.0'
p4
aS'cl de'
p5
aS'spiritueux anis\xc3\xa9 (pastis, ricard, pernod)'
p6
aa(lp7
S'0.5'
p8
aS'cl de'
p9
aS'sirop de sucre de canne'
p10
aa(lp11
S'3.0'
p12
aS'feuilles de'
p13
aS'menthe'
p14
aaa.