(lp0
S'Toro Rosso'
p1
aF3.2
aI9
a(lp2
(lp3
S'0.5'
p4
aS'cl de'
p5
aS'sirop de fraises'
p6
aa(lp7
S'3.0'
p8
aS'cl de'
p9
aS'cr\xc3\xa8me de m\xc3\xbbre'
p10
aa(lp11
S'3.0'
p12
aS'cl de'
p13
aS'vodka'
p14
aa(lp15
S'None'
p16
aS'cl de'
p17
aS'energy drink (red bull, pitbull, duff)'
p18
aa(lp19
S'0.5'
p20
aS'cl de'
p21
aS'sirop de framboises'
p22
aaa.