(lp0
S'Wallis'
p1
aF5.0
aI1
a(lp2
(lp3
S'1.5'
p4
aS'cl de'
p5
aS'cr\xc3\xa8me de p\xc3\xaache'
p6
aa(lp7
S'1.0'
p8
aS'cl de'
p9
aS'p\xc3\xaacher mignon'
p10
aa(lp11
S'0.5'
p12
aS'cl de'
p13
aS'angostura bitters'
p14
aa(lp15
S'1.0'
p16
aS'cl de'
p17
aS'vermouth blanc (martini, cinzano)'
p18
aa(lp19
S'2.0'
p20
aS'cl de'
p21
aS'gin'
p22
aaa.