(lp0
S'Liqueur de geni\xc3\xa8vre'
p1
aF3.3
aI3
a(lp2
(lp3
S'6.0'
p4
aS'grammes de'
p5
aS'baies de geni\xc3\xa8vre'
p6
aa(lp7
S'0.2'
p8
aS"litres d'"
p9
aS'eau-de-vie'
p10
aa(lp11
S'50.0'
p12
aS'grammes de'
p13
aS'sucre'
p14
aaa.