(lp0
S'Corcovado'
p1
aF3.4
aI14
a(lp2
(lp3
S'2.0'
p4
aS'cl de'
p5
aS'cura\xc3\xa7ao bleu'
p6
aa(lp7
S'2.0'
p8
aS'cl de'
p9
aS'tequila'
p10
aa(lp11
S'2.0'
p12
aS'cl de'
p13
aS'drambuie'
p14
aa(lp15
S'None'
p16
aS'None'
p17
aS'ginger ale (canada dry)'
p18
aaa.