(lp0
S'Gnamakoudji'
p1
aF2.5
aI17
a(lp2
(lp3
S'0.1'
p4
aS'kilo de'
p5
aS'gingembre'
p6
aa(lp7
S'0.4'
p8
aS"litres d'"
p9
aS'eau'
p10
aa(lp11
S'0.1'
p12
aS'kilo de'
p13
aS'sucre'
p14
aa(lp15
S'0.2'
p16
aS'sachets de'
p17
aS'sucre vanille'
p18
aa(lp19
S'None'
p20
aS'quelques feuilles de'
p21
aS'menthe'
p22
aa(lp23
S'0.3'
p24
aS'None'
p25
aS'citrons'
p26
aaa.