(lp0
S'Baciami subito'
p1
aF3.1
aI98
a(lp2
(lp3
S'3.0'
p4
aS'cl de'
p5
aS'vodka noire'
p6
aa(lp7
S'2.0'
p8
aS'cl de'
p9
aS"sirop d'\xc3\xa9pices (spicy)"
p10
aa(lp11
S'3.0'
p12
aS'cl de'
p13
aS'pur\xc3\xa9e de p\xc3\xaache'
p14
aaa.