(lp0
S'Tropicana'
p1
aF4.0
aI1
a(lp2
(lp3
S'6.0'
p4
aS'cl de'
p5
aS'jus de corossol'
p6
aa(lp7
S'2.0'
p8
aS'cl de'
p9
aS'tequila'
p10
aa(lp11
S'2.0'
p12
aS'cl de'
p13
aS'anisette (berger blanc)'
p14
aaa.