(lp0
S'Swan Lake'
p1
aF2.9
aI8
a(lp2
(lp3
S'3.0'
p4
aS'cl de'
p5
aS'vodka'
p6
aa(lp7
S'2.0'
p8
aS'cl de'
p9
aS'cr\xc3\xa8me fra\xc3\xaeche liquide'
p10
aa(lp11
S'1.0'
p12
aS'cl de'
p13
aS'cura\xc3\xa7ao bleu'
p14
aa(lp15
S'1.0'
p16
aS'cl de'
p17
aS'liqueur de vanille'
p18
aa(lp19
S'None'
p20
aS'None'
p21
aS'chocolat en poudre'
p22
aaa.