(lp0
S'Max Milk'
p1
aF3.0
aI2
a(lp2
(lp3
S'12.0'
p4
aS'cl de'
p5
aS'lait'
p6
aa(lp7
S'1.0'
p8
aS'cl de'
p9
aS'sirop de chocolat blanc'
p10
aa(lp11
S'1.0'
p12
aS'cl de'
p13
aS"sirop d'amaretto"
p14
aa(lp15
S'1.0'
p16
aS'cl de'
p17
aS'sirop de vanille'
p18
aa(lp19
S'1.0'
p20
aS'cl de'
p21
aS'sirop de macaron'
p22
aa(lp23
S'1.0'
p24
aS'cl de'
p25
aS'sirop de noix de coco'
p26
aaa.