(lp0
S'Amazone latino'
p1
aF3.3
aI3
a(lp2
(lp3
S'0.3'
p4
aS'de'
p5
aS'cacha\xc3\xa7a'
p6
aa(lp7
S'0.1'
p8
aS'de'
p9
aS'liqueur de cacao brun'
p10
aa(lp11
S'0.2'
p12
aS'de'
p13
aS'cr\xc3\xa8me de bananes'
p14
aa(lp15
S'0.2'
p16
aS'de'
p17
aS'jus de mandarines'
p18
aa(lp19
S'0.2'
p20
aS'de'
p21
aS'guarana'
p22
aa(lp23
S'0.5'
p24
aS'cl de'
p25
aS'sirop de grenadine'
p26
aaa.