(lp0
S'Dragon'
p1
aF3.4
aI83
a(lp2
(lp3
S'None'
p4
aS'None'
p5
aS'champagne'
p6
aa(lp7
S'0.5'
p8
aS'cl de'
p9
aS'sirop de menthe'
p10
aa(lp11
S'1.0'
p12
aS'cl de'
p13
aS'cr\xc3\xa8me de p\xc3\xaache'
p14
aa(lp15
S'1.0'
p16
aS'cl de'
p17
aS'liqueur de bananes (pisang ambon)'
p18
aaa.