(lp0
S'Rhum au beurre'
p1
aF3.4
aI16
a(lp2
(lp3
S'4.0'
p4
aS'cl de'
p5
aS'rhum ambr\xc3\xa9'
p6
aa(lp7
S'1.0'
p8
aS'noix de'
p9
aS'beurre'
p10
aa(lp11
S'1.0'
p12
aS'cl de'
p13
aS'sirop de cannelle'
p14
aa(lp15
S'None'
p16
aS'None'
p17
aS'sucre'
p18
aa(lp19
S'None'
p20
aS'None'
p21
aS'eau'
p22
aaa.