(lp0
S'Perfect Daiquiri'
p1
aF3.2
aI29
a(lp2
(lp3
S'2.5'
p4
aS'cl de'
p5
aS'jus de citrons verts'
p6
aa(lp7
S'5.0'
p8
aS'cl de'
p9
aS'rhum cubain'
p10
aa(lp11
S'1.0'
p12
aS'cl de'
p13
aS"sirop d'agave"
p14
aaa.