(lp0
S'Hoffman House Cocktail'
p1
aF4.0
aI1
a(lp2
(lp3
S'4.0'
p4
aS'cl de'
p5
aS'gin'
p6
aa(lp7
S'2.0'
p8
aS'cl de'
p9
aS'vermouth blanc (martini, cinzano)'
p10
aa(lp11
S'4.0'
p12
aS'traits de'
p13
aS'angostura bitters'
p14
aaa.