(lp0
S'Happy thought'
p1
aF4.0
aI3
a(lp2
(lp3
S'1.0'
p4
aS'cl de'
p5
aS'liqueur de violette'
p6
aa(lp7
S'1.0'
p8
aS'cl de'
p9
aS'liqueur de menthe verte (get 27)'
p10
aa(lp11
S'1.0'
p12
aS'cl de'
p13
aS'cr\xc3\xa8me de rose'
p14
aa(lp15
S'1.0'
p16
aS'cl de'
p17
aS'liqueur de cacao brun'
p18
aa(lp19
S'1.0'
p20
aS"cl d'"
p21
aS'anisette (berger blanc)'
p22
aa(lp23
S'1.0'
p24
aS'cl de'
p25
aS'cognac'
p26
aaa.