(lp0
S'Spanish moss'
p1
aF3.7
aI7
a(lp2
(lp3
S'2.0'
p4
aS'cl de'
p5
aS'tequila'
p6
aa(lp7
S'0.5'
p8
aS'cl de'
p9
aS'liqueur de caf\xc3\x83\xc2\xa9 (kahlua, marie brizard)'
p10
aa(lp11
S'0.5'
p12
aS'cl de'
p13
aS'liqueur de menthe verte (get 27)'
p14
aaa.