(lp0
S'Quatre saisons'
p1
aF3.0
aI2
a(lp2
(lp3
S'2.0'
p4
aS'cl de'
p5
aS'vodka'
p6
aa(lp7
S'1.0'
p8
aS'cl de'
p9
aS'cura\xc3\xa7ao bleu'
p10
aa(lp11
S'1.25'
p12
aS'cl de'
p13
aS'jus de citrons'
p14
aa(lp15
S'1.0'
p16
aS'cl de'
p17
aS'liqueur de jasmin'
p18
aa(lp19
S'1.25'
p20
aS'cl de'
p21
aS'liqueur de framboises'
p22
aa(lp23
S'1.5'
p24
aS'cl de'
p25
aS'gin'
p26
aaa.