(lp0
S'Peter'
p1
aF2.0
aI4
a(lp2
(lp3
S'0.25'
p4
aS'de'
p5
aS'cr\xc3\xa8me de whisky (baileys)'
p6
aa(lp7
S'0.25'
p8
aS'de'
p9
aS'triple sec (cointreau, grand marnier)'
p10
aa(lp11
S'0.25'
p12
aS'de'
p13
aS'rhum blanc'
p14
aa(lp15
S'0.25'
p16
aS'de'
p17
aS'vodka'
p18
aaa.