(lp0
S'Pink'
p1
aF4.3
aI3
a(lp2
(lp3
S'0.5'
p4
aS'cl de'
p5
aS'angostura bitters'
p6
aa(lp7
S'3.0'
p8
aS'cl de'
p9
aS'vodka'
p10
aa(lp11
S'1.5'
p12
aS'cl de'
p13
aS'liqueur de cerises (cherry brandy)'
p14
aa(lp15
S'1.0'
p16
aS'cl de'
p17
aS'vermouth blanc (martini, cinzano)'
p18
aaa.