(lp0
S'La passion des iles'
p1
aF2.0
aI2
a(lp2
(lp3
S'3.0'
p4
aS'cl de'
p5
aS'rhum cubain'
p6
aa(lp7
S'1.0'
p8
aS'cuill\xc3\xa8re de'
p9
aS'lait de coco'
p10
aa(lp11
S'3.0'
p12
aS'cl de'
p13
aS'jus de fruit de la passion (maracuja)'
p14
aaa.