(lp0
S"Pomme d'Api"
p1
aF3.1
aI11
a(lp2
(lp3
S'5.0'
p4
aS'cl de'
p5
aS'jus de pommes'
p6
aa(lp7
S'4.0'
p8
aS'cl de'
p9
aS'gin'
p10
aa(lp11
S'4.0'
p12
aS'cl de'
p13
aS'limonade (soda, sprite, 7up)'
p14
aa(lp15
S'1.0'
p16
aS'trait de'
p17
aS'sirop de grenadine'
p18
aaa.