(lp0
S'Klabauter man'
p1
aF3.5
aI2
a(lp2
(lp3
S'1.0'
p4
aS'cl de'
p5
aS'jus de citrons verts'
p6
aa(lp7
S'None'
p8
aS'None'
p9
aS'sucre'
p10
aa(lp11
S'10.0'
p12
aS'cl de'
p13
aS'arrack (arak)'
p14
aa(lp15
S'20.0'
p16
aS'cl de'
p17
aS'porto rouge'
p18
aaa.