(lp0
S'Alleluia'
p1
aF4.0
aI1
a(lp2
(lp3
S'6.0'
p4
aS'/10 de'
p5
aS'cacha\xc3\xa7a'
p6
aa(lp7
S'4.0'
p8
aS'/10 de'
p9
aS'marasquin'
p10
aa(lp11
S'1.0'
p12
aS"Cuill\xc3\xa8re \xc3\xa0 caf\xc3\xa9 de blanc d'"
p13
aS'oeufs'
p14
aa(lp15
S'None'
p16
aS'None'
p17
aS'tonic (schweppes)'
p18
aaa.