(lp0
S'New School Martini'
p1
aF3.2
aI5
a(lp2
(lp3
S'4.0'
p4
aS'cl de'
p5
aS'gin'
p6
aa(lp7
S'3.0'
p8
aS'cl de'
p9
aS'liqueur de cerises (cherry brandy)'
p10
aa(lp11
S'3.0'
p12
aS"traits d'"
p13
aS'angostura orange bitters'
p14
aa(lp15
S'1.0'
p16
aS'cuil\xc3\xa8re \xc3\xa0 caf\xc3\xa9 de'
p17
aS'marasquin'
p18
aaa.