(lp0
S'Bahamas O.'
p1
aF4.0
aI6
a(lp2
(lp3
S'4.0'
p4
aS'cl de'
p5
aS'vodka'
p6
aa(lp7
S'2.0'
p8
aS'cl de'
p9
aS'liqueur de kiwis'
p10
aa(lp11
S'2.0'
p12
aS'cl de'
p13
aS'cr\xc3\xa8me de fraises'
p14
aa(lp15
S'4.0'
p16
aS'cl de'
p17
aS'jus de bananes'
p18
aaa.