(lp0
S'Rose des \xc3\xaeles'
p1
aF2.7
aI118
a(lp2
(lp3
S'3.5'
p4
aS'cl de'
p5
aS'jus de goyaves'
p6
aa(lp7
S'2.0'
p8
aS'cl de'
p9
aS'rhum ambr\xc3\xa9'
p10
aa(lp11
S'1.5'
p12
aS'cl de'
p13
aS'cr\xc3\xa8me fra\xc3\xaeche liquide'
p14
aaa.