(lp0
S'Potion des elfes'
p1
aF3.5
aI4
a(lp2
(lp3
S'50.0'
p4
aS'grammes de'
p5
aS"fleurs d'oranger"
p6
aa(lp7
S'1.0'
p8
aS'b\xc3\xa2ton de'
p9
aS'cannelle'
p10
aa(lp11
S'1.0'
p12
aS'None'
p13
aS'clous de girofle'
p14
aa(lp15
S'1.0'
p16
aS"litre d'"
p17
aS'eau'
p18
aa(lp19
S'1.0'
p20
aS'cuill\xc3\xa8re \xc3\xa0 soupe de'
p21
aS'rhum blanc'
p22
aa(lp23
S'1.0'
p24
aS"zeste d'"
p25
aS'oranges'
p26
aaa.