(lp0
S'Coco Loco'
p1
aF3.4
aI19
a(lp2
(lp3
S'2.0'
p4
aS'cl de'
p5
aS'rhum blanc'
p6
aa(lp7
S'4.0'
p8
aS'cl de'
p9
aS'lait de coco'
p10
aa(lp11
S'2.0'
p12
aS'cuill\xc3\xa8res \xc3\xa0 caf\xc3\xa9 de'
p13
aS'sucre'
p14
aa(lp15
S'6.0'
p16
aS'cl de'
p17
aS'lait'
p18
aaa.