(lp0
S'PG'
p1
aF3.3
aI6
a(lp2
(lp3
S'3.0'
p4
aS'cl de'
p5
aS'vodka'
p6
aa(lp7
S'2.0'
p8
aS'cl de'
p9
aS'vermouth dry (martini, noilly prat)'
p10
aa(lp11
S'6.0'
p12
aS'cl de'
p13
aS'jus de pommes'
p14
aa(lp15
S'6.0'
p16
aS'cl de'
p17
aS'ginger ale (canada dry)'
p18
aaa.