(lp0
S'Banana daiquiri'
p1
aF3.2
aI152
a(lp2
(lp3
S'6.0'
p4
aS'cl de'
p5
aS'rhum blanc'
p6
aa(lp7
S'1.0'
p8
aS'cl de'
p9
aS'triple sec (cointreau, grand marnier)'
p10
aa(lp11
S'2.0'
p12
aS'cl de'
p13
aS'jus de citrons'
p14
aa(lp15
S'2.0'
p16
aS'cl de'
p17
aS'cr\xc3\xa8me fra\xc3\xaeche liquide'
p18
aa(lp19
S'1.0'
p20
aS'cl de'
p21
aS'lait'
p22
aa(lp23
S'0.5'
p24
aS'cl de'
p25
aS'sirop de sucre de canne'
p26
aa(lp27
S'1.0'
p28
aS'None'
p29
aS'banane'
p30
aaa.