(lp0
S'Peach fun'
p1
aF3.5
aI27
a(lp2
(lp3
S'2.0'
p4
aS'cl de'
p5
aS'cr\xc3\xa8me fra\xc3\xaeche liquide'
p6
aa(lp7
S'4.0'
p8
aS'cl de'
p9
aS'lait'
p10
aa(lp11
S'2.0'
p12
aS'cl de'
p13
aS'sirop de framboises'
p14
aa(lp15
S'6.0'
p16
aS'cl de'
p17
aS'nectar de p\xc3\xaaches'
p18
aaa.