(lp0
S'Bloody sunday'
p1
aF2.7
aI3
a(lp2
(lp3
S'1.0'
p4
aS'trait de'
p5
aS'sirop de fraises'
p6
aa(lp7
S'None'
p8
aS'cl de'
p9
aS'porto rouge'
p10
aa(lp11
S'None'
p12
aS'cl de'
p13
aS'porto blanc'
p14
aa(lp15
S'None'
p16
aS'cl de'
p17
aS'vermouth blanc (martini, cinzano)'
p18
aa(lp19
S'None'
p20
aS'cl de'
p21
aS'vermouth rouge (martini, cinzano)'
p22
aaa.