(lp0
S'Currant shrub'
p1
aF3.8
aI17
a(lp2
(lp3
S'500.0'
p4
aS'grammes de'
p5
aS'jus de groseilles'
p6
aa(lp7
S'300.0'
p8
aS'grammes de'
p9
aS'sucre'
p10
aa(lp11
S'None'
p12
aS'None'
p13
aS'cognac'
p14
aaa.