(lp0
S'BMW2'
p1
aF3.8
aI4
a(lp2
(lp3
S'4.0'
p4
aS'cl de'
p5
aS'cr\xc3\xa8me de whisky (baileys)'
p6
aa(lp7
S'4.0'
p8
aS'cl de'
p9
aS'whisky (bourbon, whiskey)'
p10
aa(lp11
S'4.0'
p12
aS'cl de'
p13
aS'liqueur de coco (cocogif, malibu)'
p14
aaa.