(lp0
S'Domino Shot'
p1
aF4.0
aI1
a(lp2
(lp3
S'4.0'
p4
aS'cl de'
p5
aS'rhum blanc'
p6
aa(lp7
S'3.0'
p8
aS'cl de'
p9
aS'jus de cranberry (canneberges)'
p10
aa(lp11
S'3.0'
p12
aS'cl de'
p13
aS'sirop de past\xc3\xa8que (watermelon)'
p14
aaa.