(lp0
S'Negus'
p1
aF4.0
aI1
a(lp2
(lp3
S'0.0833333333333'
p4
aS'None'
p5
aS'citron'
p6
aa(lp7
S'0.166666666667'
p8
aS'cuill\xc3\xa8res \xc3\xa0 soupe de'
p9
aS'sucre'
p10
aa(lp11
S'6.25'
p12
aS'cl de'
p13
aS'porto rouge'
p14
aa(lp15
S'0.833333333333'
p16
aS"cl d'"
p17
aS'eau'
p18
aaa.