(lp0
S'Tu e io'
p1
aF4.4
aI5
a(lp2
(lp3
S'0.5'
p4
aS'cl de'
p5
aS"liqueur d'abricots (abricot brandy)"
p6
aa(lp7
S'4.0'
p8
aS'cl de'
p9
aS'vodka'
p10
aa(lp11
S'2.0'
p12
aS'cl de'
p13
aS'vermouth blanc (martini, cinzano)'
p14
aaa.