(lp0
S'FanFan'
p1
aF3.5
aI2
a(lp2
(lp3
S'0.5'
p4
aS'cl de'
p5
aS'sirop de gingembre'
p6
aa(lp7
S'1.0'
p8
aS'cl de'
p9
aS'jus de citrons verts'
p10
aa(lp11
S'6.0'
p12
aS'cl de'
p13
aS'jus de cranberry (canneberges)'
p14
aa(lp15
S'2.0'
p16
aS'cl de'
p17
aS'vodka poivre (absolut pepper)'
p18
aaa.