(lp0
S'Rosewater Rickey'
p1
aF3.3
aI12
a(lp2
(lp3
S'None'
p4
aS'None'
p5
aS'eau gazeuse (perrier, salvetat)'
p6
aa(lp7
S'1.5'
p8
aS'cl de'
p9
aS'jus de citrons verts'
p10
aa(lp11
S'1.0'
p12
aS"cuill\xc3\xa8re \xc3\xa0 caf\xc3\xa9 d'"
p13
aS'eau de rose'
p14
aa(lp15
S'8.0'
p16
aS'cl de'
p17
aS'gin'
p18
aa(lp19
S'1.0'
p20
aS'cuill\xc3\xa8re \xc3\xa0 caf\xc3\xa9 de'
p21
aS'sucre'
p22
aa(lp23
S'5.0'
p24
aS'None'
p25
aS"cerises \xc3\xa0 l'eau de vie"
p26
aa(lp27
S'1.0'
p28
aS'trait de'
p29
aS'rhum blanc'
p30
aa(lp31
S'1.0'
p32
aS"trait d'"
p33
aS'angostura bitters'
p34
aaa.