(lp0
S'Planteur des Caraibes'
p1
aF3.6
aI53
a(lp2
(lp3
S'1.0'
p4
aS'cl de'
p5
aS'sirop de grenadine'
p6
aa(lp7
S'1.0'
p8
aS'cl de'
p9
aS'marasquin'
p10
aa(lp11
S'1.0'
p12
aS'cl de'
p13
aS'jus de citrons'
p14
aa(lp15
S'2.0'
p16
aS'cl de'
p17
aS"jus d'oranges"
p18
aa(lp19
S'1.0'
p20
aS'cl de'
p21
aS"jus d'ananas"
p22
aa(lp23
S'4.0'
p24
aS'cl de'
p25
aS'rhum blanc'
p26
aa(lp27
S'1.0'
p28
aS'cl de'
p29
aS'rhum ambr\xc3\xa9'
p30
aaa.