(lp0
S'Hawaii Fizz'
p1
aF3.1
aI8
a(lp2
(lp3
S'6.0'
p4
aS'cl de'
p5
aS'rhum ambr\xc3\xa9'
p6
aa(lp7
S'4.0'
p8
aS'cl de'
p9
aS"jus d'ananas"
p10
aa(lp11
S'2.0'
p12
aS'cl de'
p13
aS'sirop de sucre de canne'
p14
aa(lp15
S'None'
p16
aS'None'
p17
aS'eau gazeuse (perrier, salvetat)'
p18
aaa.