(lp0
S'Kentumi'
p1
aF4.1
aI14
a(lp2
(lp3
S'4.0'
p4
aS'cl de'
p5
aS'sirop de fruit de la passion (maracuja)'
p6
aa(lp7
S'1.0'
p8
aS'boule de'
p9
aS'sorbet \xc3\xa0 la vanille'
p10
aa(lp11
S'1.0'
p12
aS'cl de'
p13
aS'jus de citrons verts'
p14
aaa.