(lp0
S'Hello man'
p1
aF4.1
aI9
a(lp2
(lp3
S'4.0'
p4
aS'cl de'
p5
aS'rhum blanc'
p6
aa(lp7
S'1.0'
p8
aS'cl de'
p9
aS'rhum ambr\xc3\xa9'
p10
aa(lp11
S'1.0'
p12
aS'cl de'
p13
aS'liqueur de menthe verte (get 27)'
p14
aa(lp15
S'1.0'
p16
aS'cl de'
p17
aS'cacha\xc3\xa7a'
p18
aa(lp19
S'10.0'
p20
aS'cl de'
p21
aS'jus de fruit de la passion (maracuja)'
p22
aa(lp23
S'1.0'
p24
aS'cl de'
p25
aS'jus de citrons verts'
p26
aa(lp27
S'1.0'
p28
aS'cl de'
p29
aS'sirop de grenadine'
p30
aaa.