(lp0
S'Hugo Fraise des bois'
p1
aF2.4
aI10
a(lp2
(lp3
S'2.0'
p4
aS'cl de'
p5
aS'sirop de fraise des bois'
p6
aa(lp7
S'2.0'
p8
aS'rondelles de'
p9
aS'citrons'
p10
aa(lp11
S'12.0'
p12
aS'cl de'
p13
aS'vin mousseux'
p14
aa(lp15
S'8.0'
p16
aS'feuilles de'
p17
aS'menthe'
p18
aaa.