(lp0
S'Bubble tea'
p1
aF4.0
aI5
a(lp2
(lp3
S'10.0'
p4
aS'cl de'
p5
aS'th\xc3\xa9 noir'
p6
aa(lp7
S'50.0'
p8
aS'grammes de billes de'
p9
aS'tapioca'
p10
aa(lp11
S'10.0'
p12
aS'cl de'
p13
aS'lait'
p14
aa(lp15
S'6.0'
p16
aS'cl de'
p17
aS'sirop de sucre de canne'
p18
aaa.