(lp0
S'Porn Star Martini'
p1
aF3.1
aI15
a(lp2
(lp3
S'1.5'
p4
aS'cl de'
p5
aS'sirop de vanille'
p6
aa(lp7
S'1.5'
p8
aS'cl de'
p9
aS'sirop de fruit de la passion (maracuja)'
p10
aa(lp11
S'3.5'
p12
aS'cl de'
p13
aS'vodka'
p14
aa(lp15
S'5.0'
p16
aS'cl de'
p17
aS'pur\xc3\xa9e de fruit de la passion'
p18
aaa.