(lp0
S'Silk Stocking'
p1
aF4.0
aI1
a(lp2
(lp3
S'4.0'
p4
aS'cl de'
p5
aS'tequila'
p6
aa(lp7
S'1.5'
p8
aS'cl de'
p9
aS'liqueur de cacao brun'
p10
aa(lp11
S'1.0'
p12
aS'cl de'
p13
aS'sirop de grenadine'
p14
aa(lp15
S'4.0'
p16
aS'cl de'
p17
aS'lait'
p18
aa(lp19
S'None'
p20
aS'None'
p21
aS'cannelle en poudre'
p22
aaa.