(lp0
S'Louise'
p1
aF1.8
aI4
a(lp2
(lp3
S'None'
p4
aS'None'
p5
aS'champagne'
p6
aa(lp7
S'2.0'
p8
aS'cl de'
p9
aS'vodka'
p10
aa(lp11
S'0.5'
p12
aS'cl de'
p13
aS'liqueur de bananes (pisang ambon)'
p14
aa(lp15
S'1.5'
p16
aS'cl de'
p17
aS'liqueur de framboises'
p18
aa(lp19
S'3.0'
p20
aS'cl de'
p21
aS'jus de pamplemousses'
p22
aaa.