(lp0
S'Mallorca'
p1
aF4.3
aI4
a(lp2
(lp3
S'0.5'
p4
aS'volumes de'
p5
aS'rhum ambr\xc3\xa9'
p6
aa(lp7
S'0.166666666667'
p8
aS'volumes de'
p9
aS'vermouth dry (martini, noilly prat)'
p10
aa(lp11
S'0.166666666667'
p12
aS'volumes de'
p13
aS'cr\xc3\xa8me de bananes'
p14
aa(lp15
S'0.166666666667'
p16
aS'volumes de'
p17
aS'drambuie'
p18
aaa.