(lp0
S'Friandise'
p1
aF2.7
aI3
a(lp2
(lp3
S'4.0'
p4
aS'cl de'
p5
aS'vodka vanille'
p6
aa(lp7
S'2.0'
p8
aS'cl de'
p9
aS'cr\xc3\xa8me de fraises'
p10
aa(lp11
S'4.0'
p12
aS'cl de'
p13
aS'jus de bananes'
p14
aaa.