(lp0
S'Procope merciere'
p1
aF3.3
aI8
a(lp2
(lp3
S'0.5'
p4
aS'cl de'
p5
aS'liqueur de fraises'
p6
aa(lp7
S'3.0'
p8
aS'cl de'
p9
aS'gin'
p10
aa(lp11
S'1.0'
p12
aS'cl de'
p13
aS'liqueur de bananes (pisang ambon)'
p14
aa(lp15
S'1.0'
p16
aS'cl de'
p17
aS"liqueur d'abricots (abricot brandy)"
p18
aa(lp19
S'3.0'
p20
aS'cl de'
p21
aS"jus d'ananas"
p22
aaa.