(lp0
S'Yellow Speed'
p1
aF4.3
aI10
a(lp2
(lp3
S'4.0'
p4
aS'cl de'
p5
aS'rhum blanc'
p6
aa(lp7
S'8.0'
p8
aS'cl de'
p9
aS"jus d'oranges"
p10
aa(lp11
S'2.0'
p12
aS'cl de'
p13
aS'sirop de grenadine'
p14
aaa.