(lp0
S'Lait macaron \xc3\xa0 la pistache'
p1
aF4.0
aI1
a(lp2
(lp3
S'1.5'
p4
aS'cl de'
p5
aS'sirop de macaron'
p6
aa(lp7
S'1.5'
p8
aS'cl de'
p9
aS'sirop de pistache'
p10
aa(lp11
S'7.0'
p12
aS'cl de'
p13
aS'lait'
p14
aa(lp15
S'None'
p16
aS'None'
p17
aS'cr\xc3\xa8me chantilly'
p18
aaa.