(lp0
S'Fizz E401'
p1
aF2.5
aI24
a(lp2
(lp3
S'10.0'
p4
aS'cl de'
p5
aS'tonic (schweppes)'
p6
aa(lp7
S'1.0'
p8
aS'cl de'
p9
aS'sirop de sucre de canne'
p10
aa(lp11
S'5.0'
p12
aS'gouttes de'
p13
aS'alginate de sodium'
p14
aa(lp15
S'50.0'
p16
aS"cl d'"
p17
aS'eau'
p18
aa(lp19
S'10.0'
p20
aS'grammes de'
p21
aS'lactate de calcium'
p22
aa(lp23
S'3.0'
p24
aS'cl de'
p25
aS'jus de citrons'
p26
aa(lp27
S'4.0'
p28
aS'cl de'
p29
aS'gin'
p30
aaa.