(lp0
S'Sangaree'
p1
aF1.5
aI2
a(lp2
(lp3
S'None'
p4
aS'None'
p5
aS'limonade (soda, sprite, 7up)'
p6
aa(lp7
S'6.0'
p8
aS'cl de'
p9
aS'whisky (bourbon, whiskey)'
p10
aa(lp11
S'0.5'
p12
aS'cl de'
p13
aS'porto rouge'
p14
aa(lp15
S'1.0'
p16
aS"cuill\xc3\xa8re \xc3\xa0 caf\xc3\xa9 d'"
p17
aS'eau'
p18
aa(lp19
S'0.5'
p20
aS'cuill\xc3\xa8re \xc3\xa0 caf\xc3\xa9 de'
p21
aS'sucre'
p22
aaa.