(lp0
S'Recall'
p1
aF4.0
aI3
a(lp2
(lp3
S'2.0'
p4
aS'cl de'
p5
aS'vodka'
p6
aa(lp7
S'1.0'
p8
aS'cl de'
p9
aS"liqueur d'abricots (abricot brandy)"
p10
aa(lp11
S'1.0'
p12
aS'cl de'
p13
aS'sirop de grenadine'
p14
aa(lp15
S'1.0'
p16
aS'cl de'
p17
aS'sirop de fruit de la passion (maracuja)'
p18
aa(lp19
S'2.0'
p20
aS'cl de'
p21
aS"jus d'oranges"
p22
aaa.