(lp0
S'White Lady Jello'
p1
aF3.5
aI17
a(lp2
(lp3
S'0.5'
p4
aS'feuilles de'
p5
aS'g\xc3\xa9latine'
p6
aa(lp7
S'0.5'
p8
aS'None'
p9
aS'citrons'
p10
aa(lp11
S'0.714285714286'
p12
aS'cl de'
p13
aS'triple sec (cointreau, grand marnier)'
p14
aa(lp15
S'0.285714285714'
p16
aS'cl de'
p17
aS'sirop de citrons'
p18
aa(lp19
S'1.78571428571'
p20
aS'cl de'
p21
aS'gin'
p22
aaa.