(lp0
S'Cobbler Ananas'
p1
aF3.3
aI3
a(lp2
(lp3
S'20.0'
p4
aS'cl de'
p5
aS"jus d'ananas"
p6
aa(lp7
S'0.5'
p8
aS'cl de'
p9
aS'jus de citrons verts'
p10
aa(lp11
S'5.0'
p12
aS"traits d'"
p13
aS'angostura bitters'
p14
aa(lp15
S'None'
p16
aS'None'
p17
aS'bitter lemon'
p18
aaa.