(lp0
S'Gin and Sin'
p1
aF3.7
aI9
a(lp2
(lp3
S'2.5'
p4
aS'cl de'
p5
aS'gin'
p6
aa(lp7
S'2.5'
p8
aS'cl de'
p9
aS'jus de citrons'
p10
aa(lp11
S'2.5'
p12
aS'cl de'
p13
aS"jus d'oranges"
p14
aa(lp15
S'0.5'
p16
aS'cl de'
p17
aS'sirop de grenadine'
p18
aaa.