(lp0
S'Spiga'
p1
aF3.7
aI3
a(lp2
(lp3
S'2.5'
p4
aS'cl de'
p5
aS'cr\xc3\xa8me de fruit de la passion'
p6
aa(lp7
S'2.5'
p8
aS'cl de'
p9
aS'safari'
p10
aa(lp11
S'1.7'
p12
aS'cl de'
p13
aS'gin'
p14
aa(lp15
S'1.5'
p16
aS'cl de'
p17
aS'sirop de grenadine'
p18
aa(lp19
S'1.5'
p20
aS'cl de'
p21
aS'sirop de citrons'
p22
aa(lp23
S'3.0'
p24
aS'cl de'
p25
aS'jus de fruits exotiques'
p26
aaa.