(lp0
S'Summit'
p1
aF3.1
aI109
a(lp2
(lp3
S'4.0'
p4
aS'cl de'
p5
aS'cognac'
p6
aa(lp7
S'4.0'
p8
aS'fines lamelles de'
p9
aS'gingembre'
p10
aa(lp11
S'1.0'
p12
aS'zeste de'
p13
aS'citrons verts'
p14
aa(lp15
S'6.0'
p16
aS'cl de'
p17
aS'limonade (soda, sprite, 7up)'
p18
aa(lp19
S'1.0'
p20
aS'pelure de'
p21
aS'concombres'
p22
aaa.