(lp0
S'Coulis de m\xc3\xbbres'
p1
aF3.5
aI22
a(lp2
(lp3
S'25.0'
p4
aS'grammes de'
p5
aS'sucre'
p6
aa(lp7
S'0.075'
p8
aS'kilos de'
p9
aS'm\xc3\xbbres'
p10
aa(lp11
S'0.05'
p12
aS'cuill\xc3\xa8re \xc3\xa0 soupe de'
p13
aS'jus de citrons'
p14
aaa.