(lp0
S"Ti' punch"
p1
aF4.6
aI473
a(lp2
(lp3
S'6.0'
p4
aS'cl de'
p5
aS'rhum blanc'
p6
aa(lp7
S'2.0'
p8
aS'cl de'
p9
aS'sirop de sucre de canne'
p10
aa(lp11
S'1.0'
p12
aS'tranche de'
p13
aS'citrons verts'
p14
aaa.