(lp0
S'Old Hickory Cocktail'
p1
aF4.0
aI1
a(lp2
(lp3
S'4.0'
p4
aS'cl de'
p5
aS'vermouth rouge (martini, cinzano)'
p6
aa(lp7
S'4.0'
p8
aS'cl de'
p9
aS'vermouth dry (martini, noilly prat)'
p10
aa(lp11
S'2.0'
p12
aS'traits de'
p13
aS'angostura bitters'
p14
aa(lp15
S'1.0'
p16
aS"trait d'"
p17
aS'angostura orange bitters'
p18
aaa.