(lp0
S'Slaber'
p1
aF3.5
aI6
a(lp2
(lp3
S'None'
p4
aS'None'
p5
aS'eau gazeuse (perrier, salvetat)'
p6
aa(lp7
S'0.5'
p8
aS'cl de'
p9
aS"jus d'oranges"
p10
aa(lp11
S'0.5'
p12
aS'cl de'
p13
aS'jus de citrons'
p14
aa(lp15
S'1.5'
p16
aS'cl de'
p17
aS'liqueur de bananes (pisang ambon)'
p18
aa(lp19
S'2.0'
p20
aS'cl de'
p21
aS'cura\xc3\xa7ao bleu'
p22
aa(lp23
S'2.0'
p24
aS'cl de'
p25
aS'liqueur de kiwis'
p26
aaa.