(lp0
S'Eau de m\xc3\xa9lisse des carmes'
p1
aF2.8
aI5
a(lp2
(lp3
S'4.0'
p4
aS'grammes de'
p5
aS'cannelle'
p6
aa(lp7
S'4.0'
p8
aS'grammes de'
p9
aS'muscade'
p10
aa(lp11
S'20.0'
p12
aS'grammes de'
p13
aS'coriandre'
p14
aa(lp15
S'0.5'
p16
aS'None'
p17
aS'clous de girofle'
p18
aa(lp19
S'1.5'
p20
aS"grammes d'"
p21
aS'ang\xc3\xa9lique'
p22
aa(lp23
S'12.5'
p24
aS'grammes de zestes de'
p25
aS'citrons'
p26
aa(lp27
S'50.0'
p28
aS'grammes de fleurs de'
p29
aS'm\xc3\xa9lisse'
p30
aa(lp31
S'0.3'
p32
aS"litres d'"
p33
aS'alcool \xc3\xa0 40\xc2\xb0'
p34
aaa.