(lp0
S'Warsaw cocktail'
p1
aF3.0
aI2
a(lp2
(lp3
S'5.0'
p4
aS'cl de'
p5
aS'vodka'
p6
aa(lp7
S'2.5'
p8
aS'cl de'
p9
aS'eau-de-vie de m\xc3\xbbre'
p10
aa(lp11
S'1.0'
p12
aS'cl de'
p13
aS'vermouth blanc (martini, cinzano)'
p14
aa(lp15
S'1.0'
p16
aS'cl de'
p17
aS'jus de citrons'
p18
aaa.