(lp0
S'Liqueur de basilic'
p1
aF3.5
aI12
a(lp2
(lp3
S'10.0'
p4
aS'grammes de'
p5
aS'basilic'
p6
aa(lp7
S'0.1'
p8
aS"litre d'"
p9
aS'eau-de-vie'
p10
aa(lp11
S'30.0'
p12
aS'grammes de'
p13
aS'sucre'
p14
aa(lp15
S'2.5'
p16
aS"cl d'"
p17
aS'eau'
p18
aaa.