(lp0
S'100% Brazilian'
p1
aF2.9
aI8
a(lp2
(lp3
S'5.0'
p4
aS'cl de'
p5
aS'cacha\xc3\xa7a'
p6
aa(lp7
S'1.0'
p8
aS'None'
p9
aS'mangue'
p10
aa(lp11
S'4.0'
p12
aS'cl de'
p13
aS'pur\xc3\xa9e de fruit de la passion'
p14
aaa.