(lp0
S'Amaretto shake'
p1
aF5.0
aI2
a(lp2
(lp3
S'8.0'
p4
aS'cl de'
p5
aS'jus de bananes'
p6
aa(lp7
S'4.0'
p8
aS'cl de'
p9
aS"jus d'ananas"
p10
aa(lp11
S'0.5'
p12
aS'cl de'
p13
aS'bananes'
p14
aa(lp15
S'3.0'
p16
aS'cl de'
p17
aS"sirop d'irish coffee"
p18
aaa.