(lp0
S'Coco san juan'
p1
aF3.8
aI5
a(lp2
(lp3
S'1.0'
p4
aS'cl de'
p5
aS'sirop de grenadine'
p6
aa(lp7
S'2.0'
p8
aS'cl de'
p9
aS'lait de coco'
p10
aa(lp11
S'1.0'
p12
aS'None'
p13
aS'noix de coco'
p14
aaa.