(lp0
S'Dirty Monkey'
p1
aF3.0
aI5
a(lp2
(lp3
S'1.5'
p4
aS'cl de'
p5
aS'cr\xc3\xa8me de whisky (baileys)'
p6
aa(lp7
S'3.0'
p8
aS'cl'
p9
aS'rhum blanc'
p10
aa(lp11
S'1.5'
p12
aS'cl de'
p13
aS'cognac'
p14
aaa.