(lp0
S'Lait de poule au rhum'
p1
aF3.4
aI73
a(lp2
(lp3
S'10.0'
p4
aS'cl de'
p5
aS'lait'
p6
aa(lp7
S'1.5'
p8
aS'cl de'
p9
aS'rhum blanc'
p10
aa(lp11
S'2.0'
p12
aS'cl de'
p13
aS'sirop de sucre de canne'
p14
aa(lp15
S'1.0'
p16
aS"jaune d'"
p17
aS'oeufs'
p18
aa(lp19
S'1.0'
p20
aS'b\xc3\xa2ton de'
p21
aS'cannelle'
p22
aa(lp23
S'1.0'
p24
aS'cuill\xc3\xa8re \xc3\xa0 caf\xc3\xa9 '
p25
aS'cr\xc3\xa8me fra\xc3\xaeche liquide'
p26
aaa.