(lp0
S'American Flyer'
p1
aF2.9
aI83
a(lp2
(lp3
S'3.0'
p4
aS'cl de'
p5
aS'rhum blanc'
p6
aa(lp7
S'1.0'
p8
aS'cl de'
p9
aS'jus de citrons verts'
p10
aa(lp11
S'0.5'
p12
aS'cuill\xc3\xa8re \xc3\xa0 caf\xc3\xa9 de'
p13
aS'sirop de sucre de canne'
p14
aa(lp15
S'None'
p16
aS'None'
p17
aS'champagne'
p18
aaa.