(lp0
S'R\xc3\xaave des antilles'
p1
aF3.7
aI115
a(lp2
(lp3
S'3.0'
p4
aS'cl de'
p5
aS'rhum blanc'
p6
aa(lp7
S'2.0'
p8
aS'cl de'
p9
aS"jus d'ananas"
p10
aa(lp11
S'1.5'
p12
aS'cl de'
p13
aS'jus de citrons verts'
p14
aa(lp15
S'1.0'
p16
aS'cl de'
p17
aS'cura\xc3\xa7ao bleu'
p18
aaa.