(lp0
S'Pizza Cocktail'
p1
aF3.5
aI2
a(lp2
(lp3
S'10.0'
p4
aS'cl de'
p5
aS'jus de tomates'
p6
aa(lp7
S'2.0'
p8
aS'cl de'
p9
aS"jus d'olives (saumure)"
p10
aa(lp11
S'1.0'
p12
aS"rondelle d'"
p13
aS'oignons'
p14
aa(lp15
S'2.0'
p16
aS'feuilles de'
p17
aS'basilic'
p18
aa(lp19
S'1.0'
p20
aS'pinc\xc3\xa9e de'
p21
aS'poivre'
p22
aa(lp23
S'1.0'
p24
aS'cuill\xc3\xa8re \xc3\xa0 soupe de'
p25
aS'cr\xc3\xa8me fra\xc3\xaeche liquide'
p26
aaa.