(lp0
S'Flaming Lamborghini'
p1
aF4.0
aI5
a(lp2
(lp3
S'8.0'
p4
aS'cl de'
p5
aS'sambuca'
p6
aa(lp7
S'3.0'
p8
aS'cl de'
p9
aS'liqueur de caf\xc3\x83\xc2\xa9 (kahlua, marie brizard)'
p10
aa(lp11
S'3.0'
p12
aS'cl de'
p13
aS'cr\xc3\x83\xc2\xa8me de whisky (baileys)'
p14
aa(lp15
S'3.0'
p16
aS'cl de'
p17
aS'cura\xc3\x83\xc2\xa7ao bleu '
p18
aaa.