(lp0
S'Apicius Shooter'
p1
aF3.3
aI3
a(lp2
(lp3
S'2.0'
p4
aS'cl de'
p5
aS'liqueur galliano'
p6
aa(lp7
S'2.0'
p8
aS'cl de'
p9
aS'triple sec (cointreau, grand marnier)'
p10
aa(lp11
S'2.0'
p12
aS'cl de'
p13
aS'cr\xc3\xa8me fra\xc3\xaeche liquide'
p14
aa(lp15
S'0.5'
p16
aS'cl de'
p17
aS'sirop de fraises'
p18
aaa.