(lp0
S'Creanberry pleasure'
p1
aF3.5
aI2
a(lp2
(lp3
S'3.0'
p4
aS'cl de'
p5
aS'vodka cranberry'
p6
aa(lp7
S'3.0'
p8
aS'cl de'
p9
aS'vodka au citron'
p10
aa(lp11
S'3.0'
p12
aS'cl de'
p13
aS'amaretto'
p14
aaa.