(lp0
S'Save me'
p1
aF3.8
aI6
a(lp2
(lp3
S'2.0'
p4
aS'cl de'
p5
aS'cr\xc3\xa8me de framboise'
p6
aa(lp7
S'4.0'
p8
aS'cl de'
p9
aS'vodka'
p10
aa(lp11
S'8.0'
p12
aS'cl de'
p13
aS'jus de bananes'
p14
aa(lp15
S'8.0'
p16
aS'cl de'
p17
aS'jus de cranberry (canneberges)'
p18
aa(lp19
S'8.0'
p20
aS'cl de'
p21
aS'jus de pommes'
p22
aaa.