(lp0
S'Netcocktails'
p1
aF1.5
aI2
a(lp2
(lp3
S'2.0'
p4
aS'cl de'
p5
aS'vodka'
p6
aa(lp7
S'0.5'
p8
aS'cl de'
p9
aS'cura\xc3\xa7ao bleu'
p10
aa(lp11
S'0.5'
p12
aS'cl de'
p13
aS'liqueur de fraises'
p14
aa(lp15
S'1.5'
p16
aS'cl de'
p17
aS'cr\xc3\xa8me de p\xc3\xaache'
p18
aa(lp19
S'2.0'
p20
aS'cl de'
p21
aS'jus de bananes'
p22
aaa.