(lp0
S'Sweet wind'
p1
aF4.0
aI1
a(lp2
(lp3
S'3.0'
p4
aS'cl de'
p5
aS'whisky (bourbon, whiskey)'
p6
aa(lp7
S'3.0'
p8
aS'cl de'
p9
aS'jus de pamplemousses'
p10
aa(lp11
S'3.0'
p12
aS'cl de'
p13
aS'jus de fruits exotiques'
p14
aa(lp15
S'1.0'
p16
aS'cl de'
p17
aS'liqueur de bananes (pisang ambon)'
p18
aaa.