(lp0
S'Belle Nana'
p1
aF3.3
aI3
a(lp2
(lp3
S'1.0'
p4
aS'cl de'
p5
aS'sirop de fraises'
p6
aa(lp7
S'1.0'
p8
aS'cl de'
p9
aS'liqueur de coco (cocogif, malibu)'
p10
aa(lp11
S'2.0'
p12
aS'cl de'
p13
aS"nectar d'ananas"
p14
aa(lp15
S'2.0'
p16
aS'cl de'
p17
aS'jus de bananes'
p18
aa(lp19
S'4.0'
p20
aS'cl de'
p21
aS'gin'
p22
aaa.