(lp0
S'Yacht People'
p1
aF4.0
aI1
a(lp2
(lp3
S'1.0'
p4
aS'cl de'
p5
aS'lime cordial'
p6
aa(lp7
S'1.0'
p8
aS'cl de'
p9
aS'sirop de gingembre'
p10
aa(lp11
S'1.0'
p12
aS'cl de'
p13
aS'sirop de jasmin'
p14
aa(lp15
S'None'
p16
aS'None'
p17
aS'bi\xc3\xa8re stout (guinness)'
p18
aaa.