(lp0
S'Cr\xc3\xa9ole Cr\xc3\xa8me'
p1
aF3.8
aI19
a(lp2
(lp3
S'4.0'
p4
aS'cl de'
p5
aS'rhum blanc'
p6
aa(lp7
S'2.0'
p8
aS'cl de'
p9
aS'vermouth blanc (martini, cinzano)'
p10
aa(lp11
S'1.0'
p12
aS'cl de'
p13
aS'sirop de grenadine'
p14
aa(lp15
S'1.0'
p16
aS'trait de'
p17
aS'angostura bitters'
p18
aa(lp19
S'1.0'
p20
aS'None'
p21
aS'olive'
p22
aaa.