(lp0
S'Sirop de cannelle'
p1
aF2.9
aI29
a(lp2
(lp3
S'0.1'
p4
aS'kilo de'
p5
aS'sucre'
p6
aa(lp7
S'0.1'
p8
aS"litre d'"
p9
aS'eau'
p10
aa(lp11
S'1.0'
p12
aS'None'
p13
aS'b\xc3\xa2tons de cannelle'
p14
aaa.