(lp0
S'Margarita mix'
p1
aF4.0
aI6
a(lp2
(lp3
S'0.4'
p4
aS'cl de'
p5
aS'jus de citrons'
p6
aa(lp7
S'0.433333333333'
p8
aS'cl de'
p9
aS'jus de citrons verts'
p10
aa(lp11
S'0.833333333333'
p12
aS'cl de'
p13
aS'sirop de citron vert'
p14
aa(lp15
S'1.66666666667'
p16
aS"cl d'"
p17
aS'eau'
p18
aaa.