(lp0
S'Pink pang'
p1
aF3.4
aI13
a(lp2
(lp3
S'0.5'
p4
aS'zeste de'
p5
aS'citrons'
p6
aa(lp7
S'15.0'
p8
aS'None'
p9
aS'framboises'
p10
aa(lp11
S'0.5'
p12
aS'pinc\xc3\xa9e de '
p13
aS'poivre'
p14
aa(lp15
S'10.0'
p16
aS'cl de'
p17
aS'lait de soja'
p18
aaa.