(lp0
S'Sangria Ros\xc3\xa9'
p1
aF3.0
aI27
a(lp2
(lp3
S'25.0'
p4
aS'grammes de'
p5
aS'fruits des bois'
p6
aa(lp7
S'0.333333333333'
p8
aS'branches de'
p9
aS'menthe'
p10
aa(lp11
S'5.0'
p12
aS'grammes de '
p13
aS'sucre'
p14
aa(lp15
S'0.5'
p16
aS'cl de'
p17
aS'gin'
p18
aa(lp19
S'0.5'
p20
aS'cl de'
p21
aS'licor beir\xc3\xa3o'
p22
aa(lp23
S'5.0'
p24
aS'cl de'
p25
aS'limonade (soda, sprite, 7up)'
p26
aa(lp27
S'2.5'
p28
aS'cl de'
p29
aS"jus d'oranges"
p30
aa(lp31
S'0.333333333333'
p32
aS'cl de'
p33
aS'sirop de grenadine'
p34
aa(lp35
S'None'
p36
aS'None'
p37
aS'vin ros\xc3\xa9'
p38
aaa.