(lp0
S"Tommy's Margarita"
p1
aF3.8
aI64
a(lp2
(lp3
S'5.0'
p4
aS'cl de'
p5
aS'tequila'
p6
aa(lp7
S'2.5'
p8
aS'cl de'
p9
aS'jus de citrons verts'
p10
aa(lp11
S'2.0'
p12
aS'cl de'
p13
aS"sirop d'agave"
p14
aaa.