(lp0
S'Irish Car Bomb'
p1
aF4.0
aI10
a(lp2
(lp3
S'15.0'
p4
aS'cl de'
p5
aS'bi\xc3\xa8re stout (guinness)'
p6
aa(lp7
S'2.0'
p8
aS'cl de'
p9
aS'cr\xc3\xa8me de whisky (baileys)'
p10
aa(lp11
S'2.0'
p12
aS'cl de'
p13
aS'whisky (bourbon, whiskey)'
p14
aaa.