(lp0
S'Manzarom'
p1
aF1.8
aI6
a(lp2
(lp3
S'1.0'
p4
aS'None'
p5
aS'orange'
p6
aa(lp7
S'3.0'
p8
aS'cl de'
p9
aS'liqueur de pommes (manzana, manzanita)'
p10
aa(lp11
S'3.0'
p12
aS'cl de'
p13
aS'rhum cubain'
p14
aaa.