(lp0
S'Bif'
p1
aF2.7
aI14
a(lp2
(lp3
S'1.0'
p4
aS'cl de'
p5
aS'cr\xc3\xa8me de cassis'
p6
aa(lp7
S'2.0'
p8
aS'cl de'
p9
aS'cura\xc3\xa7ao bleu'
p10
aa(lp11
S'7.0'
p12
aS'cl de'
p13
aS'vin blanc'
p14
aaa.