(lp0
S'Peching meadow'
p1
aF4.0
aI3
a(lp2
(lp3
S'1.5'
p4
aS'cl de'
p5
aS'safari'
p6
aa(lp7
S'3.5'
p8
aS'cl de'
p9
aS'cr\xc3\xa8me de p\xc3\xaache de vigne'
p10
aa(lp11
S'2.0'
p12
aS'cl de'
p13
aS'eau-de-vie de poires williams'
p14
aaa.