(lp0
S'Golden Dream'
p1
aF4.0
aI14
a(lp2
(lp3
S'3.0'
p4
aS'cl de'
p5
aS'liqueur galliano'
p6
aa(lp7
S'1.5'
p8
aS'cl de'
p9
aS'triple sec (cointreau, grand marnier)'
p10
aa(lp11
S'1.0'
p12
aS'cl de'
p13
aS"jus d'oranges"
p14
aa(lp15
S'1.0'
p16
aS'cl de'
p17
aS'cr\xc3\xa8me fra\xc3\xaeche liquide'
p18
aaa.