(lp0
S'Bourpif'
p1
aF2.0
aI1
a(lp2
(lp3
S'1.0'
p4
aS'feuille de'
p5
aS'menthe'
p6
aa(lp7
S'5.0'
p8
aS'cl de'
p9
aS'vin blanc'
p10
aa(lp11
S'3.0'
p12
aS'cl de'
p13
aS'vin'
p14
aa(lp15
S'10.0'
p16
aS'cl de'
p17
aS'jus de pommes'
p18
aaa.