(lp0
S'Rayon'
p1
aF3.2
aI21
a(lp2
(lp3
S'1.5'
p4
aS'cl de'
p5
aS'marasquin'
p6
aa(lp7
S'1.5'
p8
aS'cl de'
p9
aS'liqueur de cacao brun'
p10
aa(lp11
S'3.0'
p12
aS'cl de'
p13
aS'vermouth blanc (martini, cinzano)'
p14
aa(lp15
S'0.5'
p16
aS'cl de'
p17
aS'angostura orange bitters'
p18
aaa.