(lp0
S'T\xc3\xa9quila sunlight'
p1
aF3.7
aI3
a(lp2
(lp3
S'4.0'
p4
aS'cl de'
p5
aS'tequila'
p6
aa(lp7
S'3.0'
p8
aS'cl de'
p9
aS'midori'
p10
aa(lp11
S'8.0'
p12
aS'cl de'
p13
aS"jus d'ananas"
p14
aa(lp15
S'6.0'
p16
aS'cl de'
p17
aS'jus de bananes'
p18
aa(lp19
S'6.0'
p20
aS'cl de'
p21
aS'jus de goyaves'
p22
aaa.