(lp0
S'Madame rose'
p1
aF3.0
aI1
a(lp2
(lp3
S'3.5'
p4
aS'cl de'
p5
aS'vodka'
p6
aa(lp7
S'0.5'
p8
aS'cl de'
p9
aS'p\xc3\xaacher mignon'
p10
aa(lp11
S'0.5'
p12
aS'cl de'
p13
aS'b\xc3\xa9n\xc3\xa9dictine'
p14
aa(lp15
S'1.0'
p16
aS'cl de'
p17
aS'vermouth blanc (martini, cinzano)'
p18
aaa.