(lp0
S'Green Rainbow'
p1
aF4.0
aI3
a(lp2
(lp3
S'1.0'
p4
aS'cl de'
p5
aS'vodka'
p6
aa(lp7
S'1.0'
p8
aS'cl de'
p9
aS'midori'
p10
aa(lp11
S'8.0'
p12
aS'cl de'
p13
aS'bar mix'
p14
aa(lp15
S'1.0'
p16
aS'trait de'
p17
aS'sirop de grenadine'
p18
aaa.