(lp0
S"Caf\xc3\xa9 frapp\xc3\xa9 Bailey's"
p1
aF3.4
aI102
a(lp2
(lp3
S'20.0'
p4
aS"cl d'"
p5
aS'eau'
p6
aa(lp7
S'2.0'
p8
aS'cuill\xc3\xa8res \xc3\xa0 caf\xc3\xa9 de'
p9
aS'sucre'
p10
aa(lp11
S'1.0'
p12
aS'dose de'
p13
aS'cr\xc3\xa8me de whisky (baileys)'
p14
aa(lp15
S'5.0'
p16
aS'cl de'
p17
aS'lait'
p18
aa(lp19
S'1.0'
p20
aS'cl de'
p21
aS'caf\xc3\xa9 soluble'
p22
aaa.