(lp0
S'Bauer Power Hour'
p1
aF3.9
aI7
a(lp2
(lp3
S'0.75'
p4
aS'parts de'
p5
aS'sambuca'
p6
aa(lp7
S'0.25'
p8
aS'part de'
p9
aS'cr\xc3\xa8me de whisky (baileys)'
p10
aa(lp11
S'0.5'
p12
aS'cl de'
p13
aS'sirop de grenadine'
p14
aaa.