(lp0
S'Flute de pan'
p1
aF3.0
aI3
a(lp2
(lp3
S'2.0'
p4
aS'trait de'
p5
aS'triple sec (cointreau, grand marnier)'
p6
aa(lp7
S'None'
p8
aS'None'
p9
aS'champagne'
p10
aa(lp11
S'None'
p12
aS'None'
p13
aS"zestes d'oranges"
p14
aa(lp15
S'1.0'
p16
aS'morceau de'
p17
aS'sucre'
p18
aaa.