(lp0
S'Chien enrag\xc3\xa9 texmex'
p1
aF3.0
aI5
a(lp2
(lp3
S'2.0'
p4
aS'cl de'
p5
aS'tequila'
p6
aa(lp7
S'2.0'
p8
aS'cl de'
p9
aS'jus de tomates'
p10
aa(lp11
S'1.0'
p12
aS'cl de'
p13
aS'tabasco'
p14
aaa.