(lp0
S'Aliz\xc3\xa9e'
p1
aF3.7
aI21
a(lp2
(lp3
S'7.0'
p4
aS'cl de'
p5
aS'jus de bananes'
p6
aa(lp7
S'7.0'
p8
aS'cl de'
p9
aS'jus de mangues'
p10
aa(lp11
S'5.0'
p12
aS'cl de'
p13
aS"jus d'oranges"
p14
aaa.