(lp0
S'Pussy Cat'
p1
aF4.2
aI43
a(lp2
(lp3
S'5.0'
p4
aS'cl de'
p5
aS"jus d'oranges"
p6
aa(lp7
S'5.0'
p8
aS'cl de'
p9
aS"jus d'ananas"
p10
aa(lp11
S'2.0'
p12
aS'cl de'
p13
aS'jus de pamplemousses'
p14
aa(lp15
S'1.0'
p16
aS'cl de'
p17
aS'sirop de grenadine'
p18
aaa.