(lp0
S'Dr philips grapefruit cup'
p1
aF3.0
aI1
a(lp2
(lp3
S'1.0'
p4
aS'bouteille de'
p5
aS'cognac'
p6
aa(lp7
S'2.0'
p8
aS'None'
p9
aS'pamplemousses'
p10
aa(lp11
S'None'
p12
aS'bocal de'
p13
aS'jus de pamplemousses'
p14
aaa.