(lp0
S'Brandy tea'
p1
aF5.0
aI2
a(lp2
(lp3
S'0.5'
p4
aS"tranche d'"
p5
aS"jus d'oranges"
p6
aa(lp7
S'1.0'
p8
aS'tranche de'
p9
aS'citrons'
p10
aa(lp11
S'2.0'
p12
aS'cuill\xc3\xa8re \xc3\xa0 caf\xc3\xa9 de'
p13
aS'sirop de miel'
p14
aa(lp15
S'4.0'
p16
aS'cl de'
p17
aS'cognac'
p18
aa(lp19
S'1.0'
p20
aS'sachet de'
p21
aS'th\xc3\xa9 noir'
p22
aaa.