(lp0
S'Leite de On\xc3\xa7a'
p1
aF3.4
aI8
a(lp2
(lp3
S'4.0'
p4
aS'cl de'
p5
aS'cacha\xc3\xa7a'
p6
aa(lp7
S'4.0'
p8
aS'cl de'
p9
aS'lait'
p10
aa(lp11
S'4.0'
p12
aS'cl de'
p13
aS'liqueur de cacao blanc'
p14
aa(lp15
S'2.0'
p16
aS'cl de'
p17
aS'lait concentr\xc3\xa9 sucr\xc3\xa9'
p18
aaa.