(lp0
S'Blue Moon'
p1
aF3.2
aI44
a(lp2
(lp3
S'0.4'
p4
aS'volumes de'
p5
aS'gin'
p6
aa(lp7
S'0.2'
p8
aS'volumes de'
p9
aS'cura\xc3\xa7ao bleu'
p10
aa(lp11
S'0.2'
p12
aS'volumes de'
p13
aS'triple sec (cointreau, grand marnier)'
p14
aa(lp15
S'0.2'
p16
aS'volumes de'
p17
aS"jus d'ananas"
p18
aa(lp19
S'None'
p20
aS'None'
p21
aS'limonade (soda, sprite, 7up)'
p22
aaa.