(lp0
S'Sweet summertime'
p1
aF3.5
aI2
a(lp2
(lp3
S'1.0'
p4
aS'cl de'
p5
aS'jus de citrons'
p6
aa(lp7
S'4.0'
p8
aS'cl de'
p9
aS'licor 43'
p10
aa(lp11
S'12.0'
p12
aS'cl de'
p13
aS'jus de fruit de la passion (maracuja)'
p14
aa(lp15
S'2.0'
p16
aS'cl de'
p17
aS'sirop de erdbeer'
p18
aaa.