(lp0
S'Bali cocktail'
p1
aF3.9
aI7
a(lp2
(lp3
S'4.0'
p4
aS'cl de'
p5
aS'liqueur de bananes (pisang ambon)'
p6
aa(lp7
S'3.0'
p8
aS'cl de'
p9
aS'jus de fruit de la passion (maracuja)'
p10
aa(lp11
S'2.0'
p12
aS'cl de'
p13
aS'gin'
p14
aaa.