(lp0
S"Punch bouilant \xc3\xa0 l'Oranger"
p1
aF3.5
aI10
a(lp2
(lp3
S'0.1'
p4
aS'litres de'
p5
aS'lait'
p6
aa(lp7
S'0.5'
p8
aS"sachets d'"
p9
aS"infusion de fleurs d'oranger"
p10
aa(lp11
S'0.25'
p12
aS'cl de'
p13
aS'triple sec (cointreau, grand marnier)'
p14
aa(lp15
S'0.75'
p16
aS'cubes de'
p17
aS'sucre'
p18
aa(lp19
S'0.25'
p20
aS'pinc\xc3\xa9e de'
p21
aS'cannelle'
p22
aaa.