(lp0
S'Princesse anne'
p1
aF2.6
aI8
a(lp2
(lp3
S'3.0'
p4
aS'cl de'
p5
aS'calvados'
p6
aa(lp7
S'1.0'
p8
aS'cl de'
p9
aS'liqueur de fraises'
p10
aa(lp11
S'1.0'
p12
aS'cl de'
p13
aS'sirop de fruit de la passion (maracuja)'
p14
aa(lp15
S'1.0'
p16
aS'cl de'
p17
aS"jus d'abricots"
p18
aa(lp19
S'1.0'
p20
aS'cl de'
p21
aS'jus de pamplemousses'
p22
aaa.