(lp0
S'Cocktail carotte'
p1
aF4.2
aI19
a(lp2
(lp3
S'None'
p4
aS'None'
p5
aS'poivre'
p6
aa(lp7
S'None'
p8
aS'None'
p9
aS'sel de c\xc3\xa9leri'
p10
aa(lp11
S'2.0'
p12
aS'cl de'
p13
aS'jus de citrons'
p14
aa(lp15
S'5.0'
p16
aS'cl de'
p17
aS'jus de tomates'
p18
aa(lp19
S'10.0'
p20
aS'cl de'
p21
aS'jus de carottes'
p22
aaa.