(lp0
S'Shoot Up'
p1
aF3.7
aI15
a(lp2
(lp3
S'1.0'
p4
aS'cl de'
p5
aS'mangalore'
p6
aa(lp7
S'None'
p8
aS'None'
p9
aS'eau gazeuse (perrier, salvetat)'
p10
aa(lp11
S'3.0'
p12
aS'cl de'
p13
aS"sirop d'abricot"
p14
aaa.