(lp0
S'Brasileiro'
p1
aF3.0
aI1
a(lp2
(lp3
S'3.0'
p4
aS'cl de'
p5
aS'tequila'
p6
aa(lp7
S'2.0'
p8
aS'cl de'
p9
aS'lait'
p10
aa(lp11
S'2.0'
p12
aS'cl de'
p13
aS'cr\xc3\xa8me fra\xc3\xaeche liquide'
p14
aa(lp15
S'8.0'
p16
aS'cl de'
p17
aS"jus d'oranges"
p18
aa(lp19
S'1.0'
p20
aS'cl de'
p21
aS'cr\xc3\xa8me de maracuja'
p22
aa(lp23
S'1.0'
p24
aS'cl de'
p25
aS'jus de citrons'
p26
aa(lp27
S'1.5'
p28
aS'cl de'
p29
aS'licor 43'
p30
aaa.