(lp0
S"Lime'n gin"
p1
aF4.0
aI2
a(lp2
(lp3
S'1.0'
p4
aS'boule de sorbet au'
p5
aS'citrons verts'
p6
aa(lp7
S'4.0'
p8
aS'cl de'
p9
aS'gin'
p10
aa(lp11
S'None'
p12
aS'None'
p13
aS'noix de muscade r\xc3\xa2p\xc3\xa9e'
p14
aa(lp15
S'None'
p16
aS'None'
p17
aS'tonic (schweppes)'
p18
aaa.