(lp0
S'Lait miel-carotte'
p1
aF2.8
aI13
a(lp2
(lp3
S'25.0'
p4
aS'cl de'
p5
aS'lait'
p6
aa(lp7
S'1.0'
p8
aS'demi'
p9
aS'carottes'
p10
aa(lp11
S'1.0'
p12
aS"cuill\xc3\xa8re \xc3\xa0 soupe d'"
p13
aS'amandes'
p14
aa(lp15
S'1.0'
p16
aS'cuill\xc3\xa8re \xc3\xa0 soupe de'
p17
aS'sirop de miel'
p18
aaa.