(lp0
S'Mojiska'
p1
aF3.3
aI3
a(lp2
(lp3
S'0.5'
p4
aS'cl de'
p5
aS'citrons verts'
p6
aa(lp7
S'0.5'
p8
aS'cl de'
p9
aS'sirop de sucre de canne'
p10
aa(lp11
S'6.0'
p12
aS'cl de'
p13
aS'feuilles de menthe'
p14
aa(lp15
S'6.0'
p16
aS'cl de'
p17
aS'vodka'
p18
aa(lp19
S'None'
p20
aS'cl de'
p21
aS'limonade (soda, sprite, 7up)'
p22
aaa.