(lp0
S'Anthony dreams'
p1
aF2.9
aI31
a(lp2
(lp3
S'5.0'
p4
aS'cl de'
p5
aS"jus d'ananas"
p6
aa(lp7
S'0.5'
p8
aS'cl de'
p9
aS'sirop de grenadine'
p10
aa(lp11
S'1.0'
p12
aS'cl de'
p13
aS'liqueur de poire'
p14
aa(lp15
S'1.0'
p16
aS'cl de'
p17
aS'safari'
p18
aa(lp19
S'3.0'
p20
aS'cl de'
p21
aS'gin'
p22
aaa.