(lp0
S'Vodka Daisy'
p1
aF3.4
aI34
a(lp2
(lp3
S'6.0'
p4
aS'cl de'
p5
aS'vodka'
p6
aa(lp7
S'2.0'
p8
aS'cl de'
p9
aS'jus de citrons'
p10
aa(lp11
S'1.0'
p12
aS'cl de'
p13
aS'sirop de grenadine'
p14
aa(lp15
S'None'
p16
aS'None'
p17
aS'tonic (schweppes)'
p18
aaa.