(lp0
S'Android'
p1
aF3.7
aI15
a(lp2
(lp3
S'0.5'
p4
aS'None'
p5
aS'citron'
p6
aa(lp7
S'0.5'
p8
aS'None'
p9
aS'citrons vert'
p10
aa(lp11
S'5.0'
p12
aS'cl de'
p13
aS'jus de fraises'
p14
aa(lp15
S'2.0'
p16
aS'cl de'
p17
aS'gin'
p18
aaa.