(lp0
S'Lady Killer'
p1
aF3.6
aI22
a(lp2
(lp3
S'0.2'
p4
aS'volumes de'
p5
aS'gin'
p6
aa(lp7
S'0.1'
p8
aS'volumes de'
p9
aS'triple sec (cointreau, grand marnier)'
p10
aa(lp11
S'0.1'
p12
aS'volumes de'
p13
aS"liqueur d'abricots (abricot brandy)"
p14
aa(lp15
S'0.3'
p16
aS'volumes de'
p17
aS'jus de fruit de la passion (maracuja)'
p18
aa(lp19
S'0.3'
p20
aS'volumes de'
p21
aS"jus d'ananas"
p22
aaa.