(lp0
S'Limonade des tropiques'
p1
aF4.0
aI25
a(lp2
(lp3
S'10.0'
p4
aS'cl de'
p5
aS"jus d'oranges"
p6
aa(lp7
S'10.0'
p8
aS'cl de'
p9
aS'limonade (soda, sprite, 7up)'
p10
aa(lp11
S'None'
p12
aS'quelques'
p13
aS'cerises'
p14
aa(lp15
S'None'
p16
aS'un peu de'
p17
aS'jus de cerises'
p18
aaa.