(lp0
S'Irish picon'
p1
aF3.3
aI3
a(lp2
(lp3
S'2.0'
p4
aS'cl de'
p5
aS'picon'
p6
aa(lp7
S'2.0'
p8
aS'traits de'
p9
aS'sirop de grenadine'
p10
aa(lp11
S'None'
p12
aS'None'
p13
aS'bi\xc3\xa8re stout (guinness)'
p14
aaa.