(lp0
S'Panth\xc3\xa8re rose'
p1
aF3.0
aI153
a(lp2
(lp3
S'3.0'
p4
aS'cl de'
p5
aS'rhum blanc'
p6
aa(lp7
S'2.0'
p8
aS'cl de'
p9
aS'cr\xc3\xa8me de p\xc3\xaache'
p10
aa(lp11
S'2.0'
p12
aS'cl de'
p13
aS'liqueur de fraises'
p14
aa(lp15
S'1.0'
p16
aS'cl de'
p17
aS'jus de citrons'
p18
aa(lp19
S'1.0'
p20
aS'cl de'
p21
aS"jus d'ananas"
p22
aaa.