(lp0
S'Adhoc'
p1
aF3.2
aI14
a(lp2
(lp3
S'3.0'
p4
aS'cl de'
p5
aS'liqueur de caf\xc3\x83\xc2\xa9 (kahlua, marie brizard)'
p6
aa(lp7
S'2.0'
p8
aS'cl de'
p9
aS'liqueur de menthe blanche (get 31)'
p10
aa(lp11
S'2.0'
p12
aS'cl de'
p13
aS'rhum blanc'
p14
aaa.