(lp0
S'Tamagozake'
p1
aF3.0
aI1
a(lp2
(lp3
S'4.0'
p4
aS'cl de'
p5
aS'sak\xc3\xa9 (alcool de riz)'
p6
aa(lp7
S'1.0'
p8
aS'None'
p9
aS'oeuf'
p10
aa(lp11
S'2.0'
p12
aS'cl de'
p13
aS'sirop de miel'
p14
aaa.