(lp0
S'Holidays imperial'
p1
aF3.0
aI2
a(lp2
(lp3
S'0.5'
p4
aS'cl de'
p5
aS'sirop de grenadine'
p6
aa(lp7
S'2.0'
p8
aS'cl de'
p9
aS'cognac'
p10
aa(lp11
S'2.0'
p12
aS'cl de'
p13
aS'liqueur mandarine napol\xc3\xa9on'
p14
aa(lp15
S'2.0'
p16
aS'cl de'
p17
aS'jus de fruit de la passion (maracuja)'
p18
aa(lp19
S'1.0'
p20
aS'cl de'
p21
aS"jus d'ananas"
p22
aaa.