(lp0
S'Pink Bloody'
p1
aF4.0
aI3
a(lp2
(lp3
S'5.0'
p4
aS'cl de'
p5
aS'porto pink'
p6
aa(lp7
S'5.0'
p8
aS'cl de'
p9
aS"jus d'oranges sanguines"
p10
aa(lp11
S'1.0'
p12
aS'trait de'
p13
aS'sirop de sucre de canne'
p14
aaa.