(lp0
S'Canquila Blue'
p1
aF3.2
aI5
a(lp2
(lp3
S'1.0'
p4
aS'trait de'
p5
aS'sirop de sucre de canne'
p6
aa(lp7
S'1.0'
p8
aS'trait de'
p9
aS'ginger ale (canada dry)'
p10
aa(lp11
S'3.0'
p12
aS'cl de'
p13
aS'tequila'
p14
aa(lp15
S'1.0'
p16
aS'trait de'
p17
aS'cura\xc3\xa7ao bleu'
p18
aaa.