(lp0
S'A tout coeur'
p1
aF3.1
aI125
a(lp2
(lp3
S'1.5'
p4
aS'cl de'
p5
aS'b\xc3\xa9n\xc3\xa9dictine'
p6
aa(lp7
S'0.5'
p8
aS'cl de'
p9
aS'cr\xc3\xa8me de cassis'
p10
aa(lp11
S'2.0'
p12
aS'cl de'
p13
aS'rhum blanc'
p14
aa(lp15
S'3.0'
p16
aS'cl de'
p17
aS'vermouth dry (martini, noilly prat)'
p18
aaa.