(lp0
S'Energicious'
p1
aF3.8
aI10
a(lp2
(lp3
S'1.0'
p4
aS'None'
p5
aS'poire'
p6
aa(lp7
S'250.0'
p8
aS'grammes de'
p9
aS'fraises'
p10
aa(lp11
S'1.0'
p12
aS'None'
p13
aS'banane'
p14
aa(lp15
S'2.0'
p16
aS'None'
p17
aS'oeufs'
p18
aa(lp19
S'37.0'
p20
aS'cl de'
p21
aS'jus de pommes'
p22
aa(lp23
S'3.0'
p24
aS'cuill\xc3\xa8res \xc3\xa0 caf\xc3\xa9 de'
p25
aS"sirop d'erable"
p26
aaa.