(lp0
S'Totally Spies'
p1
aF3.0
aI1
a(lp2
(lp3
S'2.0'
p4
aS'cl de'
p5
aS'vodka'
p6
aa(lp7
S'2.0'
p8
aS'cl de'
p9
aS'liqueur de coco (cocogif, malibu)'
p10
aa(lp11
S'2.0'
p12
aS'cl de'
p13
aS'cr\xc3\xa8me de fruit de la passion'
p14
aa(lp15
S'1.0'
p16
aS'cl de'
p17
aS'sirop de noix de coco'
p18
aa(lp19
S'8.0'
p20
aS'cl de'
p21
aS'limonade (soda, sprite, 7up)'
p22
aaa.