(lp0
S'Boisson drainante'
p1
aF2.6
aI63
a(lp2
(lp3
S'3.0'
p4
aS'sachets de'
p5
aS'th\xc3\xa9 vert'
p6
aa(lp7
S'1.0'
p8
aS"litre d'"
p9
aS'eau'
p10
aa(lp11
S'5.0'
p12
aS'cl de'
p13
aS'jus de citrons'
p14
aa(lp15
S'3.0'
p16
aS'cuill\xc3\xa8res \xc3\xa0 soupe de'
p17
aS'miel'
p18
aaa.