(lp0
S'Moulin Vert'
p1
aF3.9
aI7
a(lp2
(lp3
S'4.0'
p4
aS'cl de'
p5
aS'liqueur de coco (cocogif, malibu)'
p6
aa(lp7
S'2.0'
p8
aS'cl de'
p9
aS'liqueur de menthe verte (get 27)'
p10
aa(lp11
S'12.0'
p12
aS'cl de'
p13
aS'limonade (soda, sprite, 7up)'
p14
aaa.