(lp0
S'Red Mogin Tonic'
p1
aF3.7
aI3
a(lp2
(lp3
S'1.0'
p4
aS'poign\xc3\xa9e de grains de'
p5
aS'grenades'
p6
aa(lp7
S'5.0'
p8
aS'feuilles de'
p9
aS'menthe'
p10
aa(lp11
S'2.0'
p12
aS'cl de'
p13
aS'lime cordial'
p14
aa(lp15
S'5.0'
p16
aS'cl de'
p17
aS'gin'
p18
aa(lp19
S'None'
p20
aS'None'
p21
aS'tonic (schweppes)'
p22
aaa.