(lp0
S'Liqueur de fraises des bois'
p1
aF4.0
aI4
a(lp2
(lp3
S'1.0'
p4
aS'kilo de'
p5
aS'fraises des bois'
p6
aa(lp7
S'2.0'
p8
aS'litres de'
p9
aS'vodka'
p10
aa(lp11
S'0.5'
p12
aS'None'
p13
aS'b\xc3\xa2tons de cannelle'
p14
aa(lp15
S'500.0'
p16
aS'grammes de'
p17
aS'sucre'
p18
aaa.