(lp0
S'Tequila Sunrise Pop'
p1
aF3.4
aI109
a(lp2
(lp3
S'20.0'
p4
aS'cl de'
p5
aS"jus d'oranges"
p6
aa(lp7
S'0.5'
p8
aS"cuill\xc3\xa8re \xc3\xa0 caf\xc3\xa9 d'"
p9
aS'alginate de sodium'
p10
aa(lp11
S'50.0'
p12
aS"cl d'"
p13
aS'eau'
p14
aa(lp15
S'15.0'
p16
aS'grammes de'
p17
aS'lactate de calcium'
p18
aa(lp19
S'3.0'
p20
aS'cl de'
p21
aS'sirop de grenadine'
p22
aa(lp23
S'5.0'
p24
aS'cl de'
p25
aS'tequila'
p26
aaa.