(lp0
S'Mickado'
p1
aF3.5
aI26
a(lp2
(lp3
S'0.5'
p4
aS'cl de'
p5
aS'sirop de sucre de canne'
p6
aa(lp7
S'0.5'
p8
aS'cl de'
p9
aS'citrons verts'
p10
aa(lp11
S'0.5'
p12
aS'cl de'
p13
aS'sirop de grenadine'
p14
aa(lp15
S'10.0'
p16
aS'cl de'
p17
aS"jus d'oranges"
p18
aa(lp19
S'3.0'
p20
aS'cl de'
p21
aS'liqueur de lychees (soho, litchao)'
p22
aa(lp23
S'4.0'
p24
aS'cl de'
p25
aS'vodka'
p26
aaa.