(lp0
S'Panam'
p1
aF2.9
aI9
a(lp2
(lp3
S'None'
p4
aS'None'
p5
aS'champagne'
p6
aa(lp7
S'1.0'
p8
aS'jus'
p9
aS'citrons'
p10
aa(lp11
S'1.0'
p12
aS'cl de'
p13
aS'rhum blanc'
p14
aa(lp15
S'2.0'
p16
aS'cl de'
p17
aS'triple sec (cointreau, grand marnier)'
p18
aaa.