(lp0
S'Cherry Brandy'
p1
aF2.7
aI3
a(lp2
(lp3
S'2.5'
p4
aS'cl de'
p5
aS'kirsch'
p6
aa(lp7
S'10.0'
p8
aS'grammes de'
p9
aS'cerises aigres'
p10
aa(lp11
S'10.0'
p12
aS'grammes de'
p13
aS'cerises noires'
p14
aa(lp15
S'6.25'
p16
aS'grammes de'
p17
aS'framboises'
p18
aa(lp19
S'0.05'
p20
aS'b\xc3\xa2ton de'
p21
aS'cannelle'
p22
aa(lp23
S'0.15'
p24
aS'None'
p25
aS'clous de girofle'
p26
aa(lp27
S'0.05'
p28
aS'kilo de'
p29
aS'sucre'
p30
aaa.