(lp0
S'Charlotte libre'
p1
aF3.0
aI2
a(lp2
(lp3
S'5.0'
p4
aS'cl de'
p5
aS'vodka'
p6
aa(lp7
S'15.0'
p8
aS'cl de'
p9
aS'cola (coca cola, pepsi)'
p10
aa(lp11
S'3.0'
p12
aS'tours de moulin de'
p13
aS'poivre de cayenne'
p14
aaa.