(lp0
S'Tila calda'
p1
aF3.0
aI1
a(lp2
(lp3
S'0.5'
p4
aS'None'
p5
aS'rhum ambr\xc3\xa9'
p6
aa(lp7
S'0.5'
p8
aS'None'
p9
aS'tilleul'
p10
aa(lp11
S'3.0'
p12
aS'rondelles de'
p13
aS'citrons verts'
p14
aaa.