(lp0
S'Petites fleurs'
p1
aF3.0
aI2
a(lp2
(lp3
S'3.5'
p4
aS'cl de'
p5
aS'vodka'
p6
aa(lp7
S'2.0'
p8
aS'cl de'
p9
aS'liqueur de caf\xc3\x83\xc2\xa9 (kahlua, marie brizard)'
p10
aa(lp11
S'1.5'
p12
aS'cl de'
p13
aS'liqueur de p\xc3\x83\xc2\xaaches'
p14
aaa.