(lp0
S'Americano'
p1
aF4.2
aI682
a(lp2
(lp3
S'2.0'
p4
aS'cl de'
p5
aS'vermouth rouge (martini, cinzano)'
p6
aa(lp7
S'4.0'
p8
aS'cl de'
p9
aS'campari'
p10
aa(lp11
S'None'
p12
aS'None'
p13
aS'eau gazeuse (perrier, salvetat)'
p14
aaa.