(lp0
S'Apple Supreme'
p1
aF3.5
aI2
a(lp2
(lp3
S'3.0'
p4
aS'cl de'
p5
aS'liqueur de pommes (manzana, manzanita)'
p6
aa(lp7
S'2.0'
p8
aS'cl de'
p9
aS'cr\xc3\xa8me de fraises'
p10
aa(lp11
S'6.0'
p12
aS'cl de'
p13
aS'jus de bananes'
p14
aa(lp15
S'6.0'
p16
aS'cl de'
p17
aS'jus de pommes'
p18
aa(lp19
S'1.0'
p20
aS'cl de'
p21
aS'jus de citrons'
p22
aa(lp23
S'1.5'
p24
aS'cl de'
p25
aS'sirop de vanille'
p26
aaa.