(lp0
S'Le Truc Rouge'
p1
aF3.8
aI9
a(lp2
(lp3
S'4.0'
p4
aS'cl de'
p5
aS'vodka rouge (eristoff)'
p6
aa(lp7
S'1.0'
p8
aS'cl de'
p9
aS"sirop d'\xc3\xa9pices (spicy)"
p10
aa(lp11
S'1.0'
p12
aS'cl de'
p13
aS'sirop de figues'
p14
aa(lp15
S'None'
p16
aS'None'
p17
aS'bi\xc3\xa8re framboise'
p18
aaa.