(lp0
S'Gin-Menthe'
p1
aF4.5
aI2
a(lp2
(lp3
S'1.0'
p4
aS'sachet de'
p5
aS'menthe'
p6
aa(lp7
S'1.0'
p8
aS'verre \xc3\xa0 liqueur de'
p9
aS'gin'
p10
aa(lp11
S'1.0'
p12
aS'None'
p13
aS'citrons vert'
p14
aa(lp15
S'None'
p16
aS'None'
p17
aS'sucre'
p18
aa(lp19
S'None'
p20
aS'None'
p21
aS'eau gazeuse (perrier, salvetat)'
p22
aaa.