(lp0
S'La fra\xc3\xaeche de madagascar'
p1
aF2.5
aI6
a(lp2
(lp3
S'3.0'
p4
aS'cl de'
p5
aS"liqueur d'abricots (abricot brandy)"
p6
aa(lp7
S'1.0'
p8
aS'cl de'
p9
aS'liqueur de menthe blanche (get 31)'
p10
aa(lp11
S'1.0'
p12
aS'cl de'
p13
aS'liqueur de vanille'
p14
aa(lp15
S'1.0'
p16
aS'cl de'
p17
aS'sirop de figues'
p18
aa(lp19
S'1.0'
p20
aS'cl de'
p21
aS'jus de citrons'
p22
aaa.