(lp0
S'Le Nom de la Rose'
p1
aF4.0
aI2
a(lp2
(lp3
S'0.2'
p4
aS'None'
p5
aS'sirop de grenadine'
p6
aa(lp7
S'3.0'
p8
aS'pinc\xc3\xa9es de'
p9
aS'sucre roux (cassonade)'
p10
aa(lp11
S'0.25'
p12
aS'de'
p13
aS'vodka'
p14
aa(lp15
S'0.2'
p16
aS'de'
p17
aS'vermouth blanc (martini, cinzano)'
p18
aa(lp19
S'10.0'
p20
aS'gouttes de'
p21
aS'sauce worcestershire'
p22
aa(lp23
S'4.0'
p24
aS'gouttes de'
p25
aS'tabasco'
p26
aa(lp27
S'None'
p28
aS'None'
p29
aS'lait'
p30
aaa.