(lp0
S'Mudsline'
p1
aF4.0
aI2
a(lp2
(lp3
S'1.0'
p4
aS'volume de'
p5
aS'vodka'
p6
aa(lp7
S'1.0'
p8
aS'volume de'
p9
aS'liqueur de caf\xc3\xa9 (kahlua, marie brizard)'
p10
aa(lp11
S'1.0'
p12
aS'volume de'
p13
aS'cr\xc3\xa8me de whisky (baileys)'
p14
aaa.