(lp0
S'Red baron'
p1
aF4.0
aI3
a(lp2
(lp3
S'3.5'
p4
aS'cl de'
p5
aS'cr\xc3\xa8me de p\xc3\xaache'
p6
aa(lp7
S'2.0'
p8
aS'cl de'
p9
aS'vodka'
p10
aa(lp11
S'1.5'
p12
aS'cl de'
p13
aS'jus de citrons'
p14
aa(lp15
S'0.5'
p16
aS'cl de'
p17
aS'cr\xc3\xa8me de cassis'
p18
aaa.