(lp0
S'Champagne julep'
p1
aF2.3
aI4
a(lp2
(lp3
S'None'
p4
aS'None'
p5
aS'champagne'
p6
aa(lp7
S'2.0'
p8
aS'cl de'
p9
aS'cognac'
p10
aa(lp11
S'3.0'
p12
aS'None'
p13
aS'feuilles de menthe'
p14
aa(lp15
S'0.5'
p16
aS'cl de'
p17
aS'sirop de sucre de canne'
p18
aaa.