(lp0
S'Rodge'
p1
aF3.6
aI68
a(lp2
(lp3
S'2.0'
p4
aS'cl de'
p5
aS'sirop de fraises'
p6
aa(lp7
S'10.0'
p8
aS'cl de'
p9
aS"jus d'ananas"
p10
aa(lp11
S'12.0'
p12
aS'cl de'
p13
aS'bi\xc3\xa8re desperados'
p14
aaa.