(lp0
S'Elfreda'
p1
aF2.7
aI3
a(lp2
(lp3
S'0.8'
p4
aS'de'
p5
aS'marsala'
p6
aa(lp7
S'0.2'
p8
aS'de'
p9
aS'cognac'
p10
aa(lp11
S'1.0'
p12
aS"jaune d'"
p13
aS'oeufs'
p14
aa(lp15
S'0.5'
p16
aS'cl de'
p17
aS'sirop de miel'
p18
aaa.