(lp0
S'Spanish eyes'
p1
aF3.8
aI6
a(lp2
(lp3
S'4.0'
p4
aS'cl de'
p5
aS'licor 43'
p6
aa(lp7
S'6.0'
p8
aS'cl de'
p9
aS"jus d'ananas"
p10
aa(lp11
S'2.0'
p12
aS'cl de'
p13
aS'cr\xc3\xa8me chantilly'
p14
aa(lp15
S'1.0'
p16
aS'cl de'
p17
aS'brandy'
p18
aa(lp19
S'6.0'
p20
aS'cl de'
p21
aS'jus de fruit de la passion (maracuja)'
p22
aaa.