(lp0
S'Chive'
p1
aF2.6
aI5
a(lp2
(lp3
S'1.5'
p4
aS'cl de'
p5
aS'vermouth dry (martini, noilly prat)'
p6
aa(lp7
S'1.0'
p8
aS'cl de'
p9
aS'liqueur de gentiane'
p10
aa(lp11
S'1.0'
p12
aS'cl de'
p13
aS'porto blanc'
p14
aaa.