(lp0
S'Porto cobbler'
p1
aF4.1
aI8
a(lp2
(lp3
S'6.0'
p4
aS'cl de'
p5
aS'porto rouge'
p6
aa(lp7
S'3.0'
p8
aS'traits de'
p9
aS"jus d'oranges"
p10
aa(lp11
S'0.5'
p12
aS'cl de'
p13
aS'marasquin'
p14
aa(lp15
S'3.0'
p16
aS'traits de'
p17
aS'triple sec (cointreau, grand marnier)'
p18
aaa.