(lp0
S'Saint-trop baie'
p1
aF4.5
aI4
a(lp2
(lp3
S'3.5'
p4
aS'cl de'
p5
aS'vodka'
p6
aa(lp7
S'1.5'
p8
aS'cl de'
p9
aS'liqueur de fraises'
p10
aa(lp11
S'0.5'
p12
aS'cl de'
p13
aS'eau-de-vie de framboises'
p14
aa(lp15
S'1.5'
p16
aS'cl de'
p17
aS'vermouth rouge (martini, cinzano)'
p18
aaa.