(lp0
S'Swedish Girl'
p1
aF2.5
aI2
a(lp2
(lp3
S'2.5'
p4
aS'cl de'
p5
aS'licor beir\xc3\xa3o'
p6
aa(lp7
S'2.5'
p8
aS'cl de'
p9
aS"jus d'oranges"
p10
aa(lp11
S'1.0'
p12
aS'cl de'
p13
aS'brandy'
p14
aa(lp15
S'None'
p16
aS'None'
p17
aS'vin mousseux'
p18
aa(lp19
S'None'
p20
aS'un trait de'
p21
aS'sirop de grenadine'
p22
aaa.