(lp0
S'Blue Ivan'
p1
aF4.4
aI12
a(lp2
(lp3
S'0.2'
p4
aS'None'
p5
aS'vodka'
p6
aa(lp7
S'0.2'
p8
aS'None'
p9
aS'cura\xc3\xa7ao bleu'
p10
aa(lp11
S'None'
p12
aS'compl\xc3\xa9ter de'
p13
aS'gini'
p14
aaa.