(lp0
S'Tiger lili'
p1
aF3.0
aI1
a(lp2
(lp3
S'0.5'
p4
aS'cl de'
p5
aS"sirop d'orgeat"
p6
aa(lp7
S'3.0'
p8
aS'cl de'
p9
aS'tequila'
p10
aa(lp11
S'1.0'
p12
aS'cl de'
p13
aS'jus de citrons'
p14
aa(lp15
S'2.0'
p16
aS'cl de'
p17
aS"jus d'oranges"
p18
aa(lp19
S'2.0'
p20
aS'cl de'
p21
aS'triple sec (cointreau, grand marnier)'
p22
aaa.