(lp0
S'Virgin Ginger Beer'
p1
aF3.9
aI7
a(lp2
(lp3
S'150.0'
p4
aS'grammes de'
p5
aS'gingembre'
p6
aa(lp7
S'1.0'
p8
aS"litre d'"
p9
aS'eau'
p10
aa(lp11
S'2.0'
p12
aS'cuill\xc3\xa8res \xc3\xa0 soupe de'
p13
aS'miel'
p14
aa(lp15
S'3.0'
p16
aS"litres d'"
p17
aS'eau gazeuse (perrier, salvetat)'
p18
aaa.