(lp0
S'Saint Smoothie'
p1
aF2.5
aI2
a(lp2
(lp3
S'5.0'
p4
aS'cl de'
p5
aS'pur\xc3\xa9e de p\xc3\xaache'
p6
aa(lp7
S'1.0'
p8
aS'cl de'
p9
aS'sirop de cura\xc3\xa7ao bleu'
p10
aa(lp11
S'4.0'
p12
aS'cl de'
p13
aS'lait'
p14
aa(lp15
S'1.0'
p16
aS'cl de'
p17
aS'sirop de miel'
p18
aaa.