(lp0
S'Rince-cochon'
p1
aF3.0
aI7
a(lp2
(lp3
S'4.0'
p4
aS'cl de'
p5
aS'vin blanc'
p6
aa(lp7
S'1.0'
p8
aS'None'
p9
aS'citron'
p10
aa(lp11
S'4.0'
p12
aS"cl d'"
p13
aS'eau gazeuse (perrier, salvetat)'
p14
aaa.