(lp0
S'Dolce vita'
p1
aF3.4
aI7
a(lp2
(lp3
S'1.5'
p4
aS'cl de'
p5
aS'vermouth dry (martini, noilly prat)'
p6
aa(lp7
S'0.5'
p8
aS'cl de'
p9
aS'angostura bitters'
p10
aa(lp11
S'3.0'
p12
aS'cl de'
p13
aS'gin'
p14
aa(lp15
S'1.5'
p16
aS'cl de'
p17
aS'amaretto'
p18
aaa.