(lp0
S'Th\xc3\xa9 glac\xc3\xa9 au citron'
p1
aF4.0
aI1
a(lp2
(lp3
S'16.6666666667'
p4
aS"cl d'"
p5
aS'eau'
p6
aa(lp7
S'1.0'
p8
aS'sachets de'
p9
aS'th\xc3\xa9'
p10
aa(lp11
S'0.333333333333'
p12
aS'None'
p13
aS'citron'
p14
aa(lp15
S'None'
p16
aS'None'
p17
aS'sucre'
p18
aaa.