(lp0
S'Caribbean cruise'
p1
aF3.8
aI8
a(lp2
(lp3
S'8.0'
p4
aS'cl de'
p5
aS"jus d'ananas"
p6
aa(lp7
S'2.0'
p8
aS'cl de'
p9
aS'vodka'
p10
aa(lp11
S'0.5'
p12
aS'cl de'
p13
aS'rhum blanc'
p14
aa(lp15
S'0.5'
p16
aS'cl de'
p17
aS'liqueur de coco (cocogif, malibu)'
p18
aa(lp19
S'1.0'
p20
aS'cl de'
p21
aS'sirop de grenadine'
p22
aaa.