(lp0
S'Wild thing'
p1
aF3.3
aI6
a(lp2
(lp3
S'1.5'
p4
aS'cl de'
p5
aS'jus de citrons verts'
p6
aa(lp7
S'3.0'
p8
aS'cl de'
p9
aS'jus de cranberry (canneberges)'
p10
aa(lp11
S'3.0'
p12
aS'cl de'
p13
aS'limonade (soda, sprite, 7up)'
p14
aa(lp15
S'4.5'
p16
aS'cl de'
p17
aS'tequila'
p18
aaa.