(lp0
S'Nuit de noces'
p1
aF3.3
aI18
a(lp2
(lp3
S'1.5'
p4
aS'cl de'
p5
aS'b\xc3\xa9n\xc3\xa9dictine'
p6
aa(lp7
S'0.5'
p8
aS'cl de'
p9
aS'cr\xc3\xa8me de cassis'
p10
aa(lp11
S'None'
p12
aS'None'
p13
aS'champagne'
p14
aaa.