(lp0
S'Lamoone'
p1
aF3.0
aI1
a(lp2
(lp3
S'None'
p4
aS'None'
p5
aS'limonade (soda, sprite, 7up)'
p6
aa(lp7
S'None'
p8
aS"jus d'un"
p9
aS'citrons'
p10
aa(lp11
S'2.0'
p12
aS'cl de'
p13
aS'whisky (bourbon, whiskey)'
p14
aa(lp15
S'2.0'
p16
aS'cl de'
p17
aS'vermouth blanc (martini, cinzano)'
p18
aa(lp19
S'2.0'
p20
aS'cl de'
p21
aS'cr\xc3\xa8me de bananes'
p22
aaa.