(lp0
S'Marquise'
p1
aF2.4
aI530
a(lp2
(lp3
S'0.1'
p4
aS'litre de'
p5
aS'vin blanc'
p6
aa(lp7
S'25.0'
p8
aS'grammes de'
p9
aS'sucre'
p10
aa(lp11
S'50.0'
p12
aS'grammes de'
p13
aS'citrons verts'
p14
aa(lp15
S'0.1'
p16
aS'bouteilles de'
p17
aS'vin mousseux'
p18
aaa.