(lp0
S'Rhum caf\xc3\xa9'
p1
aF2.5
aI58
a(lp2
(lp3
S'7.0'
p4
aS'cl de'
p5
aS'rhum blanc'
p6
aa(lp7
S'0.2'
p8
aS'gousses de'
p9
aS'vanille'
p10
aa(lp11
S'1.2'
p12
aS'None'
p13
aS'grains de caf\xc3\xa9'
p14
aa(lp15
S'0.8'
p16
aS'cl de'
p17
aS'sirop de sucre de canne'
p18
aaa.