(lp0
S"Lait de poule \xc3\xa0 l'ancienne"
p1
aF3.7
aI184
a(lp2
(lp3
S'25.0'
p4
aS'grammes de'
p5
aS'sucre'
p6
aa(lp7
S'1.0'
p8
aS"jaune d'"
p9
aS'oeufs'
p10
aa(lp11
S'1.0'
p12
aS'cl de'
p13
aS'armagnac'
p14
aa(lp15
S'10.0'
p16
aS'cl de'
p17
aS'lait'
p18
aa(lp19
S'1.0'
p20
aS'pinc\xc3\xa9e de'
p21
aS'cannelle'
p22
aaa.