(lp0
S'Bloody orange'
p1
aF3.0
aI34
a(lp2
(lp3
S'5.0'
p4
aS'cl de'
p5
aS"jus d'oranges"
p6
aa(lp7
S'5.0'
p8
aS'cl de'
p9
aS'jus de betterave'
p10
aa(lp11
S'5.0'
p12
aS'cl de'
p13
aS'jus de pommes'
p14
aaa.