(lp0
S'Amaretto Coffee'
p1
aF3.4
aI62
a(lp2
(lp3
S'4.0'
p4
aS"cl d'"
p5
aS'amaretto'
p6
aa(lp7
S'None'
p8
aS'None'
p9
aS'cr\xc3\xa8me fra\xc3\xaeche liquide'
p10
aa(lp11
S'None'
p12
aS'None'
p13
aS'caf\xc3\xa9'
p14
aaa.