(lp0
S"La charge d'athos"
p1
aF2.8
aI13
a(lp2
(lp3
S'4.0'
p4
aS'cl de'
p5
aS'pousse rapi\xc3\xa8re'
p6
aa(lp7
S'2.0'
p8
aS'cl de'
p9
aS'nectar de poires'
p10
aa(lp11
S'5.0'
p12
aS'gouttes de'
p13
aS'tabasco'
p14
aa(lp15
S'None'
p16
aS'None'
p17
aS'bi\xc3\xa8re \xc3\xa0 la cerise (kriek)'
p18
aaa.