(lp0
S'D\xc3\xa9sintoxication'
p1
aF2.8
aI12
a(lp2
(lp3
S'1.0'
p4
aS'verre de'
p5
aS'lait'
p6
aa(lp7
S'100.0'
p8
aS'grammes de'
p9
aS'fraises'
p10
aa(lp11
S'0.5'
p12
aS'cl de'
p13
aS'noix de coco r\xc3\xa2p\xc3\xa9e'
p14
aaa.