(lp0
S'French 76'
p1
aF2.7
aI72
a(lp2
(lp3
S'0.5'
p4
aS'cl de'
p5
aS'sirop de sucre de canne'
p6
aa(lp7
S'1.0'
p8
aS'cl de'
p9
aS'vodka'
p10
aa(lp11
S'None'
p12
aS"jus d'1/2"
p13
aS'citrons'
p14
aa(lp15
S'10.0'
p16
aS'cl de'
p17
aS'champagne'
p18
aaa.