(lp0
S'Jack Sour'
p1
aF2.1
aI36
a(lp2
(lp3
S'5.0'
p4
aS'cl de'
p5
aS'whisky (bourbon, whiskey)'
p6
aa(lp7
S'4.0'
p8
aS'cl de'
p9
aS'lime cordial'
p10
aa(lp11
S'1.0'
p12
aS'cl de'
p13
aS'sirop de cerise'
p14
aaa.