(lp0
S'Champagne Violette'
p1
aF3.5
aI34
a(lp2
(lp3
S'0.166666666667'
p4
aS'bouteille de'
p5
aS'champagne'
p6
aa(lp7
S'0.333333333333'
p8
aS"grammes d'"
p9
aS'alginate de sodium'
p10
aa(lp11
S'2.5'
p12
aS'cl de'
p13
aS'sirop de violette'
p14
aa(lp15
S'1.0'
p16
aS'grammes de'
p17
aS'lactate de calcium'
p18
aaa.