(lp0
S'Yaourt \xc3\xa0 boire \xc3\xa0 la p\xc3\xaache'
p1
aF3.0
aI1
a(lp2
(lp3
S'1.0'
p4
aS'None'
p5
aS'yaourt nature'
p6
aa(lp7
S'3.0'
p8
aS'cl de'
p9
aS'lait'
p10
aa(lp11
S'3.0'
p12
aS'cl de'
p13
aS'pur\xc3\xa9e de p\xc3\xaache'
p14
aa(lp15
S'1.0'
p16
aS'cl de'
p17
aS'sirop de sucre de canne'
p18
aaa.