(lp0
S'Manzana Bubble'
p1
aF3.4
aI109
a(lp2
(lp3
S'4.0'
p4
aS'cl de'
p5
aS'liqueur de pommes (manzana, manzanita)'
p6
aa(lp7
S'1.0'
p8
aS'compl\xc3\xa9ment de'
p9
aS'limonade (soda, sprite, 7up)'
p10
aa(lp11
S'1.0'
p12
aS'tomb\xc3\xa9e de'
p13
aS'jus de citrons'
p14
aaa.