(lp0
S'Expresso Martini'
p1
aF4.0
aI5
a(lp2
(lp3
S'1.0'
p4
aS'cl de'
p5
aS'liqueur de cacao blanc'
p6
aa(lp7
S'3.0'
p8
aS'cl de'
p9
aS'liqueur de caf\xc3\x83\xc2\xa9 (kahlua, marie brizard)'
p10
aa(lp11
S'3.0'
p12
aS'cl de'
p13
aS'vodka'
p14
aaa.