(lp0
S'Sirop de cola'
p1
aF2.6
aI13
a(lp2
(lp3
S'50.0'
p4
aS'grammes de'
p5
aS'sucre'
p6
aa(lp7
S'0.2'
p8
aS'None'
p9
aS'oranges'
p10
aa(lp11
S'0.3'
p12
aS'None'
p13
aS'citrons'
p14
aa(lp15
S'0.05'
p16
aS'cuill\xc3\xa8re \xc3\xa0 caf\xc3\xa9 de'
p17
aS'cannelle en poudre'
p18
aa(lp19
S'0.05'
p20
aS'cuill\xc3\xa8re \xc3\xa0 caf\xc3\xa9 de'
p21
aS'noix de muscade'
p22
aa(lp23
S'0.1'
p24
aS"branche d'"
p25
aS'anis \xc3\xa9toil\xc3\xa9'
p26
aa(lp27
S'0.1'
p28
aS'cuill\xc3\xa8re \xc3\xa0 caf\xc3\xa9 de'
p29
aS'fleurs de lavande'
p30
aa(lp31
S'0.2'
p32
aS'cuill\xc3\xa8res \xc3\xa0 caf\xc3\xa9 de'
p33
aS'gingembre'
p34
aa(lp35
S'0.05'
p36
aS'gousse de'
p37
aS'vanille'
p38
aaa.