(lp0
S'Screaming orgasm'
p1
aF4.0
aI34
a(lp2
(lp3
S'3.0'
p4
aS'cl de'
p5
aS'cr\xc3\x83\xc2\xa8me de whisky (baileys)'
p6
aa(lp7
S'3.0'
p8
aS'cl de'
p9
aS'vodka'
p10
aa(lp11
S'3.0'
p12
aS"cl d'"
p13
aS'amaretto'
p14
aa(lp15
S'3.0'
p16
aS'cl de'
p17
aS'liqueur de caf\xc3\x83\xc2\xa9 (kahlua, marie brizard)'
p18
aaa.