(lp0
S'Pattaya'
p1
aF3.5
aI8
a(lp2
(lp3
S'None'
p4
aS'None'
p5
aS'tonic (schweppes)'
p6
aa(lp7
S'4.0'
p8
aS'cl de'
p9
aS'cr\xc3\xa8me de fruit de la passion'
p10
aa(lp11
S'3.0'
p12
aS'cl de'
p13
aS'jus de pamplemousses'
p14
aa(lp15
S'3.0'
p16
aS'cl de'
p17
aS'gin'
p18
aa(lp19
S'1.0'
p20
aS'cl de'
p21
aS'liqueur de fraises'
p22
aaa.