(lp0
S'Tiramisu Cocktail'
p1
aF3.5
aI4
a(lp2
(lp3
S'3.0'
p4
aS'cl de'
p5
aS'vodka'
p6
aa(lp7
S'4.0'
p8
aS'cl de'
p9
aS'liqueur de cacao brun'
p10
aa(lp11
S'3.0'
p12
aS'cl de'
p13
aS'liqueur de caf\xc3\x83\xc2\xa9 (kahlua, marie brizard)'
p14
aa(lp15
S'1.0'
p16
aS'cl de'
p17
aS'sirop de vanille'
p18
aaa.