(lp0
S'Lotus bleu'
p1
aF3.8
aI23
a(lp2
(lp3
S'None'
p4
aS'None'
p5
aS'tonic (schweppes)'
p6
aa(lp7
S'10.0'
p8
aS'cl de'
p9
aS'jus de pamplemousses'
p10
aa(lp11
S'3.0'
p12
aS'cl de'
p13
aS'sirop de menthe'
p14
aaa.