(lp0
S'Impress Me'
p1
aF4.0
aI1
a(lp2
(lp3
S'1.0'
p4
aS'cuill\xc3\xa8re \xc3\xa0 caf\xc3\xa9 de'
p5
aS'sucre'
p6
aa(lp7
S'0.5'
p8
aS'None'
p9
aS'citrons vert'
p10
aa(lp11
S'3.0'
p12
aS'cl de'
p13
aS'pur\xc3\xa9e de fruit de la passion'
p14
aa(lp15
S'3.0'
p16
aS'cl de'
p17
aS'vodka'
p18
aa(lp19
S'3.0'
p20
aS'cl de'
p21
aS'jus de mangues'
p22
aa(lp23
S'1.5'
p24
aS'cl de'
p25
aS'chambord'
p26
aaa.