(lp0
S'Rhum Framboises'
p1
aF3.3
aI30
a(lp2
(lp3
S'35.0'
p4
aS'cl de'
p5
aS'rhum blanc'
p6
aa(lp7
S'150.0'
p8
aS'grammes de'
p9
aS'framboises'
p10
aa(lp11
S'3.0'
p12
aS'cuill\xc3\xa8res \xc3\xa0 soupe de'
p13
aS'sirop de sucre de canne'
p14
aaa.