(lp0
S'Deep Purple'
p1
aF3.1
aI16
a(lp2
(lp3
S'4.0'
p4
aS'cl de'
p5
aS'rhum cubain'
p6
aa(lp7
S'2.0'
p8
aS'cl de'
p9
aS'cr\xc3\xa8me de m\xc3\xbbre'
p10
aa(lp11
S'1.0'
p12
aS'cl de'
p13
aS'liqueur de violette'
p14
aa(lp15
S'4.0'
p16
aS'd\xc3\xa8s de'
p17
aS'citrons verts'
p18
aa(lp19
S'1.0'
p20
aS'cuill\xc3\xa8re de'
p21
aS'sucre roux (cassonade)'
p22
aa(lp23
S'4.0'
p24
aS'feuilles de'
p25
aS'menthe'
p26
aaa.