(lp0
S'Northern Spleen'
p1
aF3.4
aI8
a(lp2
(lp3
S'5.0'
p4
aS'cl de'
p5
aS'vodka'
p6
aa(lp7
S'1.0'
p8
aS'cl de'
p9
aS'sirop de fleurs de sureau'
p10
aa(lp11
S'15.0'
p12
aS'cl de'
p13
aS'tonic (schweppes)'
p14
aaa.