(lp0
S'Casse noisette'
p1
aF3.8
aI9
a(lp2
(lp3
S'2.0'
p4
aS'cl de'
p5
aS'vodka'
p6
aa(lp7
S'2.0'
p8
aS'cl de'
p9
aS'liqueur de caf\xc3\x83\xc2\xa9 (kahlua, marie brizard)'
p10
aa(lp11
S'3.0'
p12
aS'cl de'
p13
aS'sirop de noisette'
p14
aa(lp15
S'2.0'
p16
aS'cl de'
p17
aS'cr\xc3\x83\xc2\xa8me fra\xc3\x83\xc2\xaeche liquide'
p18
aaa.