(lp0
S'Strawberry Beer Margarita'
p1
aF3.0
aI3
a(lp2
(lp3
S'2.0'
p4
aS'cl de'
p5
aS'sirop de fraises'
p6
aa(lp7
S'1.5'
p8
aS'cl de'
p9
aS'lime cordial'
p10
aa(lp11
S'3.0'
p12
aS'cl de'
p13
aS'tequila'
p14
aa(lp15
S'None'
p16
aS'None'
p17
aS'bi\xc3\xa8re'
p18
aaa.