(lp0
S'Red Hope'
p1
aF2.0
aI1
a(lp2
(lp3
S'0.178571428571'
p4
aS'volumes de'
p5
aS'gin'
p6
aa(lp7
S'0.0714285714286'
p8
aS'volumes de'
p9
aS'liqueur de bananes (pisang ambon)'
p10
aa(lp11
S'0.0357142857143'
p12
aS'volumes de'
p13
aS"liqueur d'abricots (abricot brandy)"
p14
aa(lp15
S'0.714285714286'
p16
aS'volumes de'
p17
aS'jus de citrons'
p18
aa(lp19
S'0.5'
p20
aS'cl de'
p21
aS'sirop de fraises'
p22
aaa.