(lp0
S'Rastadrink'
p1
aF4.0
aI1
a(lp2
(lp3
S'None'
p4
aS'None'
p5
aS'rhum blanc'
p6
aa(lp7
S'None'
p8
aS'None'
p9
aS'huiles essentielles'
p10
aa(lp11
S'None'
p12
aS'None'
p13
aS'colorant alimentaire'
p14
aaa.