(lp0
S'Red Lips 2'
p1
aF4.0
aI1
a(lp2
(lp3
S'4.0'
p4
aS'cl de'
p5
aS'vodka'
p6
aa(lp7
S'2.5'
p8
aS'cl de'
p9
aS'jus de framboises'
p10
aa(lp11
S'5.0'
p12
aS'cl de'
p13
aS'jus de raisins rouges'
p14
aa(lp15
S'0.5'
p16
aS'cl de'
p17
aS'jus de fleurs de sureau'
p18
aa(lp19
S'0.5'
p20
aS'cl de'
p21
aS'jus de citrons verts'
p22
aaa.