(lp0
S'Sporting'
p1
aF3.0
aI2
a(lp2
(lp3
S'3.0'
p4
aS'cl de'
p5
aS'vodka'
p6
aa(lp7
S'2.0'
p8
aS'cl de'
p9
aS'triple sec (cointreau, grand marnier)'
p10
aa(lp11
S'0.5'
p12
aS'cl de'
p13
aS'liqueur de coco (cocogif, malibu)'
p14
aa(lp15
S'0.5'
p16
aS'cl de'
p17
aS'liqueur de bananes (pisang ambon)'
p18
aaa.