(lp0
S'Liqueur vieux gar\xc3\xa7on'
p1
aF3.6
aI9
a(lp2
(lp3
S'None'
p4
aS'None'
p5
aS'rhum blanc'
p6
aa(lp7
S'None'
p8
aS'None'
p9
aS'sucre'
p10
aa(lp11
S'None'
p12
aS'None'
p13
aS'fruits de saison'
p14
aaa.