(lp0
S'Rhum Cl\xc3\xa9mentine'
p1
aF3.1
aI23
a(lp2
(lp3
S'75.0'
p4
aS'cl de'
p5
aS'rhum blanc'
p6
aa(lp7
S'15.0'
p8
aS'grammes de'
p9
aS'sucre vanille'
p10
aa(lp11
S'1.0'
p12
aS'cl de'
p13
aS'cl\xc3\xa9mentines'
p14
aaa.