(lp0
S'French 75'
p1
aF3.1
aI159
a(lp2
(lp3
S'1.0'
p4
aS'cl de'
p5
aS'sirop de sucre de canne'
p6
aa(lp7
S'3.0'
p8
aS'cl de'
p9
aS'gin'
p10
aa(lp11
S'2.0'
p12
aS'cl de'
p13
aS'jus de citrons'
p14
aa(lp15
S'None'
p16
aS'None'
p17
aS'champagne'
p18
aaa.