(lp0
S'Cecilia'
p1
aF3.0
aI2
a(lp2
(lp3
S'3.0'
p4
aS'cl de'
p5
aS'rhum blanc'
p6
aa(lp7
S'0.5'
p8
aS'cl de'
p9
aS'amaretto'
p10
aa(lp11
S'1.5'
p12
aS'cl de'
p13
aS'liqueur de coco (cocogif, malibu)'
p14
aa(lp15
S'2.0'
p16
aS'cl de'
p17
aS'liqueur de caf\xc3\x83\xc2\xa9 (kahlua, marie brizard)'
p18
aaa.