(lp0
S'Grog au cidre'
p1
aF3.6
aI14
a(lp2
(lp3
S'20.0'
p4
aS'cl de'
p5
aS'cidre'
p6
aa(lp7
S'10.0'
p8
aS'cl de'
p9
aS'rhum blanc'
p10
aa(lp11
S'1.0'
p12
aS'cl de'
p13
aS'sucre'
p14
aa(lp15
S'0.5'
p16
aS'cl de'
p17
aS'cannelle en poudre'
p18
aaa.