(lp0
S'Sex in corsier'
p1
aF3.3
aI6
a(lp2
(lp3
S'0.5'
p4
aS'cl de'
p5
aS'sirop de grenadine'
p6
aa(lp7
S'20.0'
p8
aS'cl de'
p9
aS"jus d'oranges"
p10
aa(lp11
S'4.0'
p12
aS'cl de'
p13
aS'vodka'
p14
aa(lp15
S'2.0'
p16
aS'cl de'
p17
aS'jus de mangues'
p18
aaa.