(lp0
S'Cartoon'
p1
aF3.0
aI1
a(lp2
(lp3
S'2.0'
p4
aS'cl de'
p5
aS"jus d'ananas"
p6
aa(lp7
S'1.5'
p8
aS'cl de'
p9
aS'cr\xc3\xa8me de p\xc3\xaache'
p10
aa(lp11
S'1.5'
p12
aS'cl de'
p13
aS'gin'
p14
aa(lp15
S'1.5'
p16
aS'cl de'
p17
aS'liqueur de cerises (cherry brandy)'
p18
aa(lp19
S'0.5'
p20
aS'cl de'
p21
aS'sirop de grenadine'
p22
aaa.