(lp0
S'Tom & Jerry'
p1
aF3.0
aI29
a(lp2
(lp3
S'1.0'
p4
aS'None'
p5
aS'oeuf'
p6
aa(lp7
S'2.0'
p8
aS'cl de'
p9
aS'rhum ambr\xc3\xa9'
p10
aa(lp11
S'1.0'
p12
aS'cuill\xc3\xa8re de'
p13
aS'cognac'
p14
aa(lp15
S'0.5'
p16
aS'cl de'
p17
aS'sucre'
p18
aa(lp19
S'3.0'
p20
aS'pinc\xc3\xa9es de'
p21
aS'poivre'
p22
aa(lp23
S'3.0'
p24
aS'pinc\xc3\xa9es de'
p25
aS'cannelle'
p26
aa(lp27
S'2.0'
p28
aS'pinc\xc3\xa9es de'
p29
aS'noix de muscade r\xc3\xa2p\xc3\xa9e'
p30
aaa.