(lp0
S'Tue la mort'
p1
aF3.5
aI108
a(lp2
(lp3
S'2.0'
p4
aS'cl de'
p5
aS'rhum blanc'
p6
aa(lp7
S'2.0'
p8
aS'cl de'
p9
aS'whisky (bourbon, whiskey)'
p10
aa(lp11
S'2.0'
p12
aS'cl de'
p13
aS'tequila'
p14
aa(lp15
S'2.0'
p16
aS'cl de'
p17
aS'vodka'
p18
aa(lp19
S'2.0'
p20
aS'cl de'
p21
aS'chartreuse verte'
p22
aa(lp23
S'2.0'
p24
aS'cl de'
p25
aS'cognac'
p26
aaa.