(lp0
S'Mojito royal'
p1
aF3.1
aI208
a(lp2
(lp3
S'6.0'
p4
aS'cl de'
p5
aS'rhum cubain'
p6
aa(lp7
S'0.5'
p8
aS'None'
p9
aS'citrons vert'
p10
aa(lp11
S'0.5'
p12
aS'cuill\xc3\xa8re \xc3\xa0 soupe de'
p13
aS'sucre roux (cassonade)'
p14
aa(lp15
S'7.0'
p16
aS'feuilles de'
p17
aS'menthe'
p18
aa(lp19
S'None'
p20
aS'None'
p21
aS'champagne'
p22
aaa.