(lp0
S'Glace \xc3\xa0 la fraise'
p1
aF3.7
aI69
a(lp2
(lp3
S'166.666666667'
p4
aS'grammes de'
p5
aS'fraises'
p6
aa(lp7
S'50.0'
p8
aS'grammes de'
p9
aS'sucre glace'
p10
aa(lp11
S'8.33333333333'
p12
aS'cl de'
p13
aS'cr\xc3\xa8me fra\xc3\xaeche liquide'
p14
aaa.