(lp0
S'Electric Iced Tea'
p1
aF3.5
aI154
a(lp2
(lp3
S'1.0'
p4
aS'cl de'
p5
aS'vodka'
p6
aa(lp7
S'1.0'
p8
aS'cl de'
p9
aS'gin'
p10
aa(lp11
S'1.0'
p12
aS'cl de'
p13
aS'rhum blanc'
p14
aa(lp15
S'1.0'
p16
aS'cl de'
p17
aS'tequila'
p18
aa(lp19
S'1.0'
p20
aS'cl de'
p21
aS'triple sec (cointreau, grand marnier)'
p22
aa(lp23
S'2.0'
p24
aS'trait de'
p25
aS'cura\xc3\xa7ao bleu'
p26
aa(lp27
S'None'
p28
aS'None'
p29
aS'limonade (soda, sprite, 7up)'
p30
aaa.