(lp0
S'Knickerbocker'
p1
aF3.2
aI58
a(lp2
(lp3
S'2.0'
p4
aS'cl de'
p5
aS'jus de citrons verts'
p6
aa(lp7
S'2.0'
p8
aS'cuill\xc3\xa8res \xc3\xa0 caf\xc3\xa9 de'
p9
aS'sirop de framboises'
p10
aa(lp11
S'5.0'
p12
aS'cl de'
p13
aS'rhum cubain'
p14
aa(lp15
S'1.5'
p16
aS'cl de'
p17
aS'triple sec (cointreau, grand marnier)'
p18
aaa.