(lp0
S'Mon ricard mangue de rien'
p1
aF3.7
aI18
a(lp2
(lp3
S'0.025'
p4
aS'litres de'
p5
aS'jus de pommes vertes'
p6
aa(lp7
S'10.0'
p8
aS'grammes de'
p9
aS'mangues'
p10
aa(lp11
S'0.05'
p12
aS'bulbes de'
p13
aS'curcuma'
p14
aa(lp15
S'0.075'
p16
aS'b\xc3\xa2tons de'
p17
aS'citronnelle'
p18
aa(lp19
S'1.25'
p20
aS'grammes de'
p21
aS'gingembre'
p22
aa(lp23
S'1.25'
p24
aS'cl de'
p25
aS'jus de citrons'
p26
aa(lp27
S'None'
p28
aS'None'
p29
aS'spiritueux anis\xc3\xa9 (pastis, ricard, pernod)'
p30
aaa.