(lp0
S'Quinquina'
p1
aF2.8
aI25
a(lp2
(lp3
S'0.1'
p4
aS'litres de'
p5
aS'vin rouge'
p6
aa(lp7
S'2.5'
p8
aS"grammes d'\xc3\xa9corces d'"
p9
aS'oranges am\xc3\xa8res'
p10
aa(lp11
S'0.05'
p12
aS'gousse de'
p13
aS'vanille'
p14
aa(lp15
S'0.1'
p16
aS'cuill\xc3\xa8re \xc3\xa0 caf\xc3\xa9 de'
p17
aS'baies de geni\xc3\xa8vre'
p18
aa(lp19
S'0.1'
p20
aS'pinc\xc3\xa9e de'
p21
aS'noix de muscade r\xc3\xa2p\xc3\xa9e'
p22
aa(lp23
S'20.0'
p24
aS'grammes de'
p25
aS'sucre'
p26
aa(lp27
S'1.0'
p28
aS"cl d'"
p29
aS'alcool \xc3\xa0 45\xc2\xb0'
p30
aa(lp31
S'2.5'
p32
aS"grammes d'\xc3\xa9corce de"
p33
aS'quinquina'
p34
aaa.