(lp0
S'Jellab'
p1
aF2.4
aI5
a(lp2
(lp3
S'30.0'
p4
aS'None'
p5
aS'raisins secs'
p6
aa(lp7
S'12.0'
p8
aS'cl de'
p9
aS'jus de citrons'
p10
aa(lp11
S'10.0'
p12
aS"cl d'"
p13
aS'eau'
p14
aa(lp15
S'3.0'
p16
aS'cuill\xc3\xa8res \xc3\xa0 caf\xc3\xa9 de'
p17
aS'sucre'
p18
aaa.