(lp0
S'Chartreusito'
p1
aF4.2
aI6
a(lp2
(lp3
S'1.0'
p4
aS'cuill\xc3\xa8re de'
p5
aS'sucre'
p6
aa(lp7
S'10.0'
p8
aS'zeste de'
p9
aS'menthe'
p10
aa(lp11
S'2.0'
p12
aS'cl de'
p13
aS'citrons verts'
p14
aa(lp15
S'3.0'
p16
aS'cl de'
p17
aS'chartreuse verte'
p18
aa(lp19
S'8.0'
p20
aS'cl de'
p21
aS'limonade (soda, sprite, 7up)'
p22
aaa.