(lp0
S'Sore throat'
p1
aF3.0
aI1
a(lp2
(lp3
S'10.0'
p4
aS"cl d'"
p5
aS'eau'
p6
aa(lp7
S'20.0'
p8
aS'grammes de'
p9
aS'sucre'
p10
aa(lp11
S'50.0'
p12
aS'grammes de'
p13
aS'sirop de miel'
p14
aa(lp15
S'0.5'
p16
aS'None'
p17
aS'citrons vert'
p18
aaa.