(lp0
S'Vin de marjolaine'
p1
aF4.4
aI5
a(lp2
(lp3
S'2.5'
p4
aS'grammes de'
p5
aS'fleurs de marjolaine'
p6
aa(lp7
S'0.05'
p8
aS'litres de'
p9
aS'vin rouge'
p10
aa(lp11
S'0.05'
p12
aS'petit verre de'
p13
aS'vodka'
p14
aa(lp15
S'None'
p16
aS'None'
p17
aS'sucre'
p18
aaa.