(lp0
S'Fabiola'
p1
aF2.9
aI8
a(lp2
(lp3
S'None'
p4
aS'None'
p5
aS'champagne'
p6
aa(lp7
S'2.0'
p8
aS'cl de'
p9
aS'cognac'
p10
aa(lp11
S'2.0'
p12
aS'cl de'
p13
aS'cr\xc3\xa8me de p\xc3\xaache de vigne'
p14
aa(lp15
S'3.0'
p16
aS'cl de'
p17
aS'nectar de p\xc3\xaaches'
p18
aaa.