(lp0
S'Sirop de noix de coco'
p1
aF4.0
aI11
a(lp2
(lp3
S'4.0'
p4
aS"cl d'"
p5
aS'eau'
p6
aa(lp7
S'30.0'
p8
aS'grammes de'
p9
aS'noix de coco r\xc3\xa2p\xc3\xa9e'
p10
aa(lp11
S'40.0'
p12
aS'grammes de'
p13
aS'sucre'
p14
aaa.