(lp0
S'Batida de cerveja'
p1
aF3.1
aI7
a(lp2
(lp3
S'75.0'
p4
aS'cl de'
p5
aS'bi\xc3\xa8re'
p6
aa(lp7
S'400.0'
p8
aS'grammes de'
p9
aS'lait concentr\xc3\xa9 sucr\xc3\xa9'
p10
aa(lp11
S'50.0'
p12
aS'cl de'
p13
aS'cacha\xc3\xa7a'
p14
aaa.