(lp0
S'Mint chocolate'
p1
aF4.0
aI1
a(lp2
(lp3
S'3.0'
p4
aS'cl de'
p5
aS'vodka'
p6
aa(lp7
S'3.0'
p8
aS'cl de'
p9
aS'sirop de chocolat blanc'
p10
aa(lp11
S'3.0'
p12
aS'cl de'
p13
aS'liqueur de menthe blanche (get 31)'
p14
aa(lp15
S'1.0'
p16
aS'cl de'
p17
aS'lait'
p18
aaa.