(lp0
S'Darling'
p1
aF3.7
aI3
a(lp2
(lp3
S'None'
p4
aS'jus'
p5
aS'pommes'
p6
aa(lp7
S'4.0'
p8
aS'cl de'
p9
aS'calvados'
p10
aa(lp11
S'3.0'
p12
aS'cl de'
p13
aS'liqueur de cerises (cherry brandy)'
p14
aaa.