(lp0
S'Up-To-Date'
p1
aF2.5
aI2
a(lp2
(lp3
S'1.0'
p4
aS'cl de'
p5
aS'angostura bitters'
p6
aa(lp7
S'1.0'
p8
aS'cl de'
p9
aS'triple sec (cointreau, grand marnier)'
p10
aa(lp11
S'4.0'
p12
aS'cl de'
p13
aS'kirsch'
p14
aa(lp15
S'4.0'
p16
aS'cl de'
p17
aS'whisky (bourbon, whiskey)'
p18
aaa.