(lp0
S'Lychee Martini 2'
p1
aF3.4
aI60
a(lp2
(lp3
S'6.0'
p4
aS'cl de'
p5
aS'liqueur de lychees (soho, litchao)'
p6
aa(lp7
S'3.0'
p8
aS'cl de'
p9
aS'vodka'
p10
aa(lp11
S'1.0'
p12
aS'cl de'
p13
aS'jus de lychees (litchis)'
p14
aaa.