(lp0
S'General lee'
p1
aF2.6
aI7
a(lp2
(lp3
S'6.0'
p4
aS'cl de'
p5
aS'whisky (bourbon, whiskey)'
p6
aa(lp7
S'2.0'
p8
aS'cl de'
p9
aS'porto rouge'
p10
aa(lp11
S'2.0'
p12
aS'cl de'
p13
aS"jus d'ananas"
p14
aa(lp15
S'0.5'
p16
aS'cl de'
p17
aS'liqueur de fraises'
p18
aa(lp19
S'0.5'
p20
aS'cl de'
p21
aS'jus de citrons'
p22
aaa.