(lp0
S'Oin-oin'
p1
aF4.0
aI4
a(lp2
(lp3
S'1.0'
p4
aS'filet de'
p5
aS'vinaigre'
p6
aa(lp7
S'4.0'
p8
aS'cl de'
p9
aS'liqueur de lychees (soho, litchao)'
p10
aa(lp11
S'2.0'
p12
aS'cl de'
p13
aS"jus d'oranges"
p14
aaa.