(lp0
S'Coco Cup'
p1
aF3.8
aI26
a(lp2
(lp3
S'1.5'
p4
aS'cl de'
p5
aS'tequila'
p6
aa(lp7
S'0.5'
p8
aS'cl de'
p9
aS'triple sec (cointreau, grand marnier)'
p10
aa(lp11
S'2.5'
p12
aS'cl de'
p13
aS"jus d'ananas"
p14
aa(lp15
S'2.5'
p16
aS'cl de'
p17
aS'jus de pommes'
p18
aa(lp19
S'1.25'
p20
aS'cl de'
p21
aS'jus de fruit de la passion (maracuja)'
p22
aa(lp23
S'1.25'
p24
aS'cl de'
p25
aS'lait de coco'
p26
aa(lp27
S'0.25'
p28
aS'cl de'
p29
aS'extrait de vanille'
p30
aaa.