(lp0
S'Opium'
p1
aF3.4
aI7
a(lp2
(lp3
S'6.0'
p4
aS'cl de'
p5
aS"jus d'oranges"
p6
aa(lp7
S'6.0'
p8
aS'cl de'
p9
aS"jus d'ananas"
p10
aa(lp11
S'3.0'
p12
aS'cl de'
p13
aS'vodka'
p14
aa(lp15
S'1.0'
p16
aS'trait de'
p17
aS'sirop de roses'
p18
aaa.