(lp0
S"Charlie's"
p1
aF4.0
aI1
a(lp2
(lp3
S'2.0'
p4
aS'cl de'
p5
aS'triple sec (cointreau, grand marnier)'
p6
aa(lp7
S'1.5'
p8
aS'cl de'
p9
aS'jus de citrons'
p10
aa(lp11
S'0.5'
p12
aS'cl de'
p13
aS'liqueur de bananes (pisang ambon)'
p14
aaa.