(lp0
S'Vin de citron'
p1
aF3.4
aI136
a(lp2
(lp3
S'1.5'
p4
aS'morceaux de'
p5
aS'sucre'
p6
aa(lp7
S'0.1'
p8
aS'verres de'
p9
aS'vodka'
p10
aa(lp11
S'0.1'
p12
aS'litres de'
p13
aS'vin blanc'
p14
aa(lp15
S'0.3'
p16
aS'None'
p17
aS'citrons'
p18
aaa.