(lp0
S'Opera'
p1
aF3.7
aI3
a(lp2
(lp3
S'1.0'
p4
aS'cl de'
p5
aS'gin'
p6
aa(lp7
S'0.5'
p8
aS'cl de'
p9
aS'sirop de fraises'
p10
aa(lp11
S'0.5'
p12
aS'cl de'
p13
aS'cr\xc3\xa8me de p\xc3\xaache de vigne'
p14
aa(lp15
S'1.0'
p16
aS'cl de'
p17
aS'liqueur de fraises'
p18
aa(lp19
S'3.0'
p20
aS'cl de'
p21
aS"jus d'ananas"
p22
aaa.