(lp0
S'Paresse'
p1
aF4.0
aI1
a(lp2
(lp3
S'None'
p4
aS'None'
p5
aS"jus d'oranges"
p6
aa(lp7
S'4.0'
p8
aS'cl de'
p9
aS'whisky ambr\xc3\xa9'
p10
aa(lp11
S'4.0'
p12
aS'cl de'
p13
aS'whisky (bourbon, whiskey)'
p14
aa(lp15
S'2.0'
p16
aS'cl de'
p17
aS'triple sec (cointreau, grand marnier)'
p18
aaa.