(lp0
S'Violetta'
p1
aF4.3
aI4
a(lp2
(lp3
S'0.25'
p4
aS'volumes de'
p5
aS"liqueur d'anis"
p6
aa(lp7
S'0.25'
p8
aS'volumes de'
p9
aS'parfait amour'
p10
aa(lp11
S'0.5'
p12
aS'volumes de'
p13
aS"jus d'ananas"
p14
aa(lp15
S'0.5'
p16
aS'cl de'
p17
aS'sirop de grenadine'
p18
aa(lp19
S'None'
p20
aS'None'
p21
aS'limonade (soda, sprite, 7up)'
p22
aaa.