(lp0
S'Normandie-Niemen'
p1
aF2.8
aI9
a(lp2
(lp3
S'2.0'
p4
aS'cl de'
p5
aS'calvados'
p6
aa(lp7
S'1.0'
p8
aS"cl d'"
p9
aS'amaretto'
p10
aa(lp11
S'2.0'
p12
aS'cl de'
p13
aS'liqueur de griotte'
p14
aa(lp15
S'7.0'
p16
aS'cl de'
p17
aS'cidre'
p18
aaa.