(lp0
S'Blue worm'
p1
aF3.5
aI6
a(lp2
(lp3
S'3.0'
p4
aS'cl de'
p5
aS'cura\xc3\xa7ao bleu'
p6
aa(lp7
S'3.0'
p8
aS'cl de'
p9
aS'cr\xc3\xa8me de whisky (baileys)'
p10
aa(lp11
S'3.0'
p12
aS'cl de'
p13
aS'tequila'
p14
aaa.