(lp0
S'Nutellatini'
p1
aF3.6
aI9
a(lp2
(lp3
S'2.0'
p4
aS'cl de'
p5
aS'cr\xc3\xa8me de whisky (baileys)'
p6
aa(lp7
S'3.0'
p8
aS'cl de'
p9
aS'liqueur de noisettes'
p10
aa(lp11
S'3.0'
p12
aS'cl de'
p13
aS'liqueur de cacao brun'
p14
aa(lp15
S'4.0'
p16
aS'cl de'
p17
aS'vodka vanille'
p18
aaa.