(lp0
S'Johnny Cocktail'
p1
aF4.5
aI2
a(lp2
(lp3
S'0.5'
p4
aS'cl de'
p5
aS'spiritueux anis\xc3\xa9 (pastis, ricard, pernod)'
p6
aa(lp7
S'2.0'
p8
aS'cl de'
p9
aS'triple sec (cointreau, grand marnier)'
p10
aa(lp11
S'4.0'
p12
aS'cl de'
p13
aS'gin \xc3\xa0 la prunelle'
p14
aaa.