(lp0
S'Rhum-orange grog'
p1
aF2.0
aI1
a(lp2
(lp3
S'None'
p4
aS'None'
p5
aS'eau'
p6
aa(lp7
S'3.0'
p8
aS'cl de'
p9
aS'rhum blanc'
p10
aa(lp11
S'2.0'
p12
aS'cl de'
p13
aS"infusion de fleurs d'oranger"
p14
aa(lp15
S'0.5'
p16
aS'cl de'
p17
aS'sucre vanill\xc3\xa9'
p18
aaa.