(lp0
S'Vinho quente'
p1
aF3.0
aI5
a(lp2
(lp3
S'2.0'
p4
aS'cl de'
p5
aS'jus de citrons'
p6
aa(lp7
S'15.0'
p8
aS'cl de'
p9
aS'vin rouge'
p10
aa(lp11
S'2.0'
p12
aS'pinc\xc3\xa9es de'
p13
aS'cannelle'
p14
aa(lp15
S'3.0'
p16
aS'cl de'
p17
aS'licor beir\xc3\xa3o'
p18
aaa.