(lp0
S'Liqueur de gratte-cul'
p1
aF3.3
aI9
a(lp2
(lp3
S'25.0'
p4
aS'grammes de'
p5
aS"baies d'\xc3\xa9glantine"
p6
aa(lp7
S'2.0'
p8
aS"cl d'"
p9
aS'alcool \xc3\xa0 90\xc2\xb0'
p10
aa(lp11
S'0.75'
p12
aS"grammes d'"
p13
aS'amandes douces'
p14
aa(lp15
S'25.0'
p16
aS'grammes de'
p17
aS'sucre'
p18
aa(lp19
S'2.5'
p20
aS"cl d'"
p21
aS'eau'
p22
aaa.