(lp0
S'Le delice'
p1
aF3.0
aI3
a(lp2
(lp3
S'None'
p4
aS'None'
p5
aS'ginger ale (canada dry)'
p6
aa(lp7
S'60.0'
p8
aS'grammes de'
p9
aS'melons'
p10
aa(lp11
S'1.0'
p12
aS'boule de'
p13
aS"sorbet \xc3\xa0 l'orange"
p14
aa(lp15
S'60.0'
p16
aS'grammes de'
p17
aS'fraises'
p18
aaa.