(lp0
S'Liqueur de caf\xc3\xa9'
p1
aF3.0
aI118
a(lp2
(lp3
S'6.0'
p4
aS'grammes de'
p5
aS'caf\xc3\xa9 en grains'
p6
aa(lp7
S'1.0'
p8
aS'cl de'
p9
aS'sirop de sucre de canne'
p10
aa(lp11
S'0.05'
p12
aS'litre de'
p13
aS'vodka'
p14
aa(lp15
S'0.05'
p16
aS'gousse de'
p17
aS'vanille'
p18
aaa.