(lp0
S'Gap Vodka'
p1
aF3.7
aI19
a(lp2
(lp3
S'3.0'
p4
aS'cl de'
p5
aS'vodka'
p6
aa(lp7
S'17.0'
p8
aS'cl de'
p9
aS'cola (coca cola, pepsi)'
p10
aa(lp11
S'1.0'
p12
aS'cl de'
p13
aS'sirop de violette'
p14
aaa.