(lp0
S"Warday's cocktail"
p1
aF4.0
aI2
a(lp2
(lp3
S'4.0'
p4
aS'cl de'
p5
aS'gin'
p6
aa(lp7
S'3.0'
p8
aS'cl de'
p9
aS'eau-de-vie de pommes'
p10
aa(lp11
S'3.0'
p12
aS'cl de'
p13
aS'vermouth blanc (martini, cinzano)'
p14
aa(lp15
S'1.0'
p16
aS'cl de'
p17
aS'chartreuse verte'
p18
aaa.