(lp0
S'Novillada'
p1
aF3.3
aI4
a(lp2
(lp3
S'None'
p4
aS'None'
p5
aS"soda \xc3\xa0 l'orange (orangina)"
p6
aa(lp7
S'0.5'
p8
aS'cl de'
p9
aS'sirop de fraises'
p10
aa(lp11
S'2.5'
p12
aS'cl de'
p13
aS'tequila'
p14
aa(lp15
S'2.5'
p16
aS'cl de'
p17
aS"liqueur d'abricots (abricot brandy)"
p18
aa(lp19
S'1.0'
p20
aS'cl de'
p21
aS'jus de citrons'
p22
aaa.