(lp0
S'Erotika'
p1
aF1.7
aI3
a(lp2
(lp3
S'3.0'
p4
aS'cl de'
p5
aS'armagnac'
p6
aa(lp7
S'1.5'
p8
aS'cl de'
p9
aS'liqueur de fraises'
p10
aa(lp11
S'1.5'
p12
aS'cl de'
p13
aS'jus de citrons verts'
p14
aa(lp15
S'1.5'
p16
aS'cl de'
p17
aS"jus d'ananas"
p18
aaa.