(lp0
S'Tonic mojito'
p1
aF3.7
aI9
a(lp2
(lp3
S'5.0'
p4
aS'cl de'
p5
aS'gin'
p6
aa(lp7
S'3.0'
p8
aS'cl de'
p9
aS'jus de pamplemousses'
p10
aa(lp11
S'6.0'
p12
aS'cl de'
p13
aS'tonic (schweppes)'
p14
aa(lp15
S'15.0'
p16
aS'cl de'
p17
aS'feuilles de menthe'
p18
aa(lp19
S'0.5'
p20
aS'cl de'
p21
aS'citrons verts'
p22
aa(lp23
S'0.5'
p24
aS'cuill\xc3\xa8re de'
p25
aS'cassonade'
p26
aaa.