(lp0
S'Danseuse divine'
p1
aF3.4
aI404
a(lp2
(lp3
S'10.0'
p4
aS'cl de'
p5
aS'jus de mangues'
p6
aa(lp7
S'5.0'
p8
aS'cl de'
p9
aS'jus de poires'
p10
aa(lp11
S'2.0'
p12
aS'cl de'
p13
aS'jus de citrons verts'
p14
aa(lp15
S'2.0'
p16
aS'cl de'
p17
aS'sirop de cassis'
p18
aaa.