(lp0
S'Grandpa is alive'
p1
aF3.4
aI11
a(lp2
(lp3
S'1.0'
p4
aS'mesure de'
p5
aS'liqueur de caf\xc3\xa9 (kahlua, marie brizard)'
p6
aa(lp7
S'1.0'
p8
aS'mesure de'
p9
aS'vodka'
p10
aa(lp11
S'1.0'
p12
aS'mesure de'
p13
aS'amaretto'
p14
aaa.