(lp0
S'White Wedding'
p1
aF3.4
aI13
a(lp2
(lp3
S'0.285714285714'
p4
aS'volumes de'
p5
aS'rhum ambr\xc3\xa9'
p6
aa(lp7
S'0.285714285714'
p8
aS'volumes de'
p9
aS'triple sec (cointreau, grand marnier)'
p10
aa(lp11
S'0.142857142857'
p12
aS'volumes de'
p13
aS'amaretto'
p14
aa(lp15
S'0.142857142857'
p16
aS'volumes de'
p17
aS'sirop de caramel'
p18
aa(lp19
S'0.142857142857'
p20
aS'volumes de'
p21
aS'cr\xc3\xa8me fra\xc3\xaeche liquide'
p22
aaa.