(lp0
S'Mireille'
p1
aF4.0
aI5
a(lp2
(lp3
S'0.5'
p4
aS'grammes de'
p5
aS'citrons verts'
p6
aa(lp7
S'6.0'
p8
aS'pinc\xc3\xa9es de'
p9
aS'menthe'
p10
aa(lp11
S'6.0'
p12
aS'cl de'
p13
aS'vermouth blanc (martini, cinzano)'
p14
aa(lp15
S'6.0'
p16
aS'cl de'
p17
aS"jus d'abricots"
p18
aa(lp19
S'3.0'
p20
aS'cl de'
p21
aS'jus de pommes'
p22
aaa.