(lp0
S'Santa-fe'
p1
aF4.7
aI3
a(lp2
(lp3
S'1.0'
p4
aS'cl de'
p5
aS'cr\xc3\xa8me de noisette'
p6
aa(lp7
S'2.0'
p8
aS'cl de'
p9
aS'cognac'
p10
aa(lp11
S'2.0'
p12
aS'cl de'
p13
aS'cr\xc3\xa8me fra\xc3\xaeche liquide'
p14
aa(lp15
S'2.0'
p16
aS'cl de'
p17
aS'cr\xc3\xa8me de marron'
p18
aaa.