(lp0
S'3M'
p1
aF3.7
aI3
a(lp2
(lp3
S'2.0'
p4
aS'cl de'
p5
aS'eau-de-vie de mirabelles'
p6
aa(lp7
S'2.0'
p8
aS'cl de'
p9
aS"marsala \xc3\xa0 l'orange"
p10
aa(lp11
S'2.0'
p12
aS'cl de'
p13
aS'vermouth blanc (martini, cinzano)'
p14
aaa.