(lp0
S'Sirop de pamplemousses'
p1
aF3.4
aI5
a(lp2
(lp3
S'0.2'
p4
aS'None'
p5
aS'pamplemousses'
p6
aa(lp7
S'0.0333333333333'
p8
aS'kilo de'
p9
aS'sucre'
p10
aa(lp11
S'0.0333333333333'
p12
aS'None'
p13
aS'citron'
p14
aaa.