(lp0
S'Martinic'
p1
aF3.6
aI59
a(lp2
(lp3
S'3.0'
p4
aS'feuilles de'
p5
aS'basilic'
p6
aa(lp7
S'5.0'
p8
aS'cl de'
p9
aS'gin'
p10
aa(lp11
S'1.0'
p12
aS'trait de'
p13
aS'rhum blanc'
p14
aa(lp15
S'1.0'
p16
aS"trait d'"
p17
aS'angostura orange bitters'
p18
aaa.