(lp0
S'Martini Fresh'
p1
aF4.2
aI5
a(lp2
(lp3
S'1.5'
p4
aS'cl de'
p5
aS'sirop de fraises'
p6
aa(lp7
S'5.0'
p8
aS'cl de'
p9
aS'jus de fraises'
p10
aa(lp11
S'5.0'
p12
aS'cl de'
p13
aS'vodka'
p14
aa(lp15
S'6.0'
p16
aS'feuilles de'
p17
aS'basilic'
p18
aa(lp19
S'1.0'
p20
aS'cl de'
p21
aS'jus de citrons'
p22
aaa.