(lp0
S'Froggy'
p1
aF3.3
aI3
a(lp2
(lp3
S'3.0'
p4
aS'cl de'
p5
aS'cr\xc3\xa8me fra\xc3\xaeche liquide'
p6
aa(lp7
S'3.0'
p8
aS'cl de'
p9
aS"jus d'oranges"
p10
aa(lp11
S'3.0'
p12
aS'cl de'
p13
aS'cura\xc3\xa7ao bleu'
p14
aa(lp15
S'3.0'
p16
aS'cl de'
p17
aS'liqueur galliano'
p18
aaa.