(lp0
S'Bamboula'
p1
aF3.2
aI147
a(lp2
(lp3
S'3.0'
p4
aS'cl de'
p5
aS"liqueur d'abricots (abricot brandy)"
p6
aa(lp7
S'0.5'
p8
aS'cl de'
p9
aS'liqueur de fraises'
p10
aa(lp11
S'3.0'
p12
aS'cl de'
p13
aS'rhum blanc'
p14
aaa.