(lp0
S'California'
p1
aF3.8
aI13
a(lp2
(lp3
S'2.0'
p4
aS'cl de'
p5
aS"jus d'oranges"
p6
aa(lp7
S'2.0'
p8
aS'cl de'
p9
aS'tequila'
p10
aa(lp11
S'2.0'
p12
aS'cl de'
p13
aS"jus d'ananas"
p14
aa(lp15
S'1.5'
p16
aS'cl de'
p17
aS'malibu citron'
p18
aa(lp19
S'0.5'
p20
aS'cl de'
p21
aS'liqueur de coco (cocogif, malibu)'
p22
aaa.