(lp0
S'Jurassic Green Hawaiian'
p1
aF3.3
aI3
a(lp2
(lp3
S'4.0'
p4
aS'cl de'
p5
aS'liqueur de coco (cocogif, malibu)'
p6
aa(lp7
S'8.0'
p8
aS'cl de'
p9
aS"jus d'ananas"
p10
aa(lp11
S'2.0'
p12
aS'cl de'
p13
aS'cura\xc3\xa7ao bleu'
p14
aa(lp15
S'4.0'
p16
aS'cl de'
p17
aS'rhum ambr\xc3\xa9'
p18
aaa.