(lp0
S'Bubba'
p1
aF3.9
aI28
a(lp2
(lp3
S'1.0'
p4
aS'cl de'
p5
aS'sirop de grenadine'
p6
aa(lp7
S'1.5'
p8
aS'cl de'
p9
aS'liqueur de bananes (pisang ambon)'
p10
aa(lp11
S'1.5'
p12
aS'cl de'
p13
aS'liqueur de coco (cocogif, malibu)'
p14
aa(lp15
S'5.0'
p16
aS'cl de'
p17
aS'lait'
p18
aaa.