(lp0
S'Pacifiste'
p1
aF3.5
aI2
a(lp2
(lp3
S'3.0'
p4
aS'cl de'
p5
aS'donjon'
p6
aa(lp7
S'4.0'
p8
aS'cl de'
p9
aS'vodka'
p10
aa(lp11
S'3.0'
p12
aS'cl de'
p13
aS'liqueur de violette'
p14
aa(lp15
S'None'
p16
aS'None'
p17
aS'gini'
p18
aaa.