(lp0
S'Alleluja'
p1
aF3.6
aI10
a(lp2
(lp3
S'0.4'
p4
aS'volumes de'
p5
aS'tequila'
p6
aa(lp7
S'0.2'
p8
aS'volumes de'
p9
aS'marasquin'
p10
aa(lp11
S'0.2'
p12
aS'volumes de'
p13
aS'jus de citrons'
p14
aa(lp15
S'0.2'
p16
aS'volumes de'
p17
aS'cura\xc3\xa7ao bleu'
p18
aa(lp19
S'1.0'
p20
aS"blanc d'"
p21
aS'oeufs'
p22
aa(lp23
S'None'
p24
aS'None'
p25
aS'limonade (soda, sprite, 7up)'
p26
aaa.