(lp0
S'Alexander'
p1
aF3.0
aI100
a(lp2
(lp3
S'3.0'
p4
aS'cl de'
p5
aS'gin'
p6
aa(lp7
S'3.0'
p8
aS'cl de'
p9
aS'liqueur de cacao blanc'
p10
aa(lp11
S'3.0'
p12
aS'cl de'
p13
aS'cr\xc3\xa8me fra\xc3\xaeche liquide'
p14
aaa.