(lp0
S'Spiked on the beach'
p1
aF3.6
aI16
a(lp2
(lp3
S'0.307692307692'
p4
aS'de'
p5
aS'vodka'
p6
aa(lp7
S'0.153846153846'
p8
aS'de'
p9
aS'triple sec (cointreau, grand marnier)'
p10
aa(lp11
S'0.153846153846'
p12
aS'de'
p13
aS'nectar de p\xc3\xaaches'
p14
aa(lp15
S'0.384615384615'
p16
aS'de'
p17
aS"jus d'ananas"
p18
aa(lp19
S'None'
p20
aS'None'
p21
aS'spiked silver'
p22
aaa.