(lp0
S'Grog alsacien'
p1
aF3.7
aI17
a(lp2
(lp3
S'1.0'
p4
aS'cl de'
p5
aS'liqueur de bourgeon de sapin'
p6
aa(lp7
S'None'
p8
aS"jus d'1/2"
p9
aS'citrons'
p10
aa(lp11
S'1.0'
p12
aS'morceau de'
p13
aS'cannelle'
p14
aa(lp15
S'1.0'
p16
aS'None'
p17
aS'clous de girofle'
p18
aa(lp19
S'0.5'
p20
aS'cl de'
p21
aS'sucre'
p22
aa(lp23
S'2.0'
p24
aS'cl de'
p25
aS'rhum ambr\xc3\xa9'
p26
aaa.