(lp0
S'RAS, Rigoler Aimer Siroter'
p1
aF3.2
aI5
a(lp2
(lp3
S'5.0'
p4
aS'None'
p5
aS'oranges'
p6
aa(lp7
S'125.0'
p8
aS'grammes de'
p9
aS'sucre'
p10
aa(lp11
S'100.0'
p12
aS'cl de'
p13
aS'rhum blanc'
p14
aa(lp15
S'1.0'
p16
aS'petite branche de'
p17
aS'vanille'
p18
aaa.