(lp0
S'Hello Kitty'
p1
aF3.4
aI5
a(lp2
(lp3
S'6.0'
p4
aS'cl de'
p5
aS'vodka'
p6
aa(lp7
S'4.0'
p8
aS'cl de'
p9
aS'sirop de cranberry'
p10
aa(lp11
S'2.0'
p12
aS'cl de'
p13
aS'sirop de roses'
p14
aa(lp15
S'2.0'
p16
aS'cl de'
p17
aS'tonic (schweppes)'
p18
aaa.