(lp0
S'Pirate \xc3\xa0 la m\xc3\xa8re!'
p1
aF3.4
aI9
a(lp2
(lp3
S'1.0'
p4
aS'cl de'
p5
aS'lait de coco'
p6
aa(lp7
S'1.0'
p8
aS'cl de'
p9
aS'cura\xc3\xa7ao bleu'
p10
aa(lp11
S'3.0'
p12
aS'cl de'
p13
aS'rhum ambr\xc3\xa9'
p14
aa(lp15
S'2.0'
p16
aS'grammes de'
p17
aS'chocolat noir'
p18
aaa.