(lp0
S'Red Dot'
p1
aF2.7
aI6
a(lp2
(lp3
S'5.0'
p4
aS'cl de'
p5
aS'vodka'
p6
aa(lp7
S'2.0'
p8
aS'cl de'
p9
aS'liqueur de fraises'
p10
aa(lp11
S'3.0'
p12
aS'cl de'
p13
aS'vermouth rose (martini, cinzano)'
p14
aaa.