(lp0
S'Turquoise'
p1
aF3.0
aI4
a(lp2
(lp3
S'0.5'
p4
aS'cl de'
p5
aS'cura\xc3\xa7ao bleu'
p6
aa(lp7
S'3.0'
p8
aS'cl de'
p9
aS'vodka'
p10
aa(lp11
S'2.0'
p12
aS'cl de'
p13
aS'p\xc3\xaacher mignon'
p14
aa(lp15
S'1.0'
p16
aS'cl de'
p17
aS'jus de citrons'
p18
aaa.