(lp0
S'Rhum R\xc3\xa9glisse'
p1
aF3.5
aI17
a(lp2
(lp3
S'5.0'
p4
aS'cl de'
p5
aS'rhum blanc'
p6
aa(lp7
S'0.3'
p8
aS'None'
p9
aS'b\xc3\xa2tons de reglisse'
p10
aa(lp11
S'2.5'
p12
aS'grammes de'
p13
aS'sucre roux (cassonade)'
p14
aa(lp15
S'0.05'
p16
aS'cl de'
p17
aS'sirop de miel'
p18
aaa.