(lp0
S'Sirop de tilleul'
p1
aF2.8
aI5
a(lp2
(lp3
S'6.5'
p4
aS"cl d'"
p5
aS'eau'
p6
aa(lp7
S'10.0'
p8
aS'grammes de'
p9
aS'fleurs de tilleul'
p10
aa(lp11
S'25.0'
p12
aS'grammes de'
p13
aS'sucre'
p14
aaa.