(lp0
S'American Rose'
p1
aF3.0
aI28
a(lp2
(lp3
S'4.0'
p4
aS'cl de'
p5
aS'brandy'
p6
aa(lp7
S'0.5'
p8
aS'cl de'
p9
aS'sirop de grenadine'
p10
aa(lp11
S'0.5'
p12
aS'cuill\xc3\xa8re \xc3\xa0 caf\xc3\xa9 de'
p13
aS'spiritueux anis\xc3\xa9 (pastis, ricard, pernod)'
p14
aa(lp15
S'1.0'
p16
aS'morceau de'
p17
aS'p\xc3\xaaches'
p18
aa(lp19
S'None'
p20
aS'None'
p21
aS'champagne'
p22
aaa.