(lp0
S'Green Eyes'
p1
aF3.0
aI3
a(lp2
(lp3
S'1.5'
p4
aS'cl de'
p5
aS'midori'
p6
aa(lp7
S'2.0'
p8
aS'cl de'
p9
aS'rhum blanc'
p10
aa(lp11
S'1.0'
p12
aS'cl de'
p13
aS'jus de citrons verts'
p14
aa(lp15
S'1.0'
p16
aS'cl de'
p17
aS'liqueur de coco (cocogif, malibu)'
p18
aa(lp19
S'3.0'
p20
aS'cl de'
p21
aS'jus de pommes'
p22
aaa.