(lp0
S'Blow Job'
p1
aF2.9
aI208
a(lp2
(lp3
S'2.0'
p4
aS'cl de'
p5
aS'liqueur de caf\xc3\x83\xc2\xa9 (kahlua, marie brizard)'
p6
aa(lp7
S'2.0'
p8
aS'cl de'
p9
aS'cr\xc3\x83\xc2\xa8me de whisky (baileys)'
p10
aaa.