(lp0
S'Champagne cocktail (version ABF)'
p1
aF4.2
aI6
a(lp2
(lp3
S'0.5'
p4
aS'cl de'
p5
aS'cognac'
p6
aa(lp7
S'6.0'
p8
aS'cl de'
p9
aS'champagne'
p10
aa(lp11
S'2.0'
p12
aS"zestes d'"
p13
aS'oranges'
p14
aa(lp15
S'1.0'
p16
aS'quart de morceau de'
p17
aS'sucre'
p18
aa(lp19
S'None'
p20
aS'None'
p21
aS'angostura bitters'
p22
aaa.