(lp0
S'Floc Beauty'
p1
aF4.5
aI2
a(lp2
(lp3
S'4.0'
p4
aS'cl de'
p5
aS'floc de gascogne blanc'
p6
aa(lp7
S'1.5'
p8
aS'cl de'
p9
aS'gin'
p10
aa(lp11
S'1.0'
p12
aS'feuilles de'
p13
aS'basilic'
p14
aa(lp15
S'1.5'
p16
aS'cl de'
p17
aS'jus de raisins blancs'
p18
aa(lp19
S'1.5'
p20
aS'cl de'
p21
aS'jus de citrons'
p22
aaa.