(lp0
S'Cr\xc3\xa8me de vanille'
p1
aF3.7
aI19
a(lp2
(lp3
S'0.3'
p4
aS'gousses de'
p5
aS'vanille'
p6
aa(lp7
S'0.05'
p8
aS"litre d'"
p9
aS'alcool \xc3\xa0 90\xc2\xb0'
p10
aa(lp11
S'0.05'
p12
aS'gramme de'
p13
aS'safran'
p14
aa(lp15
S'0.05'
p16
aS'None'
p17
aS'clous de girofle'
p18
aa(lp19
S'0.1'
p20
aS'kilos de'
p21
aS'sucre'
p22
aa(lp23
S'0.05'
p24
aS"litre d'"
p25
aS'eau'
p26
aaa.