(lp0
S'Strhitch'
p1
aF3.7
aI15
a(lp2
(lp3
S'3.5'
p4
aS'cl de'
p5
aS'sirop de cura\xc3\xa7ao bleu'
p6
aa(lp7
S'7.0'
p8
aS'cl de'
p9
aS'vodka'
p10
aa(lp11
S'15.0'
p12
aS'cl de'
p13
aS'schweppes lemon'
p14
aaa.