(lp0
S'Sex King'
p1
aF3.6
aI7
a(lp2
(lp3
S'4.0'
p4
aS'cl de'
p5
aS'vodka'
p6
aa(lp7
S'12.0'
p8
aS'cl de'
p9
aS'jus de fraises'
p10
aa(lp11
S'1.0'
p12
aS'cl de'
p13
aS'jus de citrons verts'
p14
aa(lp15
S'2.0'
p16
aS'cl de'
p17
aS'sirop de p\xc3\xaache'
p18
aaa.