(lp0
S'Keloy on the beach'
p1
aF4.0
aI9
a(lp2
(lp3
S'3.0'
p4
aS'cl de'
p5
aS'vodka'
p6
aa(lp7
S'3.0'
p8
aS'cl de'
p9
aS'cr\xc3\xa8me de fruit de la passion'
p10
aa(lp11
S'3.0'
p12
aS'cl de'
p13
aS'jus de pommes'
p14
aa(lp15
S'3.0'
p16
aS'cl de'
p17
aS'jus de fruits exotiques'
p18
aa(lp19
S'0.25'
p20
aS'trait de'
p21
aS'sirop de grenadine'
p22
aaa.