(lp0
S'La F\xc3\xa9e Rouge'
p1
aF3.0
aI2
a(lp2
(lp3
S'3.0'
p4
aS'None'
p5
aS'fraises'
p6
aa(lp7
S'0.25'
p8
aS"d'une"
p9
aS'mangues'
p10
aa(lp11
S'1.0'
p12
aS'cl de'
p13
aS'sirop de figues'
p14
aa(lp15
S'3.0'
p16
aS'cl de'
p17
aS'floc de gascogne blanc'
p18
aa(lp19
S'4.0'
p20
aS'cl de'
p21
aS'th\xc3\xa9 aux fruits'
p22
aaa.