(lp0
S'Honey Apple'
p1
aF4.4
aI5
a(lp2
(lp3
S'0.2'
p4
aS'de'
p5
aS'glayva'
p6
aa(lp7
S'0.2'
p8
aS"d'"
p9
aS'amaretto'
p10
aa(lp11
S'0.4'
p12
aS'de'
p13
aS'calvados'
p14
aa(lp15
S'0.2'
p16
aS'de'
p17
aS'jus de citron'
p18
aaa.