(lp0
S'The Krimson King'
p1
aF3.8
aI6
a(lp2
(lp3
S'5.0'
p4
aS'cl de'
p5
aS'amaretto'
p6
aa(lp7
S'10.0'
p8
aS'cl de'
p9
aS'jus de cranberry (canneberges)'
p10
aa(lp11
S'10.0'
p12
aS'cl de'
p13
aS'jus de framboises'
p14
aa(lp15
S'1.0'
p16
aS'trait de'
p17
aS'jus de citrons'
p18
aaa.