(lp0
S'Alien brain hemorrhage'
p1
aF3.8
aI96
a(lp2
(lp3
S'2.0'
p4
aS'cl de'
p5
aS'liqueur de p\xc3\xaaches'
p6
aa(lp7
S'1.0'
p8
aS'cl de'
p9
aS'sirop de grenadine'
p10
aa(lp11
S'1.0'
p12
aS'cl de'
p13
aS'cura\xc3\xa7ao bleu'
p14
aa(lp15
S'2.0'
p16
aS'cl de'
p17
aS'cr\xc3\xa8me de whisky (baileys)'
p18
aaa.