(lp0
S'Long island Iced Tea'
p1
aF4.5
aI552
a(lp2
(lp3
S'1.5'
p4
aS'cl de'
p5
aS'vodka'
p6
aa(lp7
S'1.5'
p8
aS'cl de'
p9
aS'gin'
p10
aa(lp11
S'1.5'
p12
aS'cl de'
p13
aS'rhum blanc'
p14
aa(lp15
S'1.5'
p16
aS'cl de'
p17
aS'triple sec (cointreau, grand marnier)'
p18
aa(lp19
S'1.5'
p20
aS'cl de'
p21
aS'tequila'
p22
aa(lp23
S'1.0'
p24
aS'cl de'
p25
aS'jus de citrons'
p26
aa(lp27
S'3.0'
p28
aS'cl de'
p29
aS'cola (coca cola, pepsi)'
p30
aaa.