(lp0
S'Kir sur lit de rose'
p1
aF4.0
aI68
a(lp2
(lp3
S'0.2'
p4
aS'bouteille de'
p5
aS'vin blanc'
p6
aa(lp7
S'0.4'
p8
aS"grammes d'"
p9
aS'alginate de sodium'
p10
aa(lp11
S'1.0'
p12
aS'cl de'
p13
aS'sirop de roses'
p14
aa(lp15
S'2.0'
p16
aS"cl d'"
p17
aS'eau'
p18
aa(lp19
S'1.2'
p20
aS'grammes de'
p21
aS'lactate de calcium'
p22
aaa.