(lp0
S'Hanniball'
p1
aF2.6
aI5
a(lp2
(lp3
S'100.0'
p4
aS'grammes de'
p5
aS'jus de carottes'
p6
aa(lp7
S'50.0'
p8
aS"grammes d'"
p9
aS"jus d'ananas"
p10
aa(lp11
S'50.0'
p12
aS'grammes de'
p13
aS'jus de fruit de la passion (maracuja)'
p14
aa(lp15
S'35.0'
p16
aS'grammes de'
p17
aS'th\xc3\xa9 \xc3\xa0 la p\xc3\xaache'
p18
aa(lp19
S'15.0'
p20
aS'grammes de'
p21
aS'yaourt nature'
p22
aaa.