(lp0
S'Halloween Black Spider'
p1
aF3.8
aI29
a(lp2
(lp3
S'4.0'
p4
aS'cl de'
p5
aS'vodka'
p6
aa(lp7
S'2.0'
p8
aS'cl de'
p9
aS'triple sec (cointreau, grand marnier)'
p10
aa(lp11
S'2.0'
p12
aS'cl de'
p13
aS'jus de citrons'
p14
aa(lp15
S'2.0'
p16
aS'cl de'
p17
aS'jus de cranberry (canneberges)'
p18
aaa.