(lp0
S'Clair de lune'
p1
aF4.0
aI12
a(lp2
(lp3
S'None'
p4
aS'None'
p5
aS'champagne'
p6
aa(lp7
S'2.5'
p8
aS'cl de'
p9
aS"jus d'oranges"
p10
aa(lp11
S'1.0'
p12
aS'cl de'
p13
aS'vodka'
p14
aa(lp15
S'1.0'
p16
aS'cl de'
p17
aS'cr\xc3\xa8me de framboise'
p18
aa(lp19
S'1.0'
p20
aS'cl de'
p21
aS'angostura bitters'
p22
aaa.