(lp0
S'Caribou'
p1
aF3.2
aI121
a(lp2
(lp3
S'9.0'
p4
aS'cl de'
p5
aS'vin rouge'
p6
aa(lp7
S'4.0'
p8
aS'cl de'
p9
aS'whisky (bourbon, whiskey)'
p10
aa(lp11
S'1.0'
p12
aS'trait de'
p13
aS"sirop d'\xc3\xa9rable"
p14
aaa.