(lp0
S'Apricot Chill'
p1
aF3.9
aI17
a(lp2
(lp3
S'8.0'
p4
aS'cl de'
p5
aS"jus d'abricots"
p6
aa(lp7
S'4.0'
p8
aS'cl de'
p9
aS'lait'
p10
aa(lp11
S'1.0'
p12
aS'cl de'
p13
aS'lait de coco'
p14
aa(lp15
S'1.0'
p16
aS'boule de'
p17
aS'sorbet \xc3\xa0 la vanille'
p18
aaa.