(lp0
S'Manille'
p1
aF4.3
aI3
a(lp2
(lp3
S'3.5'
p4
aS'cl de'
p5
aS'lait'
p6
aa(lp7
S'1.5'
p8
aS'cl de'
p9
aS'caf\xc3\xa9'
p10
aa(lp11
S'1.0'
p12
aS'cl de'
p13
aS'lait concentr\xc3\xa9 sucr\xc3\xa9'
p14
aa(lp15
S'0.25'
p16
aS'cl de'
p17
aS'chocolat en poudre'
p18
aa(lp19
S'0.5'
p20
aS'sachet de'
p21
aS'sucre vanille'
p22
aaa.