(lp0
S'Broux de noix'
p1
aF3.7
aI3
a(lp2
(lp3
S'20.0'
p4
aS'None'
p5
aS'noix'
p6
aa(lp7
S'1.0'
p8
aS"litre d'"
p9
aS'eau-de-vie \xc3\xa0 40\xc2\xb0'
p10
aa(lp11
S'600.0'
p12
aS'grammes de'
p13
aS'sucre'
p14
aaa.