(lp0
S'Either dry currants'
p1
aF3.7
aI7
a(lp2
(lp3
S'3.0'
p4
aS'cl de'
p5
aS'gin'
p6
aa(lp7
S'3.0'
p8
aS'cl de'
p9
aS'vermouth blanc (martini, cinzano)'
p10
aa(lp11
S'1.0'
p12
aS'cl de'
p13
aS'sirop de cassis'
p14
aaa.