(lp0
S'Black Lime'
p1
aF4.1
aI17
a(lp2
(lp3
S'None'
p4
aS'None'
p5
aS'citrons verts'
p6
aa(lp7
S'0.5'
p8
aS'cl de'
p9
aS'sirop de sucre de canne'
p10
aa(lp11
S'4.0'
p12
aS'cl de'
p13
aS'vodka noire'
p14
aaa.