(lp0
S'Lait de poule'
p1
aF3.0
aI346
a(lp2
(lp3
S'10.0'
p4
aS'cl de'
p5
aS'lait'
p6
aa(lp7
S'1.0'
p8
aS'cl de'
p9
aS'whisky (bourbon, whiskey)'
p10
aa(lp11
S'25.0'
p12
aS'grammes de'
p13
aS'sucre'
p14
aa(lp15
S'1.0'
p16
aS"jaune d'"
p17
aS'oeufs'
p18
aa(lp19
S'1.0'
p20
aS'cuill\xc3\xa8re \xc3\xa0 soupe de'
p21
aS'cr\xc3\xa8me fra\xc3\xaeche liquide'
p22
aa(lp23
S'1.0'
p24
aS'pinc\xc3\xa9e de'
p25
aS'cannelle en poudre'
p26
aaa.