(lp0
S'Pina Colada Smoothie'
p1
aF3.2
aI27
a(lp2
(lp3
S'3.0'
p4
aS'cl de'
p5
aS'lait de coco'
p6
aa(lp7
S'6.0'
p8
aS'cl de'
p9
aS"jus d'ananas"
p10
aa(lp11
S'2.0'
p12
aS'cl de'
p13
aS'sirop caribbean (saveur rhum)'
p14
aa(lp15
S'1.0'
p16
aS'None'
p17
aS'yaourt nature'
p18
aaa.