(lp0
S'Martinique Smuggler'
p1
aF3.0
aI5
a(lp2
(lp3
S'2.0'
p4
aS"cl d'"
p5
aS'amaretto'
p6
aa(lp7
S'5.0'
p8
aS'cl de'
p9
aS'rhum blanc'
p10
aa(lp11
S'2.5'
p12
aS'cl de'
p13
aS'jus de pamplemousses'
p14
aa(lp15
S'2.5'
p16
aS'cl de'
p17
aS'jus de citrons verts'
p18
aa(lp19
S'2.0'
p20
aS'cl de'
p21
aS"sirop d'orgeat"
p22
aaa.