(lp0
S'81 Camaro'
p1
aF3.2
aI9
a(lp2
(lp3
S'0.333333333333'
p4
aS'de'
p5
aS'sorbet \xc3\xa0 la vanille'
p6
aa(lp7
S'0.333333333333'
p8
aS'de'
p9
aS'vodka'
p10
aa(lp11
S'0.166666666667'
p12
aS'de'
p13
aS'cola (coca cola, pepsi)'
p14
aa(lp15
S'0.166666666667'
p16
aS'de'
p17
aS"soda \xc3\xa0 l'orange (orangina)"
p18
aaa.