(lp0
S'Coco Surprise'
p1
aF3.2
aI108
a(lp2
(lp3
S'1.0'
p4
aS'None'
p5
aS'noix de coco'
p6
aa(lp7
S'None'
p8
aS'None'
p9
aS'rhum ambr\xc3\xa9'
p10
aa(lp11
S'None'
p12
aS'une demi gousse de'
p13
aS'vanille'
p14
aaa.