(lp0
S'Lose Belly'
p1
aF2.7
aI68
a(lp2
(lp3
S'15.0'
p4
aS'cl de'
p5
aS'jus de pamplemousses'
p6
aa(lp7
S'2.0'
p8
aS'cuill\xc3\xa8re \xc3\xa0 soupe de'
p9
aS'vinaigre de cidre'
p10
aa(lp11
S'1.0'
p12
aS'cuill\xc3\xa8re \xc3\xa0 soupe de'
p13
aS'miel'
p14
aaa.