(lp0
S'Porto Sour'
p1
aF4.0
aI1
a(lp2
(lp3
S'4.0'
p4
aS'cl de'
p5
aS'porto blanc'
p6
aa(lp7
S'3.0'
p8
aS'cl de'
p9
aS'jus de citrons'
p10
aa(lp11
S'2.0'
p12
aS'cl de'
p13
aS'cr\xc3\xa8me de p\xc3\xaache'
p14
aa(lp15
S'3.0'
p16
aS'cl de'
p17
aS'vin vert (vinho verde)'
p18
aa(lp19
S'1.0'
p20
aS"blanc d'"
p21
aS'oeufs'
p22
aaa.