(lp0
S'Irish Rose'
p1
aF3.0
aI6
a(lp2
(lp3
S'4.0'
p4
aS'cl de'
p5
aS'whisky (bourbon, whiskey)'
p6
aa(lp7
S'1.5'
p8
aS'cl de'
p9
aS'sirop de grenadine'
p10
aa(lp11
S'1.5'
p12
aS'cl de'
p13
aS'eau gazeuse (perrier, salvetat)'
p14
aaa.