(lp0
S'Russian Spring punch'
p1
aF3.1
aI22
a(lp2
(lp3
S'1.5'
p4
aS'cl de'
p5
aS'cr\xc3\xa8me de cassis'
p6
aa(lp7
S'3.0'
p8
aS'cl de'
p9
aS'jus de citrons'
p10
aa(lp11
S'2.0'
p12
aS'cuill\xc3\xa8res \xc3\xa0 caf\xc3\xa9 de'
p13
aS'sirop de sucre de canne'
p14
aa(lp15
S'6.0'
p16
aS'cl de'
p17
aS'vodka'
p18
aa(lp19
S'None'
p20
aS'None'
p21
aS'champagne'
p22
aaa.