(lp0
S'Sirop de r\xc3\xa9glisse'
p1
aF3.0
aI4
a(lp2
(lp3
S'10.0'
p4
aS'grammes de'
p5
aS'b\xc3\xa2tons de r\xc3\xa9glisse'
p6
aa(lp7
S'0.1'
p8
aS"graines d'"
p9
aS'anis \xc3\xa9toil\xc3\xa9'
p10
aa(lp11
S'0.05'
p12
aS'kilo de'
p13
aS'sucre'
p14
aa(lp15
S'0.05'
p16
aS"litre d'"
p17
aS'eau'
p18
aa(lp19
S'0.05'
p20
aS'None'
p21
aS'citron'
p22
aaa.