(lp0
S'Moscow sling'
p1
aF4.0
aI1
a(lp2
(lp3
S'None'
p4
aS'None'
p5
aS'ginger ale (canada dry)'
p6
aa(lp7
S'0.5'
p8
aS'cl de'
p9
aS'jus de citrons'
p10
aa(lp11
S'3.0'
p12
aS'cl de'
p13
aS'vodka'
p14
aa(lp15
S'3.0'
p16
aS'cl de'
p17
aS'liqueur de cerises (cherry brandy)'
p18
aa(lp19
S'1.0'
p20
aS'cl de'
p21
aS'saint raphael'
p22
aaa.