(lp0
S'Liqueur de myrte'
p1
aF3.0
aI3
a(lp2
(lp3
S'5.0'
p4
aS'grammes de'
p5
aS'sucre'
p6
aa(lp7
S'2.0'
p8
aS'grammes de'
p9
aS'baies de myrte'
p10
aa(lp11
S'3.75'
p12
aS'cl de'
p13
aS'vodka'
p14
aaa.