(lp0
S'Floradora'
p1
aF4.0
aI1
a(lp2
(lp3
S'4.0'
p4
aS'cl de'
p5
aS'gin'
p6
aa(lp7
S'4.0'
p8
aS'cl de'
p9
aS'jus de citrons verts'
p10
aa(lp11
S'0.5'
p12
aS'cl de'
p13
aS'sirop de grenadine'
p14
aa(lp15
S'0.5'
p16
aS'cuill\xc3\xa8re \xc3\xa0 caf\xc3\xa9 de'
p17
aS'sucre'
p18
aa(lp19
S'None'
p20
aS'None'
p21
aS'eau gazeuse (perrier, salvetat)'
p22
aaa.