(lp0
S'Kir lorrain'
p1
aF3.0
aI7
a(lp2
(lp3
S'2.0'
p4
aS'cl de'
p5
aS'liqueur de mirabelles'
p6
aa(lp7
S'2.0'
p8
aS'cl de'
p9
aS'eau-de-vie de mirabelles'
p10
aa(lp11
S'None'
p12
aS'None'
p13
aS'vin blanc'
p14
aaa.