(lp0
S'Pampa'
p1
aF3.0
aI4
a(lp2
(lp3
S'3.0'
p4
aS'cl de'
p5
aS'jus de papaye'
p6
aa(lp7
S'3.0'
p8
aS'cl de'
p9
aS'jus de pamplemousses'
p10
aa(lp11
S'1.0'
p12
aS'cl de'
p13
aS'rhum blanc'
p14
aa(lp15
S'1.0'
p16
aS'cl de'
p17
aS'cr\xc3\xa8me de fruit de la passion'
p18
aa(lp19
S'1.0'
p20
aS'cl de'
p21
aS'malibu citron'
p22
aaa.