(lp0
S'American Beauty'
p1
aF2.9
aI39
a(lp2
(lp3
S'4.0'
p4
aS'cl de'
p5
aS'brandy'
p6
aa(lp7
S'2.0'
p8
aS'cl de'
p9
aS'vermouth blanc (martini, cinzano)'
p10
aa(lp11
S'2.0'
p12
aS'cl de'
p13
aS"jus d'oranges"
p14
aa(lp15
S'2.0'
p16
aS'trait de'
p17
aS'sirop de grenadine'
p18
aa(lp19
S'2.0'
p20
aS'trait de'
p21
aS'liqueur de menthe blanche (get 31)'
p22
aa(lp23
S'1.0'
p24
aS'cl de'
p25
aS'porto rouge'
p26
aaa.