(lp0
S'Grog crillon'
p1
aF3.1
aI10
a(lp2
(lp3
S'None'
p4
aS'None'
p5
aS'sucre'
p6
aa(lp7
S'1.0'
p8
aS'tranche de'
p9
aS'citrons'
p10
aa(lp11
S'3.0'
p12
aS'cl de'
p13
aS'rhum ambr\xc3\xa9'
p14
aa(lp15
S'2.0'
p16
aS'cl de'
p17
aS'cr\xc3\xa8me de vanille'
p18
aa(lp19
S'2.0'
p20
aS'cl de'
p21
aS'triple sec (cointreau, grand marnier)'
p22
aa(lp23
S'None'
p24
aS'None'
p25
aS'clous de girofle'
p26
aaa.