(lp0
S'Kahlua coco'
p1
aF3.9
aI7
a(lp2
(lp3
S'5.0'
p4
aS'cl de'
p5
aS'vermouth blanc (martini, cinzano)'
p6
aa(lp7
S'5.0'
p8
aS'cl de'
p9
aS"jus d'ananas"
p10
aa(lp11
S'6.0'
p12
aS'cl de'
p13
aS'lait de coco'
p14
aa(lp15
S'3.0'
p16
aS'cl de'
p17
aS'liqueur de caf\xc3\x83\xc2\xa9 (kahlua, marie brizard)'
p18
aaa.