(lp0
S'PAAF'
p1
aF3.5
aI4
a(lp2
(lp3
S'6.0'
p4
aS'cl de'
p5
aS'jus de pommes'
p6
aa(lp7
S'6.0'
p8
aS'cl de'
p9
aS"jus d'abricots"
p10
aa(lp11
S'6.0'
p12
aS'cl de'
p13
aS"jus d'ananas"
p14
aa(lp15
S'1.0'
p16
aS'cl de'
p17
aS'sirop de fraises'
p18
aaa.