(lp0
S'Caf\xc3\xa9 marseillais'
p1
aF4.4
aI8
a(lp2
(lp3
S'2.0'
p4
aS'cuill\xc3\xa8re de'
p5
aS'caf\xc3\xa9 soluble'
p6
aa(lp7
S'2.0'
p8
aS'cl de'
p9
aS'spiritueux anis\xc3\xa9 (pastis, ricard, pernod)'
p10
aa(lp11
S'10.0'
p12
aS'cl de'
p13
aS'eau'
p14
aa(lp15
S'1.0'
p16
aS'pinc\xc3\xa9es de'
p17
aS'anis \xc3\xa9toil\xc3\xa9'
p18
aaa.