(lp0
S'Diamant vert'
p1
aF3.0
aI23
a(lp2
(lp3
S'6.0'
p4
aS'cl de'
p5
aS'vodka'
p6
aa(lp7
S'2.0'
p8
aS'cl de'
p9
aS'liqueur de menthe verte (get 27)'
p10
aa(lp11
S'1.0'
p12
aS'cl de'
p13
aS'sirop de citron vert'
p14
aa(lp15
S'10.0'
p16
aS'cl de'
p17
aS'eau gazeuse (perrier, salvetat)'
p18
aaa.