(lp0
S'Sirop de roses'
p1
aF2.8
aI16
a(lp2
(lp3
S'80.0'
p4
aS'grammes de'
p5
aS'sucre'
p6
aa(lp7
S'0.1'
p8
aS"litre d'"
p9
aS'eau'
p10
aa(lp11
S'0.1'
p12
aS'poign\xc3\xa9e de'
p13
aS'p\xc3\xa9tales de roses'
p14
aaa.