(lp0
S'High After Eight'
p1
aF3.4
aI64
a(lp2
(lp3
S'4.0'
p4
aS'cl de'
p5
aS'vodka'
p6
aa(lp7
S'1.5'
p8
aS'cl de'
p9
aS'sirop de menthe'
p10
aa(lp11
S'2.0'
p12
aS'cl de'
p13
aS'liqueur de cacao blanc'
p14
aa(lp15
S'2.0'
p16
aS'cl de'
p17
aS'cr\xc3\xa8me fra\xc3\xaeche liquide'
p18
aaa.