(lp0
S'Castillou'
p1
aF4.5
aI2
a(lp2
(lp3
S'1.0'
p4
aS'cuill\xc3\xa8re \xc3\xa0 soupe'
p5
aS'feuilles de tilleul'
p6
aa(lp7
S'1.0'
p8
aS'cuill\xc3\xa8re \xc3\xa0 caf\xc3\xa9'
p9
aS'sirop de cassis'
p10
aa(lp11
S'2.0'
p12
aS'zestes'
p13
aS'citrons verts'
p14
aaa.