(lp0
S'Lepton'
p1
aF4.5
aI2
a(lp2
(lp3
S'None'
p4
aS'None'
p5
aS'lait'
p6
aa(lp7
S'3.0'
p8
aS'cl de'
p9
aS'liqueur de bananes (pisang ambon)'
p10
aa(lp11
S'1.0'
p12
aS'cl de'
p13
aS'liqueur de poire'
p14
aaa.