(lp0
S'Mariachi'
p1
aF3.1
aI29
a(lp2
(lp3
S'0.333333333333'
p4
aS'de'
p5
aS'liqueur de citrons (limoncello)'
p6
aa(lp7
S'0.666666666667'
p8
aS'de'
p9
aS'tequila'
p10
aa(lp11
S'0.5'
p12
aS'cl de'
p13
aS'jus de citrons verts'
p14
aa(lp15
S'1.0'
p16
aS'cl de'
p17
aS'liqueur de menthe verte (get 27)'
p18
aaa.