(lp0
S'Blig'
p1
aF3.6
aI193
a(lp2
(lp3
S'1.0'
p4
aS'bo\xc3\xaete de'
p5
aS'poires au sirop'
p6
aa(lp7
S'0.5'
p8
aS'None'
p9
aS'melon'
p10
aa(lp11
S'2.0'
p12
aS'None'
p13
aS'oranges'
p14
aa(lp15
S'None'
p16
aS'quelques'
p17
aS'feuilles de menthe'
p18
aaa.