(lp0
S'Terminator'
p1
aF3.7
aI3
a(lp2
(lp3
S'1.0'
p4
aS'cl de'
p5
aS'vodka'
p6
aa(lp7
S'1.0'
p8
aS'cl de'
p9
aS'rhum blanc'
p10
aa(lp11
S'1.0'
p12
aS'cl de'
p13
aS'gin'
p14
aa(lp15
S'1.0'
p16
aS'cl de'
p17
aS'triple sec (cointreau, grand marnier)'
p18
aa(lp19
S'1.0'
p20
aS'cl de'
p21
aS'liqueur de caf\xc3\xa9 (kahlua, marie brizard)'
p22
aa(lp23
S'4.0'
p24
aS'cl de'
p25
aS'lime cordial'
p26
aa(lp27
S'2.0'
p28
aS'cl de'
p29
aS'jus de cranberry (canneberges)'
p30
aa(lp31
S'None'
p32
aS'None'
p33
aS'bi\xc3\xa8re'
p34
aaa.