(lp0
S'Mojito Cr\xc3\xa9ole'
p1
aF3.0
aI595
a(lp2
(lp3
S'6.0'
p4
aS'cl de'
p5
aS'rhum blanc'
p6
aa(lp7
S'0.5'
p8
aS'None'
p9
aS'citrons vert'
p10
aa(lp11
S'2.0'
p12
aS'cl de'
p13
aS'sirop de sucre de canne'
p14
aa(lp15
S'None'
p16
aS'feuilles de'
p17
aS'menthe'
p18
aa(lp19
S'None'
p20
aS'None'
p21
aS'eau gazeuse (perrier, salvetat)'
p22
aa(lp23
S'None'
p24
aS'quelques goutes'
p25
aS'angostura bitters'
p26
aaa.