(lp0
S'Framboisine'
p1
aF2.9
aI212
a(lp2
(lp3
S'0.2'
p4
aS'bouteilles de'
p5
aS'vin mousseux'
p6
aa(lp7
S'2.5'
p8
aS'cl de'
p9
aS'sirop de sucre de canne'
p10
aa(lp11
S'2.0'
p12
aS'cl de'
p13
aS'triple sec (cointreau, grand marnier)'
p14
aa(lp15
S'75.0'
p16
aS'grammes de'
p17
aS'framboises'
p18
aaa.