(lp0
S'BA03'
p1
aF3.0
aI2
a(lp2
(lp3
S'6.0'
p4
aS'cl de'
p5
aS'jus de cranberry (canneberges)'
p6
aa(lp7
S'2.0'
p8
aS'cl de'
p9
aS'cr\xc3\xa8me de cassis'
p10
aa(lp11
S'3.0'
p12
aS'cl de'
p13
aS'pur\xc3\xa9e de framboise'
p14
aa(lp15
S'2.0'
p16
aS'cl de'
p17
aS'pur\xc3\xa9e de fraise'
p18
aaa.