(lp0
S'Minavat'
p1
aF3.5
aI2
a(lp2
(lp3
S'2.0'
p4
aS'cl de'
p5
aS'jus de citrons verts'
p6
aa(lp7
S'8.0'
p8
aS'cl de'
p9
aS'jus de fruit de la passion (maracuja)'
p10
aa(lp11
S'10.0'
p12
aS'cl de'
p13
aS'jus de mangues'
p14
aaa.