(lp0
S'Dark Angel'
p1
aF3.3
aI50
a(lp2
(lp3
S'1.0'
p4
aS'cl de'
p5
aS'vodka noire'
p6
aa(lp7
S'1.0'
p8
aS'cl de'
p9
aS'j\xc3\xa4germeister'
p10
aa(lp11
S'None'
p12
aS'None'
p13
aS'energy drink (red bull, pitbull, duff)'
p14
aaa.