(lp0
S'Cap horn'
p1
aF3.0
aI6
a(lp2
(lp3
S'0.25'
p4
aS'de'
p5
aS'rhum blanc'
p6
aa(lp7
S'0.25'
p8
aS'de'
p9
aS'triple sec (cointreau, grand marnier)'
p10
aa(lp11
S'0.25'
p12
aS'de'
p13
aS'angostura bitter'
p14
aa(lp15
S'0.25'
p16
aS'de'
p17
aS'sirop de sucre de canne'
p18
aaa.