(lp0
S'Island cream grog'
p1
aF3.3
aI12
a(lp2
(lp3
S'None'
p4
aS'None'
p5
aS'cr\xc3\xa8me fra\xc3\xaeche liquide'
p6
aa(lp7
S'None'
p8
aS'None'
p9
aS'sucre'
p10
aa(lp11
S'20.0'
p12
aS'cl de'
p13
aS'eau'
p14
aa(lp15
S'10.0'
p16
aS'cl de'
p17
aS'rhum ambr\xc3\xa9'
p18
aaa.