(lp0
S'Apple shot'
p1
aF3.6
aI17
a(lp2
(lp3
S'6.0'
p4
aS'cl de'
p5
aS'jus de pommes'
p6
aa(lp7
S'6.0'
p8
aS'cl de'
p9
aS'limonade (soda, sprite, 7up)'
p10
aa(lp11
S'1.0'
p12
aS'cl de'
p13
aS'angostura bitters'
p14
aaa.