(lp0
S'Chocolat espagnol'
p1
aF3.8
aI32
a(lp2
(lp3
S'2.0'
p4
aS'barres de'
p5
aS'chocolat'
p6
aa(lp7
S'1.0'
p8
aS"tasse d'"
p9
aS'eau'
p10
aa(lp11
S'3.0'
p12
aS'grammes de'
p13
aS'vanille'
p14
aa(lp15
S'3.0'
p16
aS'cl de'
p17
aS'sirop de cannelle'
p18
aaa.