(lp0
S'Yaourt \xc3\xa0 boire \xc3\xa0 la fraise'
p1
aF4.3
aI8
a(lp2
(lp3
S'3.0'
p4
aS'cl de'
p5
aS'lait'
p6
aa(lp7
S'3.0'
p8
aS'cl de'
p9
aS'sirop de fraises'
p10
aa(lp11
S'1.0'
p12
aS'None'
p13
aS'yaourt nature'
p14
aaa.