(lp0
S'Chocolat \xc3\xa9cossais'
p1
aF3.7
aI21
a(lp2
(lp3
S'1.0'
p4
aS'cl de'
p5
aS'sirop de caramel'
p6
aa(lp7
S'4.0'
p8
aS'cl de'
p9
aS'cr\xc3\xa8me de whisky (baileys)'
p10
aa(lp11
S'15.0'
p12
aS'cl de'
p13
aS'chocolat chaud'
p14
aa(lp15
S'1.0'
p16
aS'pinc\xc3\xa9es de'
p17
aS'cannelle en poudre'
p18
aa(lp19
S'1.0'
p20
aS'trait de'
p21
aS'cr\xc3\xa8me chantilly'
p22
aaa.