(lp0
S'Liqueur de V\xc3\xa9nus'
p1
aF4.2
aI13
a(lp2
(lp3
S'2.5'
p4
aS"cl d'"
p5
aS'alcool \xc3\xa0 90\xc2\xb0'
p6
aa(lp7
S'40.0'
p8
aS'grammes de'
p9
aS'sucre'
p10
aa(lp11
S'1.25'
p12
aS'grammes de semences de'
p13
aS'carottes'
p14
aa(lp15
S'0.75'
p16
aS'grammes de'
p17
aS'cumin'
p18
aa(lp19
S'0.5'
p20
aS'grammes de'
p21
aS'cannelle'
p22
aa(lp23
S'0.15'
p24
aS'grammes de'
p25
aS'macis'
p26
aa(lp27
S'0.05'
p28
aS'gramme de'
p29
aS'safran'
p30
aa(lp31
S'4.0'
p32
aS"cl d'"
p33
aS'eau'
p34
aaa.