(lp0
S'Cosmo Cr\xc3\xa9ole'
p1
aF2.9
aI72
a(lp2
(lp3
S'4.0'
p4
aS'cl de'
p5
aS'jus de cranberry (canneberges)'
p6
aa(lp7
S'4.0'
p8
aS'cl de'
p9
aS'rhum blanc'
p10
aa(lp11
S'0.5'
p12
aS'None'
p13
aS'citron'
p14
aaa.