(lp0
S'Joconde'
p1
aF4.0
aI4
a(lp2
(lp3
S'0.5'
p4
aS'cl de'
p5
aS'sirop de chocolat blanc'
p6
aa(lp7
S'3.0'
p8
aS'traits de'
p9
aS'sirop de figues'
p10
aa(lp11
S'2.5'
p12
aS'cl de'
p13
aS'fernet-branca'
p14
aa(lp15
S'1.0'
p16
aS'cl de'
p17
aS'vodka'
p18
aa(lp19
S'1.0'
p20
aS'cl de'
p21
aS'liqueur de p\xc3\xaaches'
p22
aa(lp23
S'4.5'
p24
aS'cl de'
p25
aS'jus de pommes'
p26
aaa.