(lp0
S'Le montgolfiere'
p1
aF3.5
aI2
a(lp2
(lp3
S'None'
p4
aS'None'
p5
aS'tonic (schweppes)'
p6
aa(lp7
S'1.5'
p8
aS'cl de'
p9
aS'vermouth blanc (martini, cinzano)'
p10
aa(lp11
S'1.5'
p12
aS'cl de'
p13
aS'liqueur de gentiane'
p14
aa(lp15
S'1.0'
p16
aS'jus'
p17
aS'citrons'
p18
aaa.