(lp0
S'Bahana House'
p1
aF4.0
aI16
a(lp2
(lp3
S'2.0'
p4
aS'cl de'
p5
aS'liqueur de fraises des bois'
p6
aa(lp7
S'4.0'
p8
aS'cl de'
p9
aS'triple sec (cointreau, grand marnier)'
p10
aa(lp11
S'10.0'
p12
aS'cl de'
p13
aS'jus de fruit de la passion (maracuja)'
p14
aa(lp15
S'2.0'
p16
aS'cl de'
p17
aS"sirop d'\xc3\xa9rable"
p18
aaa.