(lp0
S'Feuille morte'
p1
aF3.1
aI10
a(lp2
(lp3
S'1.0'
p4
aS'cl de'
p5
aS'sirop de menthe'
p6
aa(lp7
S'None'
p8
aS'None'
p9
aS'eau'
p10
aa(lp11
S'1.0'
p12
aS'cl de'
p13
aS'sirop de grenadine'
p14
aa(lp15
S'3.0'
p16
aS'cl de'
p17
aS'spiritueux anis\xc3\xa9 (pastis, ricard, pernod)'
p18
aaa.