(lp0
S'Sangria blanche 2'
p1
aF2.7
aI3
a(lp2
(lp3
S'20.8333333333'
p4
aS'grammes de'
p5
aS'raisins blancs'
p6
aa(lp7
S'0.0833333333333'
p8
aS'None'
p9
aS'citron'
p10
aa(lp11
S'0.166666666667'
p12
aS'None'
p13
aS'oranges'
p14
aa(lp15
S'0.166666666667'
p16
aS'cuill\xc3\xa8res \xc3\xa0 soupe de'
p17
aS'sucre vanille'
p18
aa(lp19
S'0.0833333333333'
p20
aS'litre de'
p21
aS'jus de raisin blanc'
p22
aa(lp23
S'4.16666666667'
p24
aS"cl d'"
p25
aS'eau gazeuse (perrier, salvetat)'
p26
aa(lp27
S'0.0833333333333'
p28
aS'b\xc3\xa2ton de'
p29
aS'cannelle'
p30
aaa.