(lp0
S'Au soleil levant'
p1
aF3.2
aI54
a(lp2
(lp3
S'2.0'
p4
aS'cl de'
p5
aS'triple sec (cointreau, grand marnier)'
p6
aa(lp7
S'2.0'
p8
aS'cl de'
p9
aS'rhum blanc'
p10
aa(lp11
S'0.5'
p12
aS'cl de'
p13
aS'sirop de grenadine'
p14
aa(lp15
S'2.0'
p16
aS"cl d'"
p17
aS'sak\xc3\xa9 (alcool de riz)'
p18
aaa.