(lp0
S'Charleston 2'
p1
aF3.5
aI8
a(lp2
(lp3
S'2.0'
p4
aS'cl de'
p5
aS'vermouth blanc (martini, cinzano)'
p6
aa(lp7
S'2.0'
p8
aS'cl de'
p9
aS'vermouth blanc (martini, cinzano)'
p10
aa(lp11
S'2.0'
p12
aS'cl de'
p13
aS'cura\xc3\xa7ao bleu'
p14
aa(lp15
S'2.0'
p16
aS'cl de'
p17
aS'marasquin'
p18
aa(lp19
S'2.0'
p20
aS'cl de'
p21
aS'kirsch'
p22
aa(lp23
S'2.0'
p24
aS'cl de'
p25
aS'gin'
p26
aaa.