(lp0
S'Sensations'
p1
aF3.8
aI4
a(lp2
(lp3
S'0.5'
p4
aS'cl de'
p5
aS'angostura bitters'
p6
aa(lp7
S'3.5'
p8
aS'cl de'
p9
aS'jus de fruit de la passion (maracuja)'
p10
aa(lp11
S'1.5'
p12
aS'cl de'
p13
aS"liqueur d'abricots (abricot brandy)"
p14
aa(lp15
S'1.5'
p16
aS'cl de'
p17
aS'eau-de-vie de framboises'
p18
aaa.