(lp0
S'Viking'
p1
aF3.1
aI7
a(lp2
(lp3
S'0.333333333333'
p4
aS'de'
p5
aS'kirsch'
p6
aa(lp7
S'0.333333333333'
p8
aS"d'"
p9
aS'aquavit (akvavit)'
p10
aa(lp11
S'0.333333333333'
p12
aS'de'
p13
aS'vodka'
p14
aa(lp15
S'0.5'
p16
aS'cl de'
p17
aS'liqueur de menthe verte (get 27)'
p18
aa(lp19
S'None'
p20
aS'None'
p21
aS'eau gazeuse (perrier, salvetat)'
p22
aaa.