(lp0
S'Le Croupier'
p1
aF4.0
aI10
a(lp2
(lp3
S'3.0'
p4
aS'cl de'
p5
aS'cura\xc3\xa7ao bleu'
p6
aa(lp7
S'3.0'
p8
aS'cl de'
p9
aS'liqueur de coco (cocogif, malibu)'
p10
aa(lp11
S'2.0'
p12
aS'cl de'
p13
aS'vodka'
p14
aa(lp15
S'1.0'
p16
aS'trait de'
p17
aS'citrons'
p18
aa(lp19
S'15.0'
p20
aS'cl de'
p21
aS'limonade (soda, sprite, 7up)'
p22
aa(lp23
S'1.0'
p24
aS'trait de'
p25
aS'sirop de m\xc3\xbbre'
p26
aaa.