(lp0
S"Marsal' fletcher"
p1
aF2.3
aI4
a(lp2
(lp3
S'2.0'
p4
aS'cl de'
p5
aS'marsala'
p6
aa(lp7
S'4.0'
p8
aS'cl de'
p9
aS'rhum'
p10
aa(lp11
S'2.0'
p12
aS'cl de'
p13
aS"jus d'oranges sanguines"
p14
aa(lp15
S'2.0'
p16
aS'cl de'
p17
aS'jus de citrons'
p18
aa(lp19
S'5.0'
p20
aS'cl de'
p21
aS'sirop de sucre de canne'
p22
aaa.