(lp0
S'Sgroppino'
p1
aF3.3
aI9
a(lp2
(lp3
S'10.0'
p4
aS'cl de'
p5
aS'vin mousseux'
p6
aa(lp7
S'1.0'
p8
aS'cuill\xc3\xa8re \xc3\xa0 soupe de'
p9
aS'vodka'
p10
aa(lp11
S'1.0'
p12
aS'boule de'
p13
aS'sorbet citron'
p14
aa(lp15
S'None'
p16
aS'None'
p17
aS'menthe'
p18
aaa.