(lp0
S'Milk Shake Banane fraise chocolat'
p1
aF4.2
aI6
a(lp2
(lp3
S'1.0'
p4
aS'None'
p5
aS'banane'
p6
aa(lp7
S'2.0'
p8
aS'None'
p9
aS'fraises'
p10
aa(lp11
S'1.0'
p12
aS'cuill\xc3\xa8re de'
p13
aS'nutella'
p14
aa(lp15
S'2.0'
p16
aS'boules de '
p17
aS'sorbet \xc3\xa0 la vanille'
p18
aaa.