(lp0
S'Pina Mix'
p1
aF3.6
aI5
a(lp2
(lp3
S'4.0'
p4
aS'cl de'
p5
aS'lait de coco'
p6
aa(lp7
S'0.05'
p8
aS"bo\xc3\xaete de conserve d'"
p9
aS'ananas au sirop'
p10
aa(lp11
S'1.5'
p12
aS'cl de'
p13
aS'sirop de sucre de canne'
p14
aa(lp15
S'0.075'
p16
aS'litres de'
p17
aS"jus d'ananas"
p18
aaa.