(lp0
S'Grog'
p1
aF3.3
aI124
a(lp2
(lp3
S'4.0'
p4
aS'cl de'
p5
aS'rhum blanc'
p6
aa(lp7
S'1.0'
p8
aS'morceau de'
p9
aS'sucre'
p10
aa(lp11
S'1.0'
p12
aS'gousse de'
p13
aS'vanille'
p14
aa(lp15
S'2.0'
p16
aS'cl de'
p17
aS'jus de citrons'
p18
aa(lp19
S'1.0'
p20
aS'b\xc3\xa2ton de'
p21
aS'cannelle'
p22
aaa.