(lp0
S'Fr\xc3\xaanette'
p1
aF3.5
aI4
a(lp2
(lp3
S'0.625'
p4
aS'grammes de'
p5
aS'feuilles de fr\xc3\xaane'
p6
aa(lp7
S'0.9375'
p8
aS'grammes de'
p9
aS'chicor\xc3\xa9e torr\xc3\xa9fi\xc3\xa9e'
p10
aa(lp11
S'0.375'
p12
aS'grammes de'
p13
aS'acide tartrique'
p14
aa(lp15
S'0.4375'
p16
aS'grammes de'
p17
aS'levure fra\xc3\xaeche'
p18
aa(lp19
S'0.03125'
p20
aS'kilos de'
p21
aS'sucre'
p22
aa(lp23
S'0.625'
p24
aS"litres d'"
p25
aS'eau'
p26
aaa.