(lp0
S'Caribbean'
p1
aF3.8
aI19
a(lp2
(lp3
S'4.0'
p4
aS'cl de'
p5
aS'triple sec (cointreau, grand marnier)'
p6
aa(lp7
S'5.0'
p8
aS'cl de'
p9
aS'rhum blanc'
p10
aa(lp11
S'5.0'
p12
aS'cl de'
p13
aS'jus de bananes'
p14
aaa.