(lp0
S'Smoothie King'
p1
aF2.0
aI2
a(lp2
(lp3
S'1.0'
p4
aS'None'
p5
aS'poire'
p6
aa(lp7
S'1.0'
p8
aS'None'
p9
aS'kiwi'
p10
aa(lp11
S'5.0'
p12
aS'grammes de'
p13
aS'gingembre'
p14
aa(lp15
S'10.0'
p16
aS'cl de'
p17
aS'lait de soja'
p18
aaa.