(lp0
S'Perroquet des Antilles'
p1
aF3.7
aI3
a(lp2
(lp3
S'1.0'
p4
aS'cl de'
p5
aS'sirop de kiwi'
p6
aa(lp7
S'1.0'
p8
aS'cl de'
p9
aS'cura\xc3\xa7ao bleu'
p10
aa(lp11
S'3.0'
p12
aS'cl de'
p13
aS'jus de bananes'
p14
aa(lp15
S'3.0'
p16
aS'cl de'
p17
aS"jus d'ananas"
p18
aa(lp19
S'4.0'
p20
aS'cl de'
p21
aS'tonic (schweppes)'
p22
aaa.