(lp0
S'Bacardi Symphony'
p1
aF3.4
aI13
a(lp2
(lp3
S'4.0'
p4
aS'cl de'
p5
aS'rhum ambr\xc3\xa9'
p6
aa(lp7
S'2.5'
p8
aS'cl de'
p9
aS'vermouth rouge (martini, cinzano)'
p10
aa(lp11
S'2.5'
p12
aS'cl de'
p13
aS'vermouth dry (martini, noilly prat)'
p14
aa(lp15
S'1.5'
p16
aS'cl de'
p17
aS'liqueur galliano'
p18
aa(lp19
S'1.5'
p20
aS'cl de'
p21
aS'triple sec (cointreau, grand marnier)'
p22
aaa.