(lp0
S'Chrysomel'
p1
aF3.0
aI2
a(lp2
(lp3
S'0.1'
p4
aS'kilo de'
p5
aS'sirop de miel'
p6
aa(lp7
S'7.5'
p8
aS"cl d'"
p9
aS'eau-de-vie'
p10
aa(lp11
S'0.1'
p12
aS'gousse de'
p13
aS'vanille'
p14
aa(lp15
S'0.2'
p16
aS"litres d'"
p17
aS'eau'
p18
aaa.