(lp0
S'La cocktaillerie'
p1
aF4.0
aI1
a(lp2
(lp3
S'1.0'
p4
aS'cl de'
p5
aS'amaretto'
p6
aa(lp7
S'1.5'
p8
aS'cl de'
p9
aS'liqueur de cerises (cherry brandy)'
p10
aa(lp11
S'2.0'
p12
aS'cl de'
p13
aS'triple sec (cointreau, grand marnier)'
p14
aa(lp15
S'3.0'
p16
aS'cl de'
p17
aS'vermouth dry (martini, noilly prat)'
p18
aaa.