(lp0
S'Calcinhas de seda'
p1
aF3.5
aI25
a(lp2
(lp3
S'2.0'
p4
aS'cl de'
p5
aS'lait'
p6
aa(lp7
S'1.0'
p8
aS'cl de'
p9
aS'cacha\xc3\xa7a'
p10
aa(lp11
S'3.0'
p12
aS'cl de'
p13
aS'guarana'
p14
aa(lp15
S'2.0'
p16
aS'cl de'
p17
aS'lait concentr\xc3\xa9 sucr\xc3\xa9'
p18
aa(lp19
S'1.0'
p20
aS'cl de'
p21
aS'sirop de groseilles'
p22
aaa.