(lp0
S'Boisson au gingembre'
p1
aF2.9
aI17
a(lp2
(lp3
S'20.0'
p4
aS'grammes de'
p5
aS'gingembre'
p6
aa(lp7
S'30.0'
p8
aS'grammes de'
p9
aS'sucre'
p10
aa(lp11
S'1.5'
p12
aS'cl de'
p13
aS'jus de citrons verts'
p14
aa(lp15
S'0.3'
p16
aS"litres d'"
p17
aS'eau'
p18
aa(lp19
S'0.5'
p20
aS'cl de'
p21
aS'menthe'
p22
aa(lp23
S'1.0'
p24
aS'cl de'
p25
aS"jus d'oranges"
p26
aaa.