(lp0
S'Iceberg choco'
p1
aF3.7
aI15
a(lp2
(lp3
S'6.0'
p4
aS'cl de'
p5
aS'liqueur de menthe verte (get 27)'
p6
aa(lp7
S'1.0'
p8
aS'barre de'
p9
aS'chocolat'
p10
aa(lp11
S'20.0'
p12
aS'cl de'
p13
aS'lait'
p14
aaa.