(lp0
S'Waterlime Jello'
p1
aF3.0
aI24
a(lp2
(lp3
S'0.5'
p4
aS'cl de'
p5
aS'sirop de past\xc3\xa8que (watermelon)'
p6
aa(lp7
S'0.5'
p8
aS'None'
p9
aS'citrons verts'
p10
aa(lp11
S'0.5'
p12
aS'feuilles de'
p13
aS'g\xc3\xa9latine'
p14
aa(lp15
S'2.14285714286'
p16
aS'cl de'
p17
aS'vodka'
p18
aa(lp19
S'0.214285714286'
p20
aS'cl de'
p21
aS'sirop de citrons'
p22
aaa.