(lp0
S'Noire'
p1
aF4.0
aI1
a(lp2
(lp3
S'2.5'
p4
aS'cl de'
p5
aS'vodka'
p6
aa(lp7
S'2.5'
p8
aS'cl de'
p9
aS'liqueur de caf\xc3\xa9 (kahlua, marie brizard)'
p10
aa(lp11
S'None'
p12
aS'None'
p13
aS'bi\xc3\xa8re blonde'
p14
aaa.