(lp0
S'Da\xc3\xafquiri Banane'
p1
aF3.1
aI44
a(lp2
(lp3
S'0.5'
p4
aS'None'
p5
aS'banane'
p6
aa(lp7
S'2.0'
p8
aS'cl de'
p9
aS'sirop de sucre de canne'
p10
aa(lp11
S'3.0'
p12
aS'cl de'
p13
aS'jus de citrons'
p14
aa(lp15
S'5.0'
p16
aS'cl de'
p17
aS'rhum blanc'
p18
aa(lp19
S'0.5'
p20
aS'cl de'
p21
aS'cr\xc3\xa8me de bananes'
p22
aaa.