(lp0
S'Purple Jack'
p1
aF3.3
aI3
a(lp2
(lp3
S'1.0'
p4
aS'cl de'
p5
aS'whisky (bourbon, whiskey)'
p6
aa(lp7
S'1.0'
p8
aS'cl de'
p9
aS'cura\xc3\xa7ao bleu'
p10
aa(lp11
S'8.0'
p12
aS'cl de'
p13
aS'bar mix'
p14
aaa.