(lp0
S'Limonette'
p1
aF2.9
aI7
a(lp2
(lp3
S'1.0'
p4
aS'volume de'
p5
aS'spiritueux anis\xc3\xa9 (pastis, ricard, pernod)'
p6
aa(lp7
S'5.0'
p8
aS"volumes d'"
p9
aS'limonade (soda, sprite, 7up)\t'
p10
aaa.