(lp0
S'Absinthe'
p1
aF3.2
aI6
a(lp2
(lp3
S'0.25'
p4
aS'kg de'
p5
aS'grande absinthe'
p6
aa(lp7
S'50.0'
p8
aS'grammes de'
p9
aS'hysope'
p10
aa(lp11
S'50.0'
p12
aS'grammes de'
p13
aS'm\xc3\xa9lisse citronn\xc3\xa9e'
p14
aa(lp15
S'0.2'
p16
aS"kg d'"
p17
aS'anis vert'
p18
aa(lp19
S'1.6'
p20
aS'litres de'
p21
aS'alcool \xc3\xa0 85\xc2\xb0'
p22
aaa.