(lp0
S'Lisa simpson'
p1
aF4.1
aI54
a(lp2
(lp3
S'6.0'
p4
aS'cl de'
p5
aS'eau gazeuse (perrier, salvetat)'
p6
aa(lp7
S'2.0'
p8
aS'cl de'
p9
aS'sirop de grenadine'
p10
aa(lp11
S'6.0'
p12
aS'cl de'
p13
aS'cola (coca cola, pepsi)'
p14
aaa.