(lp0
S'Or jaune'
p1
aF2.9
aI10
a(lp2
(lp3
S'3.0'
p4
aS'cl de'
p5
aS'jus de pamplemousses'
p6
aa(lp7
S'1.5'
p8
aS'cl de'
p9
aS'liqueur de citrons (limoncello)'
p10
aa(lp11
S'4.0'
p12
aS'cl de'
p13
aS'gin'
p14
aaa.