(lp0
S'Coquito'
p1
aF2.8
aI19
a(lp2
(lp3
S'40.0'
p4
aS'cl de'
p5
aS'lait de coco'
p6
aa(lp7
S'20.0'
p8
aS'cl de'
p9
aS'rhum'
p10
aa(lp11
S'30.0'
p12
aS'cl de'
p13
aS'lait concentr\xc3\xa9 sucr\xc3\xa9'
p14
aa(lp15
S'4.0'
p16
aS"jaunes d'"
p17
aS'oeufs'
p18
aaa.