(lp0
S'Cherrylolo'
p1
aF2.8
aI4
a(lp2
(lp3
S'1.0'
p4
aS'trait de'
p5
aS'sirop de fraises'
p6
aa(lp7
S'1.0'
p8
aS'cl de'
p9
aS'gloss de suze'
p10
aa(lp11
S'3.0'
p12
aS'cl de'
p13
aS'vin mousseux'
p14
aa(lp15
S'5.0'
p16
aS'cl de'
p17
aS'limonade (soda, sprite, 7up)'
p18
aaa.