(lp0
S'Mexican ice tea (Texas tea)'
p1
aF3.2
aI63
a(lp2
(lp3
S'1.0'
p4
aS'cl de'
p5
aS'tequila'
p6
aa(lp7
S'1.0'
p8
aS'cl de'
p9
aS'vodka'
p10
aa(lp11
S'5.0'
p12
aS'cl de'
p13
aS'cola (coca cola, pepsi)'
p14
aa(lp15
S'1.0'
p16
aS'cl de'
p17
aS'triple sec (cointreau, grand marnier)'
p18
aa(lp19
S'1.0'
p20
aS'cl de'
p21
aS'rhum blanc'
p22
aaa.