(lp0
S'R\xc3\xa9veil fruit\xc3\xa9'
p1
aF3.5
aI8
a(lp2
(lp3
S'2.0'
p4
aS'cl de'
p5
aS"jus d'oranges"
p6
aa(lp7
S'2.0'
p8
aS'cl de'
p9
aS"jus d'ananas"
p10
aa(lp11
S'2.0'
p12
aS'cl de'
p13
aS'jus de pommes'
p14
aa(lp15
S'2.0'
p16
aS'cl de'
p17
aS'jus de mandarines'
p18
aa(lp19
S'2.0'
p20
aS'cl de'
p21
aS'triple sec (cointreau, grand marnier)'
p22
aa(lp23
S'2.0'
p24
aS'cl de'
p25
aS'vodka'
p26
aa(lp27
S'2.0'
p28
aS'cl de'
p29
aS'lait'
p30
aa(lp31
S'1.0'
p32
aS'trait de'
p33
aS'sirop de grenadine'
p34
aaa.