(lp0
S'Andalusia'
p1
aF3.0
aI1
a(lp2
(lp3
S'4.0'
p4
aS'cl de'
p5
aS'x\xc3\xa9r\xc3\xa8s (sherry)'
p6
aa(lp7
S'2.0'
p8
aS'cl de'
p9
aS'brandy'
p10
aa(lp11
S'2.0'
p12
aS'cl de'
p13
aS'rhum blanc'
p14
aa(lp15
S'0.25'
p16
aS"cuill\xc3\xa8re \xc3\xa0 caf\xc3\xa9 d'"
p17
aS'angostura bitters'
p18
aaa.