(lp0
S'Cointreau Bubbles'
p1
aF3.0
aI7
a(lp2
(lp3
S'4.0'
p4
aS'cl de'
p5
aS'triple sec (cointreau, grand marnier)'
p6
aa(lp7
S'4.0'
p8
aS'rondelles de'
p9
aS'citrons verts'
p10
aa(lp11
S'None'
p12
aS'None'
p13
aS'eau gazeuse (perrier, salvetat)'
p14
aaa.