(lp0
S'Aloha'
p1
aF3.4
aI247
a(lp2
(lp3
S'4.0'
p4
aS'cl de'
p5
aS'rhum ambr\xc3\xa9'
p6
aa(lp7
S'4.0'
p8
aS'cl de'
p9
aS"jus d'ananas"
p10
aa(lp11
S'4.0'
p12
aS'cl de'
p13
aS"jus d'oranges"
p14
aa(lp15
S'2.0'
p16
aS'cl de'
p17
aS'lait de coco'
p18
aa(lp19
S'1.0'
p20
aS'cl de'
p21
aS'jus de citrons'
p22
aa(lp23
S'1.0'
p24
aS'boule de'
p25
aS'sorbet \xc3\xa0 la vanille'
p26
aaa.