(lp0
S'Horchata de chufa'
p1
aF4.1
aI8
a(lp2
(lp3
S'25.0'
p4
aS'grammes de'
p5
aS'chufas'
p6
aa(lp7
S'20.0'
p8
aS'grammes de'
p9
aS'sucre'
p10
aa(lp11
S'0.1'
p12
aS"litre d'"
p13
aS'eau'
p14
aa(lp15
S'0.1'
p16
aS'gousse de'
p17
aS'vanille'
p18
aaa.