(lp0
S'Virgin bellini'
p1
aF2.7
aI33
a(lp2
(lp3
S'4.0'
p4
aS'cl de'
p5
aS'pur\xc3\xa9e de p\xc3\xaache'
p6
aa(lp7
S'1.0'
p8
aS'cl de'
p9
aS'sirop de p\xc3\xaache'
p10
aa(lp11
S'None'
p12
aS'None'
p13
aS'eau gazeuse (perrier, salvetat)'
p14
aaa.