(lp0
S'Cascade'
p1
aF3.1
aI13
a(lp2
(lp3
S'1.0'
p4
aS'cl de'
p5
aS"jus d'ananas"
p6
aa(lp7
S'3.0'
p8
aS'cl de'
p9
aS"jus d'oranges"
p10
aa(lp11
S'1.0'
p12
aS'cl de'
p13
aS'liqueur de menthe blanche (get 31)'
p14
aa(lp15
S'3.0'
p16
aS'cl de'
p17
aS'rhum blanc'
p18
aa(lp19
S'1.0'
p20
aS'cl de'
p21
aS'cura\xc3\xa7ao bleu'
p22
aaa.