(lp0
S'Daiquiri'
p1
aF4.3
aI988
a(lp2
(lp3
S'4.0'
p4
aS'cl de'
p5
aS'rhum cubain'
p6
aa(lp7
S'2.0'
p8
aS'cl de'
p9
aS'jus de citrons verts'
p10
aa(lp11
S'1.0'
p12
aS'cl de'
p13
aS'sirop de sucre de canne'
p14
aaa.