(lp0
S'Guava Vodka'
p1
aF2.7
aI3
a(lp2
(lp3
S'2.0'
p4
aS'cl de'
p5
aS'sirop de goyave'
p6
aa(lp7
S'1.0'
p8
aS'cl de'
p9
aS'sirop de citron vert'
p10
aa(lp11
S'3.0'
p12
aS'cl de'
p13
aS'vodka'
p14
aa(lp15
S'1.0'
p16
aS'cl de'
p17
aS'triple sec (cointreau, grand marnier)'
p18
aaa.