(lp0
S'Cindy'
p1
aF3.4
aI5
a(lp2
(lp3
S'None'
p4
aS'None'
p5
aS'champagne'
p6
aa(lp7
S'2.0'
p8
aS'cl de'
p9
aS'cr\xc3\xa8me de framboise'
p10
aa(lp11
S'2.0'
p12
aS'cl de'
p13
aS'cognac'
p14
aa(lp15
S'2.0'
p16
aS'cl de'
p17
aS"jus d'ananas"
p18
aa(lp19
S'0.5'
p20
aS'cl de'
p21
aS'jus de citrons'
p22
aa(lp23
S'0.5'
p24
aS'cl de'
p25
aS'sirop de grenadine'
p26
aaa.