(lp0
S'Pink-Sky'
p1
aF3.5
aI2
a(lp2
(lp3
S'2.5'
p4
aS'cl de'
p5
aS'whisky (bourbon, whiskey)'
p6
aa(lp7
S'1.0'
p8
aS'cl de'
p9
aS'liqueur de fraises des bois'
p10
aa(lp11
S'10.0'
p12
aS'cl de'
p13
aS'jus de poires'
p14
aaa.