(lp0
S'Frozen Da\xc3\xafquirito'
p1
aF3.1
aI22
a(lp2
(lp3
S'4.5'
p4
aS'cl de'
p5
aS'rhum blanc'
p6
aa(lp7
S'1.0'
p8
aS'cl de'
p9
aS'triple sec (cointreau, grand marnier)'
p10
aa(lp11
S'4.5'
p12
aS'cl de'
p13
aS'jus de citrons verts'
p14
aa(lp15
S'0.5'
p16
aS'cl de'
p17
aS'sucre'
p18
aa(lp19
S'1.0'
p20
aS'cl de'
p21
aS'liqueur de cerises (cherry brandy)'
p22
aaa.