(lp0
S'Vin blanc camomille'
p1
aF3.5
aI10
a(lp2
(lp3
S'2.0'
p4
aS'cuill\xc3\xa8re \xc3\xa0 caf\xc3\xa9 de'
p5
aS'sirop de miel'
p6
aa(lp7
S'2.0'
p8
aS'cl de'
p9
aS'rhum blanc'
p10
aa(lp11
S'5.0'
p12
aS'cl de'
p13
aS'vin blanc'
p14
aa(lp15
S'20.0'
p16
aS'cl de'
p17
aS'infusion \xc3\xa0 la camomille'
p18
aaa.