(lp0
S'Manzana verde'
p1
aF3.6
aI329
a(lp2
(lp3
S'0.5'
p4
aS'cl de'
p5
aS'sirop de menthe'
p6
aa(lp7
S'10.0'
p8
aS'cl de'
p9
aS"jus d'oranges"
p10
aa(lp11
S'3.0'
p12
aS'cl de'
p13
aS'liqueur de pommes (manzana, manzanita)'
p14
aaa.