(lp0
S'Pink Panther'
p1
aF3.0
aI6
a(lp2
(lp3
S'1.0'
p4
aS'cl de'
p5
aS'sirop de grenadine'
p6
aa(lp7
S'3.0'
p8
aS'cl de'
p9
aS'vodka'
p10
aa(lp11
S'3.0'
p12
aS'cl de'
p13
aS'licor 43'
p14
aa(lp15
S'None'
p16
aS'None'
p17
aS'lait'
p18
aaa.