(lp0
S'Spicy Ca\xc3\xaf'
p1
aF4.0
aI1
a(lp2
(lp3
S'0.5'
p4
aS'cl de'
p5
aS'pur\xc3\xa9e de fruit de la passion'
p6
aa(lp7
S'1.0'
p8
aS'cl de'
p9
aS"sirop d'\xc3\xa9pices (spicy)"
p10
aa(lp11
S'4.0'
p12
aS'cl de'
p13
aS'rhum blanc'
p14
aa(lp15
S'2.0'
p16
aS'tranches de'
p17
aS'citrons verts'
p18
aaa.