(lp0
S'Soho tonic'
p1
aF3.8
aI14
a(lp2
(lp3
S'0.5'
p4
aS'cl de'
p5
aS'sirop de grenadine'
p6
aa(lp7
S'15.0'
p8
aS'cl de'
p9
aS'tonic (schweppes)'
p10
aa(lp11
S'3.0'
p12
aS'cl de'
p13
aS'liqueur de lychees (soho, litchao)'
p14
aaa.