(lp0
S'Vin chaud aux \xc3\xa9pices'
p1
aF3.6
aI12
a(lp2
(lp3
S'10.0'
p4
aS'cl de'
p5
aS'vin rouge'
p6
aa(lp7
S'16.6666666667'
p8
aS'grammes de'
p9
aS'sucre'
p10
aa(lp11
S'None'
p12
aS"zestes d'un"
p13
aS'citrons'
p14
aa(lp15
S'None'
p16
aS"zestes d'une"
p17
aS'oranges'
p18
aa(lp19
S'0.133333333333'
p20
aS'b\xc3\xa2tons de '
p21
aS'cannelle'
p22
aa(lp23
S'0.133333333333'
p24
aS'None'
p25
aS'clous de girofle'
p26
aa(lp27
S'0.0666666666667'
p28
aS'morceau de'
p29
aS'gingembre'
p30
aa(lp31
S'0.0666666666667'
p32
aS'pinc\xc3\xa9e de'
p33
aS'noix de muscade'
p34
aaa.