(lp0
S'Cherry-Vanilla Bitters'
p1
aF4.0
aI1
a(lp2
(lp3
S'3.75'
p4
aS'cl de'
p5
aS'whisky (bourbon, whiskey)'
p6
aa(lp7
S'0.3'
p8
aS'gousses de'
p9
aS'vanille'
p10
aa(lp11
S'6.0'
p12
aS'grammes de'
p13
aS'cerises s\xc3\xa9ch\xc3\xa9es'
p14
aa(lp15
S'0.05'
p16
aS'branche de'
p17
aS'citronnelle'
p18
aa(lp19
S'0.1'
p20
aS'None'
p21
aS'anis \xc3\xa9toil\xc3\xa9'
p22
aa(lp23
S'0.1'
p24
aS'cuill\xc3\xa8res \xc3\xa0 caf\xc3\xa9 de'
p25
aS"graines d'anis"
p26
aa(lp27
S'0.2'
p28
aS'None'
p29
aS'baies de geni\xc3\xa8vre'
p30
aa(lp31
S'0.2'
p32
aS'None'
p33
aS'clous de girofle'
p34
aaa.