(lp0
S'Bounty'
p1
aF4.0
aI4
a(lp2
(lp3
S'8.0'
p4
aS'cl de'
p5
aS'chocolat'
p6
aa(lp7
S'4.0'
p8
aS'cl de'
p9
aS'liqueur de coco (cocogif, malibu)'
p10
aa(lp11
S'1.0'
p12
aS'trait de'
p13
aS'sirop de sucre de canne'
p14
aa(lp15
S'1.0'
p16
aS'pinc\xc3\xa9es de'
p17
aS'chocolat'
p18
aa(lp19
S'1.0'
p20
aS'pinc\xc3\xa9es de'
p21
aS'noix de coco r\xc3\xa2p\xc3\xa9e'
p22
aa(lp23
S'1.0'
p24
aS'cuill\xc3\xa8re de'
p25
aS'noix de coco'
p26
aa(lp27
S'1.0'
p28
aS'cuill\xc3\xa8re de'
p29
aS'cr\xc3\xa8me chantilly'
p30
aaa.