(lp0
S'The king charles'
p1
aF5.0
aI1
a(lp2
(lp3
S'2.0'
p4
aS'traits de'
p5
aS'jus de citrons'
p6
aa(lp7
S'1.0'
p8
aS'cl de'
p9
aS'sirop de grenadine'
p10
aa(lp11
S'3.0'
p12
aS'cl de'
p13
aS'gin'
p14
aa(lp15
S'3.0'
p16
aS'cl de'
p17
aS"liqueur d'abricots (abricot brandy)"
p18
aaa.