(lp0
S'Floc me up'
p1
aF4.0
aI1
a(lp2
(lp3
S'4.0'
p4
aS'cl de'
p5
aS'floc de gascogne blanc'
p6
aa(lp7
S'2.0'
p8
aS'cl de'
p9
aS'vodka au citron'
p10
aa(lp11
S'1.0'
p12
aS'cl de'
p13
aS'sirop de sucre de canne'
p14
aa(lp15
S'0.5'
p16
aS'None'
p17
aS'kumbawa'
p18
aa(lp19
S'0.5'
p20
aS'None'
p21
aS'citrons vert'
p22
aa(lp23
S'1.0'
p24
aS'None'
p25
aS'kiwi'
p26
aa(lp27
S'1.0'
p28
aS'rondelle de'
p29
aS'concombres'
p30
aaa.