(lp0
S'Da\xc3\xafquiri Barbados'
p1
aF4.0
aI5
a(lp2
(lp3
S'6.0'
p4
aS'cl de'
p5
aS'rhum blanc'
p6
aa(lp7
S'1.5'
p8
aS'cl de'
p9
aS'sirop de sucre de canne'
p10
aa(lp11
S'1.5'
p12
aS'cl de'
p13
aS'jus de citrons verts'
p14
aa(lp15
S'0.5'
p16
aS'cl de'
p17
aS'triple sec (cointreau, grand marnier)'
p18
aaa.