(lp0
S'C and T'
p1
aF4.0
aI33
a(lp2
(lp3
S'15.0'
p4
aS'cl de'
p5
aS'jus de tomates'
p6
aa(lp7
S'0.5'
p8
aS'None'
p9
aS'concombre'
p10
aa(lp11
S'None'
p12
aS'None'
p13
aS'persil'
p14
aa(lp15
S'None'
p16
aS'None'
p17
aS'sel de c\xc3\xa9leri'
p18
aa(lp19
S'None'
p20
aS'None'
p21
aS'poivre'
p22
aaa.