(lp0
S'Louisiane'
p1
aF3.5
aI2
a(lp2
(lp3
S'4.0'
p4
aS'cl de'
p5
aS'whisky (bourbon, whiskey)'
p6
aa(lp7
S'0.5'
p8
aS'cl de'
p9
aS'amaretto'
p10
aa(lp11
S'2.0'
p12
aS'cl de'
p13
aS'cr\xc3\xa8me de p\xc3\xaache de vigne'
p14
aaa.