(lp0
S'Mexican coffee'
p1
aF3.3
aI61
a(lp2
(lp3
S'2.0'
p4
aS'cl de'
p5
aS'liqueur de caf\xc3\xa9 (kahlua, marie brizard)'
p6
aa(lp7
S'2.0'
p8
aS'cl de'
p9
aS'tequila'
p10
aa(lp11
S'4.0'
p12
aS'cl de'
p13
aS'caf\xc3\xa9'
p14
aa(lp15
S'None'
p16
aS'None'
p17
aS'cr\xc3\xa8me chantilly'
p18
aaa.