(lp0
S'Aurore'
p1
aF2.0
aI2
a(lp2
(lp3
S'None'
p4
aS'None'
p5
aS'champagne'
p6
aa(lp7
S'3.0'
p8
aS'cl de'
p9
aS'vodka'
p10
aa(lp11
S'2.0'
p12
aS'cl de'
p13
aS'liqueur de fraises'
p14
aa(lp15
S'0.5'
p16
aS'cl de'
p17
aS"sirop d'orgeat"
p18
aa(lp19
S'1.0'
p20
aS'cl de'
p21
aS'liqueur de caf\xc3\xa9 (kahlua, marie brizard)'
p22
aaa.