(lp0
S'Exotic Lagoon'
p1
aF2.8
aI5
a(lp2
(lp3
S'4.0'
p4
aS'cl de'
p5
aS'vodka'
p6
aa(lp7
S'2.0'
p8
aS'cl de'
p9
aS'cura\xc3\xa7ao bleu'
p10
aa(lp11
S'2.0'
p12
aS'cl de'
p13
aS'melocot\xc3\xb3n'
p14
aa(lp15
S'6.0'
p16
aS'cl de'
p17
aS'jus de fruit de la passion (maracuja)'
p18
aa(lp19
S'2.0'
p20
aS'cl de'
p21
aS'jus de citrons'
p22
aa(lp23
S'2.0'
p24
aS'cl de'
p25
aS'sirop de grenadine'
p26
aaa.