(lp0
S'2G (Glamour Gloss)'
p1
aF2.7
aI19
a(lp2
(lp3
S'1.5'
p4
aS'cl de'
p5
aS'jus de citrons'
p6
aa(lp7
S'3.0'
p8
aS'cl de'
p9
aS'gin'
p10
aa(lp11
S'3.0'
p12
aS'cl de'
p13
aS'gloss de suze'
p14
aa(lp15
S'0.5'
p16
aS'cl de'
p17
aS'sirop de gingembre'
p18
aa(lp19
S'2.0'
p20
aS"\xc3\xa9corces d'"
p21
aS'oranges'
p22
aaa.