(lp0
S'Whirlaway'
p1
aF2.0
aI3
a(lp2
(lp3
S'6.0'
p4
aS'cl de'
p5
aS'whisky (bourbon, whiskey)'
p6
aa(lp7
S'3.0'
p8
aS'cl de'
p9
aS'triple sec (cointreau, grand marnier)'
p10
aa(lp11
S'3.0'
p12
aS"traits d'"
p13
aS'angostura bitters'
p14
aa(lp15
S'None'
p16
aS'None'
p17
aS'eau gazeuse (perrier, salvetat)'
p18
aaa.