(lp0
S'Sunburn'
p1
aF3.9
aI13
a(lp2
(lp3
S'3.0'
p4
aS'cl de'
p5
aS'triple sec (cointreau, grand marnier)'
p6
aa(lp7
S'3.0'
p8
aS'cl de'
p9
aS'tequila'
p10
aa(lp11
S'7.5'
p12
aS'cl de'
p13
aS'jus de cranberry (canneberges)'
p14
aaa.