(lp0
S'Lady Scarlett'
p1
aF2.7
aI3
a(lp2
(lp3
S'2.0'
p4
aS'cl de'
p5
aS'gin'
p6
aa(lp7
S'2.0'
p8
aS'cl de'
p9
aS'triple sec (cointreau, grand marnier)'
p10
aa(lp11
S'1.0'
p12
aS'cl de'
p13
aS'vermouth dry (martini, noilly prat)'
p14
aa(lp15
S'1.0'
p16
aS'cl de'
p17
aS'jus de citrons'
p18
aa(lp19
S'1.0'
p20
aS'cl de'
p21
aS'angostura bitters'
p22
aaa.