(lp0
S'Pastis n\xc2\xb03'
p1
aF3.8
aI4
a(lp2
(lp3
S'1.0'
p4
aS'litre de '
p5
aS'vodka'
p6
aa(lp7
S'5.0'
p8
aS"cl d'"
p9
aS"extrait d'anis pur"
p10
aa(lp11
S'80.0'
p12
aS'grammes de'
p13
aS'sucre'
p14
aa(lp15
S'0.5'
p16
aS'None'
p17
aS'b\xc3\xa2tons de r\xc3\xa9glisse'
p18
aaa.