(lp0
S'Health Potion'
p1
aF3.4
aI26
a(lp2
(lp3
S'2.0'
p4
aS'cl de'
p5
aS"sirop d'hibiscus"
p6
aa(lp7
S'1.0'
p8
aS'cl de'
p9
aS'concentr\xc3\xa9 de th\xc3\xa9 cha\xc3\xaf'
p10
aa(lp11
S'8.0'
p12
aS'cl de'
p13
aS"jus d'ananas"
p14
aaa.