(lp0
S'Grand guevara'
p1
aF3.5
aI11
a(lp2
(lp3
S'3.0'
p4
aS'cl de'
p5
aS'rhum cubain'
p6
aa(lp7
S'3.0'
p8
aS'cl de'
p9
aS'triple sec (cointreau, grand marnier)'
p10
aa(lp11
S'6.0'
p12
aS'cl de'
p13
aS'ginger beer'
p14
aa(lp15
S'2.0'
p16
aS'cl de'
p17
aS'citrons verts'
p18
aa(lp19
S'2.0'
p20
aS'cl de'
p21
aS'sirop de miel'
p22
aa(lp23
S'5.0'
p24
aS'feuilles de'
p25
aS'basilic'
p26
aaa.