(lp0
S'Y\xc3\xa9tiko'
p1
aF2.0
aI4
a(lp2
(lp3
S'0.025'
p4
aS'None'
p5
aS'citron'
p6
aa(lp7
S'None'
p8
aS'quelques morceaux de'
p9
aS'gingembre'
p10
aa(lp11
S'2.5'
p12
aS"cl d'"
p13
aS'eau gazeuse (perrier, salvetat)'
p14
aa(lp15
S'0.05'
p16
aS'None'
p17
aS'figue'
p18
aa(lp19
S'0.5'
p20
aS'None'
p21
aS'raisins secs'
p22
aa(lp23
S'2.5'
p24
aS"cl d'"
p25
aS'eau'
p26
aa(lp27
S'0.05'
p28
aS'pinc\xc3\xa9e de'
p29
aS'th\xc3\xa9 de ceylan'
p30
aaa.