(lp0
S'Belvedere'
p1
aF4.0
aI2
a(lp2
(lp3
S'0.5'
p4
aS'cl de'
p5
aS'jus de mangues'
p6
aa(lp7
S'2.0'
p8
aS'cl de'
p9
aS"jus d'oranges"
p10
aa(lp11
S'1.5'
p12
aS'cl de'
p13
aS'eau-de-vie de poires williams'
p14
aa(lp15
S'3.0'
p16
aS'cl de'
p17
aS'cr\xc3\xa8me de p\xc3\xaache de vigne'
p18
aaa.