(lp0
S'Belmar'
p1
aF2.4
aI12
a(lp2
(lp3
S'0.25'
p4
aS'de'
p5
aS'gin'
p6
aa(lp7
S'0.625'
p8
aS'de'
p9
aS"jus d'oranges"
p10
aa(lp11
S'0.125'
p12
aS'de'
p13
aS'cr\xc3\xaame de cassi'
p14
aa(lp15
S'0.5'
p16
aS'cl de'
p17
aS'jus de citrons'
p18
aaa.