(lp0
S'Link Up'
p1
aF4.0
aI4
a(lp2
(lp3
S'5.0'
p4
aS'cl de'
p5
aS'liqueur de p\xc3\xaaches'
p6
aa(lp7
S'5.0'
p8
aS'cl de'
p9
aS'vodka'
p10
aa(lp11
S'None'
p12
aS"jus d'un demi"
p13
aS'citrons verts'
p14
aaa.