(lp0
S'Pink valley'
p1
aF3.7
aI3
a(lp2
(lp3
S'0.5'
p4
aS'cl de'
p5
aS'mandarines'
p6
aa(lp7
S'0.5'
p8
aS'cl de'
p9
aS'jus de citrons'
p10
aa(lp11
S'2.0'
p12
aS'cl de'
p13
aS'irish mist'
p14
aa(lp15
S'2.0'
p16
aS'cl de'
p17
aS'liqueur mandarine napol\xc3\xa9on'
p18
aa(lp19
S'2.0'
p20
aS'cl de'
p21
aS'gin'
p22
aaa.