(lp0
S'Hot golden kiss'
p1
aF3.0
aI2
a(lp2
(lp3
S'2.0'
p4
aS'cuill\xc3\xa8re \xc3\xa0 caf\xc3\xa9 de'
p5
aS'sucre roux (cassonade)'
p6
aa(lp7
S'2.0'
p8
aS"jaune d'"
p9
aS'oeufs'
p10
aa(lp11
S'5.0'
p12
aS'cl de'
p13
aS'cr\xc3\xa8me fra\xc3\xaeche liquide'
p14
aa(lp15
S'8.0'
p16
aS'cl de'
p17
aS'th\xc3\xa9'
p18
aa(lp19
S'1.0'
p20
aS'cuill\xc3\xa8re \xc3\xa0 caf\xc3\xa9 de'
p21
aS'sucre'
p22
aaa.