(lp0
S'Vin chaud'
p1
aF2.9
aI103
a(lp2
(lp3
S'1.0'
p4
aS'cl de'
p5
aS'jus de citrons'
p6
aa(lp7
S'15.0'
p8
aS'cl de'
p9
aS'vin rouge'
p10
aa(lp11
S'3.0'
p12
aS'None'
p13
aS'clous de girofle'
p14
aa(lp15
S'3.0'
p16
aS'pinc\xc3\xa9es de'
p17
aS'cannelle'
p18
aa(lp19
S'2.0'
p20
aS'cuill\xc3\xa8res \xc3\xa0 caf\xc3\xa9 de'
p21
aS'sucre'
p22
aaa.