(lp0
S'Martineye'
p1
aF3.0
aI14
a(lp2
(lp3
S'2.0'
p4
aS'cl de'
p5
aS'sirop de bubble gum'
p6
aa(lp7
S'4.0'
p8
aS'cl de'
p9
aS'vodka'
p10
aa(lp11
S'1.0'
p12
aS'cl de'
p13
aS'vermouth blanc (martini, cinzano)'
p14
aa(lp15
S'1.0'
p16
aS'None'
p17
aS"confiserie en forme d'oeil"
p18
aaa.