(lp0
S'Morning Edition'
p1
aF3.5
aI2
a(lp2
(lp3
S'1.0'
p4
aS'None'
p5
aS'banane'
p6
aa(lp7
S'10.0'
p8
aS'cl de'
p9
aS'lait'
p10
aa(lp11
S'1.0'
p12
aS'cuill\xc3\xa8re \xc3\xa0 caf\xc3\xa9 de'
p13
aS'chicor\xc3\xa9e'
p14
aa(lp15
S'2.0'
p16
aS'cl de'
p17
aS'sirop de chocolat blanc'
p18
aaa.