(lp0
S'HBK death strike'
p1
aF4.0
aI1
a(lp2
(lp3
S'4.0'
p4
aS'cl de'
p5
aS'gin'
p6
aa(lp7
S'4.0'
p8
aS'cl de'
p9
aS'tequila'
p10
aa(lp11
S'4.0'
p12
aS'cl de'
p13
aS'vodka'
p14
aa(lp15
S'4.0'
p16
aS'cl de'
p17
aS'liqueur de coco (cocogif, malibu)'
p18
aa(lp19
S'4.0'
p20
aS'cl de'
p21
aS'liqueur de menthe verte (get 27)'
p22
aa(lp23
S'8.0'
p24
aS'cl de'
p25
aS"jus d'oranges"
p26
aaa.