(lp0
S'Chocolat Chamallow'
p1
aF3.6
aI5
a(lp2
(lp3
S'75.0'
p4
aS'grammes de'
p5
aS'chocolat'
p6
aa(lp7
S'2.0'
p8
aS'cuill\xc3\xa8res \xc3\xa0 caf\xc3\xa9 de'
p9
aS'sucre'
p10
aa(lp11
S'20.0'
p12
aS'cl de'
p13
aS'lait'
p14
aa(lp15
S'30.0'
p16
aS'cl de'
p17
aS'cr\xc3\xa8me fra\xc3\xaeche liquide'
p18
aa(lp19
S'None'
p20
aS'None'
p21
aS'marshmallows (chamallows)'
p22
aaa.