(lp0
S'Tonifiant'
p1
aF3.0
aI3
a(lp2
(lp3
S'1.5'
p4
aS'cl de'
p5
aS'jus de carottes'
p6
aa(lp7
S'2.0'
p8
aS'cl de'
p9
aS'jus de cresson'
p10
aa(lp11
S'1.5'
p12
aS'cl de'
p13
aS'jus de radis'
p14
aa(lp15
S'1.5'
p16
aS'cl de'
p17
aS'jus de tomates'
p18
aa(lp19
S'0.5'
p20
aS'cl de'
p21
aS'jus de citrons verts'
p22
aaa.