(lp0
S'Yellow submarine'
p1
aF5.0
aI1
a(lp2
(lp3
S'2.0'
p4
aS'cl de'
p5
aS'sirop de citrons'
p6
aa(lp7
S'2.0'
p8
aS'cl de'
p9
aS'vodka'
p10
aa(lp11
S'3.0'
p12
aS'cl de'
p13
aS'cura\xc3\xa7ao bleu'
p14
aaa.