(lp0
S'Emer\xc3\xaele'
p1
aF3.3
aI3
a(lp2
(lp3
S'2.0'
p4
aS'cl de'
p5
aS'cr\xc3\xa8me de bananes'
p6
aa(lp7
S'2.0'
p8
aS'cl de'
p9
aS'liqueur de framboises'
p10
aa(lp11
S'1.0'
p12
aS'trait de'
p13
aS'gin'
p14
aaa.