(lp0
S'Coco dream'
p1
aF4.0
aI2
a(lp2
(lp3
S'0.5'
p4
aS'cl de'
p5
aS'sirop de miel'
p6
aa(lp7
S'2.0'
p8
aS'cl de'
p9
aS'cr\xc3\xa8me fra\xc3\xaeche liquide'
p10
aa(lp11
S'2.0'
p12
aS'cl de'
p13
aS'liqueur de coco (cocogif, malibu)'
p14
aa(lp15
S'2.0'
p16
aS'cl de'
p17
aS'amaretto'
p18
aa(lp19
S'2.0'
p20
aS'cl de'
p21
aS'liqueur de bananes (pisang ambon)'
p22
aaa.