(lp0
S'Robin Wood'
p1
aF3.7
aI3
a(lp2
(lp3
S'2.0'
p4
aS'cl de'
p5
aS'cr\xc3\xa8me fra\xc3\xaeche liquide'
p6
aa(lp7
S'1.5'
p8
aS'cl de'
p9
aS'sirop de chocolat'
p10
aa(lp11
S'2.5'
p12
aS'cl de'
p13
aS'liqueur de fraises des bois'
p14
aa(lp15
S'3.0'
p16
aS'cl de'
p17
aS'cognac'
p18
aaa.