(lp0
S'Interrogation'
p1
aF3.2
aI5
a(lp2
(lp3
S'4.0'
p4
aS'cl de'
p5
aS'rhum blanc'
p6
aa(lp7
S'4.0'
p8
aS'cl de'
p9
aS'jus de fruits exotiques'
p10
aa(lp11
S'2.0'
p12
aS'cl de'
p13
aS'liqueur de framboises'
p14
aaa.