(lp0
S'Bossa Nova'
p1
aF3.3
aI3
a(lp2
(lp3
S'4.0'
p4
aS'cl de'
p5
aS'rhum ambr\xc3\xa9'
p6
aa(lp7
S'2.0'
p8
aS'cl de'
p9
aS'galliano'
p10
aa(lp11
S'1.0'
p12
aS'cl de'
p13
aS"liqueur d'abricots (abricot brandy)"
p14
aa(lp15
S'3.0'
p16
aS'cl de'
p17
aS"jus d'abricots"
p18
aa(lp19
S'2.0'
p20
aS'cl de'
p21
aS"jus d'ananas"
p22
aa(lp23
S'3.0'
p24
aS'cl de'
p25
aS'jus de citrons verts'
p26
aa(lp27
S'1.0'
p28
aS'cl de'
p29
aS'sirop de sucre de canne'
p30
aaa.