(lp0
S'French Prohibition Milk'
p1
aF4.0
aI1
a(lp2
(lp3
S'2.0'
p4
aS"cl d'"
p5
aS'absinthe'
p6
aa(lp7
S'1.0'
p8
aS'None'
p9
aS'yaourt nature'
p10
aa(lp11
S'1.0'
p12
aS'cl de'
p13
aS'triple sec (cointreau, grand marnier)'
p14
aa(lp15
S'1.0'
p16
aS'sirop de'
p17
aS"sirop de pain d'\xc3\xa9pices"
p18
aaa.