(lp0
S'Doogh'
p1
aF2.9
aI10
a(lp2
(lp3
S'1.0'
p4
aS'None'
p5
aS'yaourt nature'
p6
aa(lp7
S'25.0'
p8
aS"cl d'"
p9
aS'eau'
p10
aa(lp11
S'1.0'
p12
aS'pinc\xc3\xa9e de'
p13
aS'sel'
p14
aa(lp15
S'1.0'
p16
aS'branche de'
p17
aS'menthe'
p18
aaa.