(lp0
S'Burgundy Spring Punch'
p1
aF2.4
aI9
a(lp2
(lp3
S'3.0'
p4
aS'None'
p5
aS'framboises'
p6
aa(lp7
S'3.0'
p8
aS'cl de'
p9
aS'vodka'
p10
aa(lp11
S'1.5'
p12
aS'cl de'
p13
aS'cr\xc3\xa8me de framboises'
p14
aa(lp15
S'None'
p16
aS'None'
p17
aS'vin mousseux'
p18
aa(lp19
S'2.0'
p20
aS'cl de'
p21
aS'jus de citrons'
p22
aaa.