(lp0
S'Fantasio'
p1
aF3.5
aI2
a(lp2
(lp3
S'3.0'
p4
aS'cl de'
p5
aS"jus d'ananas"
p6
aa(lp7
S'2.0'
p8
aS'cl de'
p9
aS'gin'
p10
aa(lp11
S'1.5'
p12
aS'cl de'
p13
aS'liqueur de fraises'
p14
aa(lp15
S'0.5'
p16
aS'cl de'
p17
aS'cr\xc3\xa8me de bananes'
p18
aaa.