(lp0
S'Cocktil'
p1
aF1.5
aI6
a(lp2
(lp3
S'0.75'
p4
aS'de'
p5
aS'marc italien (grappa)'
p6
aa(lp7
S'0.25'
p8
aS'de'
p9
aS"sirop d'orgeat"
p10
aa(lp11
S'None'
p12
aS'quelques gouttes de'
p13
aS'liqueur de menthe verte (get 27)'
p14
aaa.