(lp0
S'Baby blues'
p1
aF4.1
aI68
a(lp2
(lp3
S'2.0'
p4
aS'cl de'
p5
aS'sirop de bubble gum'
p6
aa(lp7
S'10.0'
p8
aS'cl de'
p9
aS'jus de pommes'
p10
aa(lp11
S'None'
p12
aS'None'
p13
aS'limonade (soda, sprite, 7up)'
p14
aaa.