(lp0
S'Spring fever'
p1
aF3.8
aI38
a(lp2
(lp3
S'2.0'
p4
aS'cl de'
p5
aS'sirop de mangue'
p6
aa(lp7
S'2.0'
p8
aS'cl de'
p9
aS'jus de citrons'
p10
aa(lp11
S'2.0'
p12
aS'cl de'
p13
aS'jus de cerises'
p14
aa(lp15
S'2.0'
p16
aS'cl de'
p17
aS'jus de fruit de la passion (maracuja)'
p18
aa(lp19
S'2.0'
p20
aS'cl de'
p21
aS"jus d'ananas"
p22
aa(lp23
S'6.0'
p24
aS'cl de'
p25
aS"jus d'oranges sanguines"
p26
aaa.