(lp0
S'Frangelico Alexander'
p1
aF4.0
aI3
a(lp2
(lp3
S'0.25'
p4
aS'de'
p5
aS'frangelico'
p6
aa(lp7
S'0.25'
p8
aS'de'
p9
aS'cognac'
p10
aa(lp11
S'0.5'
p12
aS'de'
p13
aS'sorbet \xc3\xa0 la vanille'
p14
aaa.