(lp0
S'Perfect Whiskey Sour'
p1
aF3.5
aI8
a(lp2
(lp3
S'3.0'
p4
aS'cl de'
p5
aS'jus de citrons verts'
p6
aa(lp7
S'1.5'
p8
aS'cl de'
p9
aS'sirop de sucre de canne'
p10
aa(lp11
S'1.5'
p12
aS"cl d'un blanc d'"
p13
aS'oeufs'
p14
aa(lp15
S'2.0'
p16
aS"traits d'"
p17
aS'angostura bitters'
p18
aa(lp19
S'6.0'
p20
aS'cl de'
p21
aS'whisky (bourbon, whiskey)'
p22
aaa.