(lp0
S'Bacardi Cocktail'
p1
aF3.4
aI191
a(lp2
(lp3
S'0.5'
p4
aS'cl de'
p5
aS'sirop de grenadine'
p6
aa(lp7
S'2.0'
p8
aS'cl de'
p9
aS'jus de citrons'
p10
aa(lp11
S'4.0'
p12
aS'cl de'
p13
aS'rhum cubain'
p14
aaa.