(lp0
S'Monkey Island'
p1
aF3.5
aI4
a(lp2
(lp3
S'4.0'
p4
aS'cl de'
p5
aS'vodka'
p6
aa(lp7
S'1.0'
p8
aS'cl de'
p9
aS'jus de citrons verts'
p10
aa(lp11
S'1.5'
p12
aS'cl de'
p13
aS'sirop de p\xc3\xaache'
p14
aa(lp15
S'8.0'
p16
aS'cl de'
p17
aS'jus de cranberry (canneberges)'
p18
aa(lp19
S'1.0'
p20
aS'trait de'
p21
aS'sirop de grenadine'
p22
aaa.