(lp0
S'Pink Valentine'
p1
aF3.0
aI2
a(lp2
(lp3
S'3.0'
p4
aS'cl de'
p5
aS'gin'
p6
aa(lp7
S'5.0'
p8
aS'cl de'
p9
aS'gloss de suze'
p10
aa(lp11
S'0.5'
p12
aS'cl de'
p13
aS'sirop de sucre de canne'
p14
aa(lp15
S'3.0'
p16
aS'cl de'
p17
aS'triple sec (cointreau, grand marnier)'
p18
aaa.