(lp0
S'Pink Mojito'
p1
aF2.8
aI37
a(lp2
(lp3
S'5.0'
p4
aS'cl de'
p5
aS'porto pink'
p6
aa(lp7
S'10.0'
p8
aS"cl d'"
p9
aS'eau gazeuse (perrier, salvetat)'
p10
aa(lp11
S'1.0'
p12
aS'trait de'
p13
aS'sirop de citrons'
p14
aa(lp15
S'5.0'
p16
aS'feuilles de'
p17
aS'menthe'
p18
aa(lp19
S'0.5'
p20
aS'cuill\xc3\xa8re \xc3\xa0 soupe de'
p21
aS'sucre roux (cassonade)'
p22
aaa.