(lp0
S'Glace au chocolat'
p1
aF3.6
aI64
a(lp2
(lp3
S'1.2'
p4
aS"jaunes d'"
p5
aS'oeufs'
p6
aa(lp7
S'40.0'
p8
aS'grammes de'
p9
aS'sucre'
p10
aa(lp11
S'10.0'
p12
aS'cl de'
p13
aS'lait'
p14
aa(lp15
S'6.0'
p16
aS'cl de'
p17
aS'cr\xc3\xa8me fra\xc3\xaeche liquide'
p18
aa(lp19
S'20.0'
p20
aS'grammes de'
p21
aS'cacao en poudre'
p22
aaa.