(lp0
S'American Chaser'
p1
aF2.5
aI2
a(lp2
(lp3
S'1.5'
p4
aS'cl de'
p5
aS'cognac'
p6
aa(lp7
S'1.5'
p8
aS'cl de'
p9
aS'chartreuse verte'
p10
aa(lp11
S'1.5'
p12
aS'cl de'
p13
aS'triple sec (cointreau, grand marnier)'
p14
aa(lp15
S'1.5'
p16
aS'cl de'
p17
aS'marasquin'
p18
aaa.