(lp0
S'Optimist'
p1
aF3.0
aI1
a(lp2
(lp3
S'1.0'
p4
aS'None'
p5
aS'cerise'
p6
aa(lp7
S'1.0'
p8
aS"tranche d'"
p9
aS"jus d'ananas"
p10
aa(lp11
S'0.5'
p12
aS"rondelle d'"
p13
aS"jus d'oranges"
p14
aa(lp15
S'None'
p16
aS'jus'
p17
aS"jus d'oranges"
p18
aa(lp19
S'0.5'
p20
aS'cl de'
p21
aS'jus de fruit de la passion (maracuja)'
p22
aa(lp23
S'2.0'
p24
aS'cl de'
p25
aS"jus d'ananas"
p26
aa(lp27
S'2.0'
p28
aS'cl de'
p29
aS'cr\xc3\xa8me de cassis'
p30
aa(lp31
S'3.0'
p32
aS'cl de'
p33
aS'gin'
p34
aaa.