(lp0
S'Aramis le coquin'
p1
aF3.7
aI43
a(lp2
(lp3
S'1.0'
p4
aS'cl de'
p5
aS'sirop de roses'
p6
aa(lp7
S'3.0'
p8
aS'cl de'
p9
aS'pousse rapi\xc3\xa8re'
p10
aa(lp11
S'None'
p12
aS'None'
p13
aS'limonade (soda, sprite, 7up)'
p14
aaa.