(lp0
S"Ile d'ischia"
p1
aF2.5
aI2
a(lp2
(lp3
S'2.0'
p4
aS'cl de'
p5
aS'eau gazeuse (perrier, salvetat)'
p6
aa(lp7
S'5.0'
p8
aS'cl de'
p9
aS"jus d'ananas"
p10
aa(lp11
S'8.0'
p12
aS'cl de'
p13
aS"jus d'oranges"
p14
aa(lp15
S'5.0'
p16
aS'cl de'
p17
aS'jus de pamplemousses'
p18
aaa.