(lp0
S'Pangolin'
p1
aF3.9
aI17
a(lp2
(lp3
S'2.0'
p4
aS'cl de'
p5
aS'jus de papaye'
p6
aa(lp7
S'2.0'
p8
aS'cl de'
p9
aS'jus de pamplemousses'
p10
aa(lp11
S'1.0'
p12
aS'cl de'
p13
aS'rhum blanc'
p14
aa(lp15
S'1.0'
p16
aS'cl de'
p17
aS'cura\xc3\xa7ao bleu'
p18
aaa.