(lp0
S'Samerreto'
p1
aF2.7
aI7
a(lp2
(lp3
S'5.0'
p4
aS'cl de'
p5
aS'vodka'
p6
aa(lp7
S'10.0'
p8
aS'cl de'
p9
aS"jus d'oranges"
p10
aa(lp11
S'1.0'
p12
aS'pinc\xc3\xa9e de'
p13
aS'sel'
p14
aa(lp15
S'None'
p16
aS"quelques gouttes d'"
p17
aS'amaretto'
p18
aaa.