(lp0
S'Continental Sour'
p1
aF3.5
aI8
a(lp2
(lp3
S'6.0'
p4
aS'cl de'
p5
aS'whisky (bourbon, whiskey)'
p6
aa(lp7
S'1.0'
p8
aS'None'
p9
aS'citron'
p10
aa(lp11
S'2.0'
p12
aS'cl de'
p13
aS'sirop de sucre de canne'
p14
aa(lp15
S'1.0'
p16
aS'cl de'
p17
aS'porto rouge'
p18
aaa.