(lp0
S'Luguillau'
p1
aF3.0
aI1
a(lp2
(lp3
S'9.0'
p4
aS'cl de'
p5
aS'sirop de menthe'
p6
aa(lp7
S'3.0'
p8
aS'cl de'
p9
aS"jus d'oranges"
p10
aa(lp11
S'1.0'
p12
aS'cl de'
p13
aS'jus de citrons'
p14
aa(lp15
S'6.0'
p16
aS'cl de'
p17
aS'sirop de fruit de la passion (maracuja)'
p18
aa(lp19
S'1.0'
p20
aS'cl de'
p21
aS'sirop de grenadine'
p22
aaa.