(lp0
S'Dario smile'
p1
aF3.5
aI2
a(lp2
(lp3
S'None'
p4
aS'None'
p5
aS'bitter lemon'
p6
aa(lp7
S'4.0'
p8
aS'cl de'
p9
aS'gin'
p10
aa(lp11
S'0.5'
p12
aS'cl de'
p13
aS'angostura bitters'
p14
aa(lp15
S'3.0'
p16
aS'cl de'
p17
aS'liqueur mandarine napol\xc3\xa9on'
p18
aaa.