(lp0
S'Olympic 84'
p1
aF3.6
aI5
a(lp2
(lp3
S'0.5'
p4
aS'cl de'
p5
aS'sirop de fraises'
p6
aa(lp7
S'1.5'
p8
aS'cl de'
p9
aS'liqueur de menthe verte (get 27)'
p10
aa(lp11
S'2.0'
p12
aS'cl de'
p13
aS'triple sec (cointreau, grand marnier)'
p14
aa(lp15
S'3.5'
p16
aS'cl de'
p17
aS'liqueur de p\xc3\xaaches'
p18
aaa.