(lp0
S'Dumbarton dream'
p1
aF3.3
aI11
a(lp2
(lp3
S'1.0'
p4
aS"blanc d'"
p5
aS'oeufs'
p6
aa(lp7
S'2.0'
p8
aS'cl de'
p9
aS'whisky (bourbon, whiskey)'
p10
aa(lp11
S'1.5'
p12
aS'cl de'
p13
aS'liqueur de fraises'
p14
aa(lp15
S'0.5'
p16
aS'cl de'
p17
aS'liqueur de bananes (pisang ambon)'
p18
aa(lp19
S'3.0'
p20
aS'cl de'
p21
aS"jus d'oranges"
p22
aaa.