(lp0
S'Kiss Gin'
p1
aF2.4
aI14
a(lp2
(lp3
S'2.0'
p4
aS'cl de'
p5
aS'gin'
p6
aa(lp7
S'None'
p8
aS"jus d'un"
p9
aS'citrons verts'
p10
aa(lp11
S'1.0'
p12
aS'cl de'
p13
aS'sirop de gingembre'
p14
aa(lp15
S'4.0'
p16
aS'cl de'
p17
aS'vermouth rouge (martini, cinzano)'
p18
aaa.