(lp0
S'Brother'
p1
aF4.0
aI3
a(lp2
(lp3
S'50.0'
p4
aS'%'
p5
aS'angostura bitters'
p6
aa(lp7
S'50.0'
p8
ag5
aS'limonade (soda, sprite, 7up)'
p9
aa(lp10
S'None'
p11
aS'None'
p12
aS'piments rouges'
p13
aaa.