(lp0
S'Frozen Bridge'
p1
aF3.9
aI27
a(lp2
(lp3
S'4.0'
p4
aS'cl de'
p5
aS'vodka'
p6
aa(lp7
S'3.0'
p8
aS'cl de'
p9
aS'jus de mangues'
p10
aa(lp11
S'1.0'
p12
aS'trait de'
p13
aS'sirop de grenadine'
p14
aaa.