(lp0
S'Love story  2'
p1
aF2.0
aI4
a(lp2
(lp3
S'None'
p4
aS'None'
p5
aS'vin mousseux'
p6
aa(lp7
S'0.5'
p8
aS'cl de'
p9
aS'sirop de grenadine'
p10
aa(lp11
S'2.0'
p12
aS'cl de'
p13
aS'triple sec (cointreau, grand marnier)'
p14
aa(lp15
S'2.0'
p16
aS'cl de'
p17
aS'kirsch'
p18
aa(lp19
S'1.5'
p20
aS'cl de'
p21
aS'jus de fruit de la passion (maracuja)'
p22
aa(lp23
S'3.0'
p24
aS'cl de'
p25
aS'gin'
p26
aaa.