(lp0
S'Vodka gingembre'
p1
aF3.5
aI26
a(lp2
(lp3
S'0.5'
p4
aS'cuill\xc3\xa8res a caf\xc3\xa9 de'
p5
aS'sucre'
p6
aa(lp7
S'10.0'
p8
aS'cl de'
p9
aS'vodka'
p10
aa(lp11
S'25.0'
p12
aS'grammes de'
p13
aS'gingembre'
p14
aaa.