(lp0
S'Caramba'
p1
aF3.0
aI1
a(lp2
(lp3
S'3.0'
p4
aS'cl de'
p5
aS'tequila'
p6
aa(lp7
S'2.0'
p8
aS'cl de'
p9
aS'liqueur de caf\xc3\xa9 (kahlua, marie brizard)'
p10
aa(lp11
S'2.0'
p12
aS'cl de'
p13
aS'b\xc3\xa9n\xc3\xa9dictine'
p14
aa(lp15
S'3.0'
p16
aS'trais de'
p17
aS'cr\xc3\xa8me fra\xc3\xaeche liquide'
p18
aaa.