(lp0
S'Perfect Mojito'
p1
aF3.0
aI54
a(lp2
(lp3
S'3.0'
p4
aS'cl de'
p5
aS'sirop de mojito'
p6
aa(lp7
S'6.0'
p8
aS'cl de'
p9
aS'rhum cubain'
p10
aa(lp11
S'None'
p12
aS'None'
p13
aS'eau gazeuse (perrier, salvetat)'
p14
aa(lp15
S'None'
p16
aS'feuilles de'
p17
aS'menthe'
p18
aaa.