(lp0
S'Milky Way'
p1
aF4.2
aI9
a(lp2
(lp3
S'3.0'
p4
aS'cl de'
p5
aS'gin'
p6
aa(lp7
S'3.0'
p8
aS"cl d'"
p9
aS'amaretto'
p10
aa(lp11
S'1.0'
p12
aS'cl de'
p13
aS'liqueur de fraises'
p14
aa(lp15
S'1.5'
p16
aS'cl de'
p17
aS'sirop de fraises'
p18
aa(lp19
S'3.0'
p20
aS'cl de'
p21
aS"jus d'ananas"
p22
aaa.