(lp0
S'Walking Dead'
p1
aF3.0
aI21
a(lp2
(lp3
S'1.0'
p4
aS'cl de'
p5
aS'vodka'
p6
aa(lp7
S'2.0'
p8
aS'cl de'
p9
aS'whisky (bourbon, whiskey)'
p10
aa(lp11
S'1.0'
p12
aS'cl de'
p13
aS'cr\xc3\xa8me de whisky (baileys)'
p14
aa(lp15
S'1.0'
p16
aS'cl de'
p17
aS'liqueur de past\xc3\xa8ques'
p18
aa(lp19
S'1.0'
p20
aS'cl de'
p21
aS'j\xc3\xa4germeister'
p22
aa(lp23
S'1.0'
p24
aS"cl d'"
p25
aS'absinthe'
p26
aa(lp27
S'None'
p28
aS'None'
p29
aS'bi\xc3\xa8re'
p30
aaa.