(lp0
S'Don didi'
p1
aF2.0
aI2
a(lp2
(lp3
S'1.0'
p4
aS'bouteille de'
p5
aS'alcool \xc3\xa0 95\xc2\xb0'
p6
aa(lp7
S'0.5'
p8
aS'litres de'
p9
aS'cr\xc3\xa8me fra\xc3\xaeche liquide'
p10
aa(lp11
S'100.0'
p12
aS'grammes de'
p13
aS'c\xc3\xa9leri'
p14
aaa.