(lp0
S'California sunset'
p1
aF3.4
aI5
a(lp2
(lp3
S'2.0'
p4
aS'cl de'
p5
aS'tequila'
p6
aa(lp7
S'2.0'
p8
aS'cl de'
p9
aS'cura\xc3\xa7ao bleu'
p10
aa(lp11
S'1.0'
p12
aS'cl de'
p13
aS'citrons'
p14
aa(lp15
S'3.0'
p16
aS'cl de'
p17
aS'champagne'
p18
aa(lp19
S'3.0'
p20
aS'cl de'
p21
aS'triple sec (cointreau, grand marnier)'
p22
aa(lp23
S'1.0'
p24
aS'gouttes de'
p25
aS"jus d'oranges"
p26
aa(lp27
S'2.0'
p28
aS'gouttes de'
p29
aS'sirop de fraises'
p30
aa(lp31
S'1.0'
p32
aS'zeste de'
p33
aS'citrons'
p34
aa(lp35
S'1.0'
p36
aS'zeste de'
p37
aS'oranges'
p38
aaa.