(lp0
S'Jonaa'
p1
aF2.0
aI1
a(lp2
(lp3
S'12.0'
p4
aS'cl de'
p5
aS'tonic (schweppes)'
p6
aa(lp7
S'2.0'
p8
aS'cl de'
p9
aS'soho carambole'
p10
aa(lp11
S'4.0'
p12
aS'cl de'
p13
aS'sirop de citron vert'
p14
aaa.