(lp0
S'Billiard Bull'
p1
aF3.5
aI55
a(lp2
(lp3
S'5.0'
p4
aS'cl de'
p5
aS'rhum cubain'
p6
aa(lp7
S'3.0'
p8
aS'morceaux de'
p9
aS'citrons verts'
p10
aa(lp11
S'1.0'
p12
aS'cl de'
p13
aS'sirop de citrons'
p14
aa(lp15
S'None'
p16
aS'None'
p17
aS'limonade (soda, sprite, 7up)'
p18
aa(lp19
S'None'
p20
aS'None'
p21
aS'energy drink (red bull, pitbull, duff)'
p22
aaa.