(lp0
S'Rain forest'
p1
aF4.3
aI3
a(lp2
(lp3
S'None'
p4
aS'None'
p5
aS'tonic (schweppes)'
p6
aa(lp7
S'3.0'
p8
aS'cl de'
p9
aS'jus de pamplemousses'
p10
aa(lp11
S'2.0'
p12
aS'cl de'
p13
aS'rhum blanc'
p14
aa(lp15
S'1.0'
p16
aS'cl de'
p17
aS'liqueur de bananes (pisang ambon)'
p18
aa(lp19
S'1.0'
p20
aS'cl de'
p21
aS'jus de papaye'
p22
aa(lp23
S'1.0'
p24
aS'cl de'
p25
aS'cura\xc3\xa7ao bleu'
p26
aaa.