(lp0
S'Pikaki'
p1
aF2.0
aI5
a(lp2
(lp3
S'1.0'
p4
aS'cl de'
p5
aS"jus d'ananas"
p6
aa(lp7
S'2.0'
p8
aS'cl de'
p9
aS'jus de citrons'
p10
aa(lp11
S'2.0'
p12
aS'cl de'
p13
aS"jus d'oranges"
p14
aa(lp15
S'1.0'
p16
aS'cl de'
p17
aS'sirop de grenadine'
p18
aa(lp19
S'4.0'
p20
aS'cl de'
p21
aS'rhum ambr\xc3\xa9'
p22
aaa.