(lp0
S'Choco lips'
p1
aF4.0
aI13
a(lp2
(lp3
S'2.0'
p4
aS'cl de'
p5
aS'liqueur de cacao brun'
p6
aa(lp7
S'2.0'
p8
aS'cl de'
p9
aS'sirop de menthe'
p10
aa(lp11
S'5.0'
p12
aS'cl de'
p13
aS'cr\xc3\xa8me fra\xc3\xaeche liquide'
p14
aaa.