(lp0
S'Basil Beauty'
p1
aF3.7
aI3
a(lp2
(lp3
S'6.0'
p4
aS'feuilles de'
p5
aS'basilic'
p6
aa(lp7
S'1.0'
p8
aS'None'
p9
aS'fruit de la passion (maracuja)'
p10
aa(lp11
S'4.0'
p12
aS'cl de'
p13
aS'vodka'
p14
aa(lp15
S'4.0'
p16
aS'cl de'
p17
aS"jus d'ananas"
p18
aa(lp19
S'1.0'
p20
aS'cl de'
p21
aS'sirop de citrons'
p22
aa(lp23
S'2.0'
p24
aS'cl de'
p25
aS'sirop de noix de coco'
p26
aaa.