(lp0
S'Dragon Ball Z GT'
p1
aF3.3
aI128
a(lp2
(lp3
S'1.0'
p4
aS'cl de'
p5
aS'vodka'
p6
aa(lp7
S'3.0'
p8
aS'cl de'
p9
aS'gold strike (goldschlager)'
p10
aa(lp11
S'3.0'
p12
aS'cl de'
p13
aS'absinthe'
p14
aaa.