(lp0
S'Ptit Schtroumpf'
p1
aF2.9
aI149
a(lp2
(lp3
S'4.0'
p4
aS'cl de'
p5
aS'lait'
p6
aa(lp7
S'3.0'
p8
aS'cl de'
p9
aS"jus d'ananas"
p10
aa(lp11
S'1.0'
p12
aS'cl de'
p13
aS'cura\xc3\xa7ao bleu'
p14
aa(lp15
S'5.0'
p16
aS'cl de'
p17
aS'vermouth blanc (martini, cinzano)'
p18
aaa.