(lp0
S'Winter cocktail'
p1
aF3.5
aI2
a(lp2
(lp3
S'2.0'
p4
aS'cl de'
p5
aS'calvados'
p6
aa(lp7
S'2.0'
p8
aS'cl de'
p9
aS'cognac'
p10
aa(lp11
S'0.5'
p12
aS'cl de'
p13
aS'parfait amour'
p14
aa(lp15
S'2.0'
p16
aS'cuill\xc3\xa8re de'
p17
aS'sucre'
p18
aaa.