(lp0
S'Baby Love'
p1
aF4.7
aI12
a(lp2
(lp3
S'0.7'
p4
aS'cl de'
p5
aS'sambuca'
p6
aa(lp7
S'4.0'
p8
aS'oz de'
p9
aS'half & half'
p10
aa(lp11
S'3.0'
p12
aS'cl de'
p13
aS'liqueur de fraises'
p14
aa(lp15
S'3.0'
p16
aS'cl de'
p17
aS'liqueur de coco (cocogif, malibu)'
p18
aaa.