(lp0
S'Cocktail soleil'
p1
aF3.6
aI222
a(lp2
(lp3
S'0.5'
p4
aS'cl de'
p5
aS'sirop de grenadine'
p6
aa(lp7
S'6.0'
p8
aS"cl d'"
p9
aS"jus d'oranges"
p10
aa(lp11
S'2.0'
p12
aS'cl de'
p13
aS'whisky (bourbon, whiskey)'
p14
aaa.