(lp0
S'Gin Sling'
p1
aF3.3
aI4
a(lp2
(lp3
S'2.0'
p4
aS'cl de'
p5
aS'liqueur de cerises (cherry brandy)'
p6
aa(lp7
S'5.0'
p8
aS'cl de'
p9
aS'gin'
p10
aa(lp11
S'None'
p12
aS'None'
p13
aS'eau gazeuse (perrier, salvetat)'
p14
aaa.