(lp0
S'Angine Brune'
p1
aF4.0
aI1
a(lp2
(lp3
S'0.5'
p4
aS'cuill\xc3\xa8re de'
p5
aS'cannelle en poudre'
p6
aa(lp7
S'2.0'
p8
aS'cl de'
p9
aS'sirop de sucre de canne'
p10
aa(lp11
S'1.0'
p12
aS'cuill\xc3\xa8re de'
p13
aS'sirop de miel'
p14
aa(lp15
S'3.0'
p16
aS'cl de'
p17
aS'sirop de citron vert'
p18
aa(lp19
S'4.0'
p20
aS'cl de'
p21
aS'rhum blanc'
p22
aa(lp23
S'10.0'
p24
aS'cl de'
p25
aS'eau'
p26
aaa.