(lp0
S'Latte Macchiatto Caramel'
p1
aF3.9
aI21
a(lp2
(lp3
S'0.166666666667'
p4
aS'litre de'
p5
aS'lait'
p6
aa(lp7
S'3.33333333333'
p8
aS'cl de'
p9
aS'caf\xc3\xa9'
p10
aa(lp11
S'1.66666666667'
p12
aS'cl de'
p13
aS'sirop de caramel'
p14
aaa.