(lp0
S'Marnissimo coffee'
p1
aF3.6
aI26
a(lp2
(lp3
S'None'
p4
aS'None'
p5
aS'cr\xc3\xa8me fra\xc3\xaeche liquide'
p6
aa(lp7
S'3.0'
p8
aS'cl de'
p9
aS'triple sec (cointreau, grand marnier)'
p10
aa(lp11
S'0.5'
p12
aS'cl de'
p13
aS'sucre'
p14
aa(lp15
S'6.0'
p16
aS'cl de'
p17
aS'caf\xc3\xa9'
p18
aaa.