(lp0
S'Green Day'
p1
aF4.5
aI2
a(lp2
(lp3
S'1.0'
p4
aS"cl d'"
p5
aS'escorial verde'
p6
aa(lp7
S'1.0'
p8
aS'cl de'
p9
aS'liqueur de bananes (pisang ambon)'
p10
aa(lp11
S'5.0'
p12
aS'cl de'
p13
aS'ginger ale (canada dry)'
p14
aaa.