(lp0
S'La tron\xc3\xa7onneuse'
p1
aF3.0
aI5
a(lp2
(lp3
S'2.5'
p4
aS'cl de'
p5
aS'calvados'
p6
aa(lp7
S'2.5'
p8
aS'cl de'
p9
aS'eau-de-vie de framboises'
p10
aa(lp11
S'2.5'
p12
aS'cl de'
p13
aS'liqueur de lychees (soho, litchao)'
p14
aa(lp15
S'2.5'
p16
aS'cl de'
p17
aS'sirop de sucre de canne'
p18
aa(lp19
S'7.5'
p20
aS'cl de'
p21
aS'cidre'
p22
aaa.