(lp0
S'Sheldon'
p1
aF3.0
aI3
a(lp2
(lp3
S'1.0'
p4
aS'cl de'
p5
aS'liqueur de poire'
p6
aa(lp7
S'0.5'
p8
aS'cl de'
p9
aS'liqueur de cerises (cherry brandy)'
p10
aa(lp11
S'2.0'
p12
aS'cl de'
p13
aS'vermouth blanc (martini, cinzano)'
p14
aa(lp15
S'3.0'
p16
aS'cl de'
p17
aS'gin'
p18
aaa.