(lp0
S'Vin de rhubarbe'
p1
aF3.2
aI111
a(lp2
(lp3
S'0.15'
p4
aS'litres de'
p5
aS'jus de rhubarbe'
p6
aa(lp7
S'0.2'
p8
aS"litres d'"
p9
aS'eau'
p10
aa(lp11
S'0.125'
p12
aS'kilos de'
p13
aS'sucre'
p14
aaa.