(lp0
S'Bora bora'
p1
aF3.3
aI783
a(lp2
(lp3
S'10.0'
p4
aS'cl de'
p5
aS"jus d'ananas"
p6
aa(lp7
S'6.0'
p8
aS'cl de'
p9
aS'jus de fruit de la passion (maracuja)'
p10
aa(lp11
S'2.0'
p12
aS'cl de'
p13
aS'sirop de grenadine'
p14
aa(lp15
S'1.0'
p16
aS'cl de'
p17
aS'jus de citrons'
p18
aaa.