(lp0
S'Lait de grog'
p1
aF2.5
aI2
a(lp2
(lp3
S'4.0'
p4
aS"jaunes d'"
p5
aS'oeufs'
p6
aa(lp7
S'2.0'
p8
aS'cl de'
p9
aS'sirop de sucre de canne'
p10
aa(lp11
S'5.0'
p12
aS'cl de'
p13
aS'lait'
p14
aa(lp15
S'2.0'
p16
aS'cl de'
p17
aS'cr\xc3\xa8me fra\xc3\xaeche liquide'
p18
aa(lp19
S'4.0'
p20
aS'cl de'
p21
aS'rhum blanc'
p22
aa(lp23
S'1.0'
p24
aS'cl de'
p25
aS'sirop de chocolat blanc'
p26
aaa.