(lp0
S'Bloody Bitch'
p1
aF3.4
aI11
a(lp2
(lp3
S'2.0'
p4
aS'cl de'
p5
aS"sirop d'orange sanguine"
p6
aa(lp7
S'1.0'
p8
aS'de'
p9
aS"sirop d'\xc3\xa9pices (spicy)"
p10
aa(lp11
S'2.0'
p12
aS'cl de'
p13
aS'chambord'
p14
aa(lp15
S'4.0'
p16
aS'cl de'
p17
aS'jus de cranberry (canneberges)'
p18
aa(lp19
S'1.0'
p20
aS'cl de'
p21
aS'sirop de gingembre'
p22
aa(lp23
S'None'
p24
aS'None'
p25
aS'eau gazeuse (perrier, salvetat)'
p26
aaa.