(lp0
S'Hakuna Matata'
p1
aF4.1
aI19
a(lp2
(lp3
S'4.0'
p4
aS'cl de'
p5
aS'rhum blanc'
p6
aa(lp7
S'2.0'
p8
aS'cl de'
p9
aS'cr\xc3\xa8me de bananes'
p10
aa(lp11
S'6.0'
p12
aS'cl de'
p13
aS'sweet & sour'
p14
aa(lp15
S'6.0'
p16
aS'cl de'
p17
aS"jus d'ananas"
p18
aaa.