(lp0
S'Macca'
p1
aF3.7
aI23
a(lp2
(lp3
S'None'
p4
aS'None'
p5
aS'limonade (soda, sprite, 7up)'
p6
aa(lp7
S'2.0'
p8
aS'cl de'
p9
aS'vermouth dry (martini, noilly prat)'
p10
aa(lp11
S'2.0'
p12
aS'cl de'
p13
aS'vermouth rouge (martini, cinzano)'
p14
aa(lp15
S'2.0'
p16
aS'cl de'
p17
aS'gin'
p18
aa(lp19
S'0.5'
p20
aS'cl de'
p21
aS'cr\xc3\xa8me de cassis'
p22
aaa.