(lp0
S'Brazilian Rose'
p1
aF3.7
aI28
a(lp2
(lp3
S'5.0'
p4
aS'cl de'
p5
aS'cacha\xc3\xa7a'
p6
aa(lp7
S'10.0'
p8
aS'cl de'
p9
aS'jus de goyaves'
p10
aa(lp11
S'0.5'
p12
aS'cl de'
p13
aS'triple sec (cointreau, grand marnier)'
p14
aaa.