(lp0
S"L'os blanc"
p1
aF3.3
aI4
a(lp2
(lp3
S'None'
p4
aS'None'
p5
aS'lait'
p6
aa(lp7
S'3.0'
p8
aS'cl de'
p9
aS'vodka'
p10
aa(lp11
S'3.0'
p12
aS'cl de'
p13
aS'liqueur de caf\xc3\xa9 (kahlua, marie brizard)'
p14
aaa.