(lp0
S'Goldie'
p1
aF3.8
aI16
a(lp2
(lp3
S'None'
p4
aS'None'
p5
aS"soda \xc3\xa0 l'orange (orangina)"
p6
aa(lp7
S'2.0'
p8
aS'cl de'
p9
aS'rhum blanc'
p10
aa(lp11
S'2.0'
p12
aS'cl de'
p13
aS"jus d'oranges"
p14
aa(lp15
S'1.0'
p16
aS'cl de'
p17
aS'triple sec (cointreau, grand marnier)'
p18
aa(lp19
S'1.0'
p20
aS'cl de'
p21
aS'liqueur de cerises (cherry brandy)'
p22
aaa.