(lp0
S'Jerba'
p1
aF3.8
aI5
a(lp2
(lp3
S'2.0'
p4
aS'cl de'
p5
aS'liqueur de menthe verte (get 27)'
p6
aa(lp7
S'2.0'
p8
aS'cl de'
p9
aS'sirop de sucre de canne'
p10
aa(lp11
S'2.0'
p12
aS'cl de'
p13
aS'alcool de figue (boukha)'
p14
aa(lp15
S'None'
p16
aS'None'
p17
aS'eau gazeuse (perrier, salvetat)'
p18
aaa.