(lp0
S'Hiroshima'
p1
aF2.7
aI3
a(lp2
(lp3
S'4.0'
p4
aS'cl de'
p5
aS'whisky (bourbon, whiskey)'
p6
aa(lp7
S'5.0'
p8
aS'cl de'
p9
aS'rhum blanc'
p10
aa(lp11
S'4.0'
p12
aS'cl de'
p13
aS'liqueur de coco (cocogif, malibu)'
p14
aa(lp15
S'8.0'
p16
aS'cl de'
p17
aS'jus de fruit de la passion (maracuja)'
p18
aa(lp19
S'1.0'
p20
aS'cl de'
p21
aS'sirop de fraises'
p22
aa(lp23
S'1.0'
p24
aS'cl de'
p25
aS'cura\xc3\xa7ao bleu'
p26
aa(lp27
S'1.0'
p28
aS'cl de'
p29
aS'lait de coco'
p30
aaa.