(lp0
S'Caf\xc3\xa9 Viennois'
p1
aF3.2
aI83
a(lp2
(lp3
S'None'
p4
aS'None'
p5
aS'cr\xc3\xa8me fra\xc3\xaeche liquide'
p6
aa(lp7
S'20.0'
p8
aS'cl de'
p9
aS'lait'
p10
aa(lp11
S'1.0'
p12
aS'None'
p13
aS'caf\xc3\xa9'
p14
aaa.