(lp0
S'P\xc3\xa8re chartreux'
p1
aF4.0
aI1
a(lp2
(lp3
S'2.0'
p4
aS'cl de'
p5
aS'chartreuse verte'
p6
aa(lp7
S'2.0'
p8
aS"cl d'"
p9
aS'eau-de-vie de framboises'
p10
aa(lp11
S'2.0'
p12
aS'cl de'
p13
aS'tisane de menthe fra\xc3\xaeche'
p14
aaa.