(lp0
S'Ruby Sunday'
p1
aF3.7
aI7
a(lp2
(lp3
S'6.0'
p4
aS'cl de'
p5
aS'vodka'
p6
aa(lp7
S'12.0'
p8
aS'cl de'
p9
aS'jus de fraises'
p10
aa(lp11
S'8.0'
p12
aS'cl de'
p13
aS'jus de pommes'
p14
aa(lp15
S'1.5'
p16
aS'cl de'
p17
aS'jus de citrons'
p18
aa(lp19
S'1.5'
p20
aS'cl de'
p21
aS'sirop de vanille'
p22
aaa.