(lp0
S'Pina Margarita'
p1
aF3.1
aI101
a(lp2
(lp3
S'1.0'
p4
aS'cl de'
p5
aS'triple sec (cointreau, grand marnier)'
p6
aa(lp7
S'3.0'
p8
aS'cl de'
p9
aS'tequila'
p10
aa(lp11
S'5.0'
p12
aS'cl de'
p13
aS"jus d'ananas"
p14
aa(lp15
S'1.0'
p16
aS'cl de'
p17
aS'sirop de sucre de canne'
p18
aa(lp19
S'2.0'
p20
aS'cl de'
p21
aS'sirop de noix de coco'
p22
aaa.