(lp0
S'Plein ciel'
p1
aF4.2
aI6
a(lp2
(lp3
S'0.5'
p4
aS'cl de'
p5
aS'sirop de grenadine'
p6
aa(lp7
S'3.0'
p8
aS'cl de'
p9
aS'whisky (bourbon, whiskey)'
p10
aa(lp11
S'2.0'
p12
aS'cl de'
p13
aS'triple sec (cointreau, grand marnier)'
p14
aa(lp15
S'2.0'
p16
aS'cl de'
p17
aS'vermouth blanc (martini, cinzano)'
p18
aaa.