(lp0
S'Cojitas'
p1
aF4.0
aI2
a(lp2
(lp3
S'4.0'
p4
aS'cl'
p5
aS'cognac'
p6
aa(lp7
S'1.0'
p8
aS'cl'
p9
aS'jus de citrons'
p10
aa(lp11
S'1.0'
p12
aS'bouquet  de'
p13
aS'menthe'
p14
aa(lp15
S'5.0'
p16
aS'cl'
p17
aS'ginger ale (canada dry)'
p18
aa(lp19
S'1.0'
p20
aS"tranche d'"
p21
aS'oranges'
p22
aaa.