(lp0
S'Rose Road'
p1
aF3.4
aI62
a(lp2
(lp3
S'4.0'
p4
aS'cl de'
p5
aS'gin'
p6
aa(lp7
S'2.0'
p8
aS'cl de'
p9
aS'vermouth blanc (martini, cinzano)'
p10
aa(lp11
S'2.0'
p12
aS'cl de'
p13
aS'liqueur de cerises (cherry brandy)'
p14
aaa.