(lp0
S'Choucroutas'
p1
aF3.1
aI25
a(lp2
(lp3
S'2.0'
p4
aS'cl de'
p5
aS'jus de citrons'
p6
aa(lp7
S'2.0'
p8
aS'cl de'
p9
aS'angostura bitters'
p10
aa(lp11
S'3.0'
p12
aS'cl de'
p13
aS'jus de choucroute'
p14
aa(lp15
S'3.0'
p16
aS'cl de'
p17
aS'bi\xc3\xa8re'
p18
aaa.