(lp0
S'Old Fashioned'
p1
aF3.3
aI76
a(lp2
(lp3
S'None'
p4
aS'None'
p5
aS'eau gazeuse (perrier, salvetat)'
p6
aa(lp7
S'1.0'
p8
aS'morceau de'
p9
aS'sucre'
p10
aa(lp11
S'1.0'
p12
aS'trait de'
p13
aS'angostura bitters'
p14
aa(lp15
S'5.0'
p16
aS'cl de'
p17
aS'whisky (bourbon, whiskey)'
p18
aa(lp19
S'1.0'
p20
aS"zeste d'"
p21
aS'oranges'
p22
aaa.