(lp0
S'Alize Bleu'
p1
aF3.3
aI156
a(lp2
(lp3
S'2.0'
p4
aS'cl de'
p5
aS'cura\xc3\xa7ao bleu'
p6
aa(lp7
S'5.0'
p8
aS'cl de'
p9
aS'rhum blanc'
p10
aa(lp11
S'2.0'
p12
aS'cl de'
p13
aS'jus de citrons'
p14
aaa.