(lp0
S'Blackberry mojito'
p1
aF3.7
aI14
a(lp2
(lp3
S'2.0'
p4
aS'cl de'
p5
aS'sirop de m\xc3\xbbre'
p6
aa(lp7
S'2.0'
p8
aS'cl de'
p9
aS'liqueur de menthe blanche (get 31)'
p10
aa(lp11
S'1.0'
p12
aS'cl de'
p13
aS'lime cordial'
p14
aa(lp15
S'6.0'
p16
aS'cl de'
p17
aS'rhum cubain'
p18
aa(lp19
S'None'
p20
aS'None'
p21
aS'eau gazeuse (perrier, salvetat)'
p22
aaa.