(lp0
S'Strawberry Banana Smoothie'
p1
aF2.5
aI2
a(lp2
(lp3
S'4.0'
p4
aS'cl de'
p5
aS'pur\xc3\xa9e de fraise'
p6
aa(lp7
S'4.0'
p8
aS'cl de'
p9
aS'jus de kiwi'
p10
aa(lp11
S'2.0'
p12
aS'cl de'
p13
aS'rhum blanc'
p14
aa(lp15
S'1.0'
p16
aS'None'
p17
aS'yaourt nature'
p18
aa(lp19
S'1.0'
p20
aS'None'
p21
aS'banane'
p22
aaa.