(lp0
S'Elmina'
p1
aF4.6
aI5
a(lp2
(lp3
S'4.0'
p4
aS'cl de'
p5
aS'liqueur de poire'
p6
aa(lp7
S'2.0'
p8
aS'cl de'
p9
aS'gold strike (goldschlager)'
p10
aa(lp11
S'4.0'
p12
aS'cl de'
p13
aS'calvados'
p14
aaa.