(lp0
S'Smoosie Cumcumber'
p1
aF3.0
aI6
a(lp2
(lp3
S'1.0'
p4
aS'None'
p5
aS'tomate'
p6
aa(lp7
S'0.5'
p8
aS'None'
p9
aS'concombre'
p10
aa(lp11
S'1.0'
p12
aS'None'
p13
aS'yaourt nature'
p14
aa(lp15
S'1.0'
p16
aS'None'
p17
aS'citron'
p18
aa(lp19
S'None'
p20
aS'None'
p21
aS'persil'
p22
aaa.