(lp0
S"YDM's Punch"
p1
aF2.9
aI11
a(lp2
(lp3
S'8.75'
p4
aS'cl de'
p5
aS'rhum blanc'
p6
aa(lp7
S'12.5'
p8
aS'cl de'
p9
aS"jus d'ananas"
p10
aa(lp11
S'12.5'
p12
aS'cl de'
p13
aS'jus de mangues'
p14
aa(lp15
S'1.25'
p16
aS'cl de'
p17
aS'rhum ambr\xc3\xa9'
p18
aa(lp19
S'0.125'
p20
aS'cuill\xc3\xa8re de'
p21
aS'vanille'
p22
aa(lp23
S'0.125'
p24
aS'cuill\xc3\xa8re de'
p25
aS'sucre vanille'
p26
aa(lp27
S'0.375'
p28
aS'pinc\xc3\xa9es de'
p29
aS'muscade'
p30
aaa.