(lp0
S'Sky bunny'
p1
aF3.1
aI57
a(lp2
(lp3
S'30.0'
p4
aS'cl de'
p5
aS'bi\xc3\xa8re'
p6
aa(lp7
S'2.0'
p8
aS'cl de'
p9
aS'rhum blanc'
p10
aa(lp11
S'3.0'
p12
aS"jaune d'"
p13
aS'oeufs'
p14
aa(lp15
S'1.0'
p16
aS'pinc\xc3\xa9e de'
p17
aS'cardamone en poudre'
p18
aa(lp19
S'1.0'
p20
aS'cl de'
p21
aS'sirop de cannelle'
p22
aa(lp23
S'1.0'
p24
aS'cl de'
p25
aS'sirop de gingembre'
p26
aaa.