(lp0
S'Coulis de framboises'
p1
aF4.1
aI24
a(lp2
(lp3
S'4.0'
p4
aS'grammes de'
p5
aS'sucre'
p6
aa(lp7
S'37.5'
p8
aS'grammes de'
p9
aS'framboises'
p10
aa(lp11
S'0.05'
p12
aS'None'
p13
aS'citron'
p14
aaa.