(lp0
S'Coulis de caramel'
p1
aF3.6
aI27
a(lp2
(lp3
S'0.15'
p4
aS"cuill\xc3\xa8res \xc3\xa0 soupe d'"
p5
aS'eau'
p6
aa(lp7
S'6.0'
p8
aS'grammes de'
p9
aS'sucre'
p10
aa(lp11
S'0.5'
p12
aS'cl de'
p13
aS'cr\xc3\xa8me fra\xc3\xaeche liquide'
p14
aaa.