(lp0
S'Royal Smile'
p1
aF3.3
aI3
a(lp2
(lp3
S'4.0'
p4
aS'cl de'
p5
aS'gin'
p6
aa(lp7
S'2.0'
p8
aS'cl de'
p9
aS'calvados'
p10
aa(lp11
S'3.0'
p12
aS'traits de'
p13
aS'sirop de grenadine'
p14
aa(lp15
S'3.0'
p16
aS'traits de'
p17
aS'jus de citrons'
p18
aaa.