(lp0
S'Punch litchis'
p1
aF2.5
aI12
a(lp2
(lp3
S'0.5'
p4
aS'cl de'
p5
aS'liqueur de lychees (soho, litchao)'
p6
aa(lp7
S'0.15'
p8
aS'litres de'
p9
aS'limonade (soda, sprite, 7up)'
p10
aa(lp11
S'1.25'
p12
aS'cl de'
p13
aS'gin'
p14
aaa.