(lp0
S'Rheingold 2'
p1
aF3.0
aI1
a(lp2
(lp3
S'0.5'
p4
aS'volumes de'
p5
aS'gin'
p6
aa(lp7
S'0.3'
p8
aS'volumes de'
p9
aS'triple sec (cointreau, grand marnier)'
p10
aa(lp11
S'0.1'
p12
aS'volumes de'
p13
aS'vermouth dry (martini, noilly prat)'
p14
aa(lp15
S'0.1'
p16
aS'volumes de'
p17
aS'angostura bitters'
p18
aa(lp19
S'1.0'
p20
aS"zeste d'"
p21
aS'oranges'
p22
aaa.