(lp0
S"Monkey's Lunch"
p1
aF3.7
aI14
a(lp2
(lp3
S'3.0'
p4
aS'cl de'
p5
aS'liqueur de caf\xc3\x83\xc2\xa9 (kahlua, marie brizard)'
p6
aa(lp7
S'3.0'
p8
aS'cl de'
p9
aS'cr\xc3\x83\xc2\xa8me de bananes'
p10
aa(lp11
S'12.0'
p12
aS'cl de'
p13
aS'lait'
p14
aaa.