(lp0
S'Green in light'
p1
aF3.7
aI3
a(lp2
(lp3
S'1.0'
p4
aS'points de'
p5
aS'raifort (wasabi)'
p6
aa(lp7
S'2.0'
p8
aS'cl de'
p9
aS'lime cordial'
p10
aa(lp11
S'None'
p12
aS'None'
p13
aS'schweppes lemon'
p14
aa(lp15
S'2.0'
p16
aS'cl de'
p17
aS'liqueur st-germain'
p18
aa(lp19
S'4.0'
p20
aS'cl de'
p21
aS'gin'
p22
aaa.