(lp0
S'Maud'
p1
aF4.4
aI7
a(lp2
(lp3
S'3.0'
p4
aS'cl de'
p5
aS'donjon'
p6
aa(lp7
S'2.0'
p8
aS'cl de'
p9
aS'vodka'
p10
aa(lp11
S'1.0'
p12
aS'cl de'
p13
aS'liqueur de bananes (pisang ambon)'
p14
aa(lp15
S'1.0'
p16
aS'cl de'
p17
aS'cr\xc3\xa8me de fraises'
p18
aa(lp19
S'1.0'
p20
aS'cl de'
p21
aS"jus d'ananas"
p22
aaa.