(lp0
S'Hammer'
p1
aF4.5
aI2
a(lp2
(lp3
S'9.0'
p4
aS'cl de'
p5
aS'liqueur de coco (cocogif, malibu)'
p6
aa(lp7
S'6.0'
p8
aS'cl de'
p9
aS'schnapps \xc3\xa0 la p\xc3\xaache'
p10
aa(lp11
S'6.0'
p12
aS'cl de'
p13
aS'limonade (soda, sprite, 7up)'
p14
aaa.