(lp0
S'Tequila dry cocktail'
p1
aF3.2
aI28
a(lp2
(lp3
S'4.0'
p4
aS'cl de'
p5
aS'tequila'
p6
aa(lp7
S'1.5'
p8
aS'cl de'
p9
aS'triple sec (cointreau, grand marnier)'
p10
aa(lp11
S'1.5'
p12
aS'cl de'
p13
aS'vermouth blanc (martini, cinzano)'
p14
aaa.