(lp0
S'Lychee sunrise'
p1
aF2.8
aI17
a(lp2
(lp3
S'6.0'
p4
aS'cl de'
p5
aS'liqueur de lychees (soho, litchao)'
p6
aa(lp7
S'2.0'
p8
aS'cl de'
p9
aS'sirop de grenadine'
p10
aa(lp11
S'12.0'
p12
aS'cl de'
p13
aS"schweppes agrum'"
p14
aaa.