(lp0
S'Baden-baden'
p1
aF4.4
aI5
a(lp2
(lp3
S'0.5'
p4
aS'cl de'
p5
aS'cr\xc3\xa8me fra\xc3\xaeche liquide'
p6
aa(lp7
S'0.5'
p8
aS'cl de'
p9
aS'sirop de grenadine'
p10
aa(lp11
S'4.0'
p12
aS'cl de'
p13
aS"jus d'oranges"
p14
aa(lp15
S'1.0'
p16
aS'cl de'
p17
aS'cocody'
p18
aa(lp19
S'3.0'
p20
aS'cl de'
p21
aS"liqueur d'abricots (abricot brandy)"
p22
aa(lp23
S'1.0'
p24
aS'cl de'
p25
aS'gin'
p26
aaa.