(lp0
S'Caf\xc3\xa9 \xc3\xa9pic\xc3\xa9'
p1
aF4.0
aI3
a(lp2
(lp3
S'None'
p4
aS'None'
p5
aS'caf\xc3\xa9'
p6
aa(lp7
S'0.25'
p8
aS'gousse de'
p9
aS'cardamome'
p10
aa(lp11
S'0.25'
p12
aS'cuill\xc3\xa8re \xc3\xa0 caf\xc3\xa9 de'
p13
aS'cannelle'
p14
aa(lp15
S'None'
p16
aS'None'
p17
aS'sucre roux (cassonade)'
p18
aa(lp19
S'0.25'
p20
aS'boule de'
p21
aS'sorbet \xc3\xa0 la vanille'
p22
aaa.