(lp0
S'Ratafia de cerises'
p1
aF3.2
aI146
a(lp2
(lp3
S'0.8'
p4
aS'grammes de'
p5
aS'levure de bi\xc3\xa8re'
p6
aa(lp7
S'0.1'
p8
aS"litres d'"
p9
aS'alcool \xc3\xa0 45\xc2\xb0'
p10
aa(lp11
S'0.05'
p12
aS'kilo de'
p13
aS'sucre'
p14
aa(lp15
S'0.2'
p16
aS'grammes de'
p17
aS'noix de muscade r\xc3\xa2p\xc3\xa9e'
p18
aa(lp19
S'0.5'
p20
aS'kilos de'
p21
aS'cerises'
p22
aa(lp23
S'0.05'
p24
aS'\xc3\xa9corce de'
p25
aS'cannelle'
p26
aaa.