(lp0
S'Bubble coco'
p1
aF4.0
aI2
a(lp2
(lp3
S'3.0'
p4
aS'cl de'
p5
aS'liqueur de coco (cocogif, malibu)'
p6
aa(lp7
S'3.0'
p8
aS'cl de'
p9
aS'sirop de bubble gum'
p10
aa(lp11
S'None'
p12
aS'None'
p13
aS'tonic (schweppes)'
p14
aaa.