(lp0
S'Mojito Basilic'
p1
aF2.7
aI33
a(lp2
(lp3
S'6.0'
p4
aS'feuilles de'
p5
aS'basilic'
p6
aa(lp7
S'1.0'
p8
aS'cl de'
p9
aS'sirop de basilic'
p10
aa(lp11
S'5.0'
p12
aS'cl de'
p13
aS'rhum cubain'
p14
aa(lp15
S'3.0'
p16
aS'cl de'
p17
aS'jus de citrons verts'
p18
aa(lp19
S'None'
p20
aS'None'
p21
aS'eau gazeuse (perrier, salvetat)'
p22
aaa.