(lp0
S'Bananas paradize'
p1
aF3.7
aI7
a(lp2
(lp3
S'4.0'
p4
aS'cl de'
p5
aS'liqueur de bananes (pisang ambon)'
p6
aa(lp7
S'3.0'
p8
aS'cl de'
p9
aS'liqueur de coco (cocogif, malibu)'
p10
aa(lp11
S'3.0'
p12
aS'cl de'
p13
aS'vodka'
p14
aa(lp15
S'8.0'
p16
aS'cl de'
p17
aS'jus de bananes'
p18
aaa.