(lp0
S'Sirop de cassis-r\xc3\xa9glisse'
p1
aF3.0
aI3
a(lp2
(lp3
S'25.0'
p4
aS'grammes de baies de'
p5
aS'cassis'
p6
aa(lp7
S'0.0833333333333'
p8
aS'None'
p9
aS'b\xc3\xa2tons de reglisse'
p10
aa(lp11
S'7.5'
p12
aS"cl d'"
p13
aS'eau'
p14
aa(lp15
S'0.0833333333333'
p16
aS'kilo de'
p17
aS'sucre'
p18
aaa.