(lp0
S'R\xc3\xa9conciliation'
p1
aF4.0
aI1
a(lp2
(lp3
S'3.0'
p4
aS'cl de'
p5
aS'whisky (bourbon, whiskey)'
p6
aa(lp7
S'1.0'
p8
aS"cl d'"
p9
aS'angostura bitters'
p10
aa(lp11
S'1.0'
p12
aS'cl de'
p13
aS'liqueur de jasmin'
p14
aa(lp15
S'None'
p16
aS'None'
p17
aS'champagne'
p18
aaa.