(lp0
S'Frisco'
p1
aF3.0
aI1
a(lp2
(lp3
S'4.5'
p4
aS'cl de'
p5
aS'whisky (bourbon, whiskey)'
p6
aa(lp7
S'4.5'
p8
aS'cl de'
p9
aS'b\xc3\xa9n\xc3\xa9dictine'
p10
aa(lp11
S'1.0'
p12
aS'cl de'
p13
aS'jus de citrons verts'
p14
aa(lp15
S'1.0'
p16
aS'cl de'
p17
aS'jus de citrons'
p18
aaa.