(lp0
S'Please love me'
p1
aF3.7
aI7
a(lp2
(lp3
S'3.5'
p4
aS'cl de'
p5
aS'whisky (bourbon, whiskey)'
p6
aa(lp7
S'1.5'
p8
aS'cl de'
p9
aS'vermouth dry (martini, noilly prat)'
p10
aa(lp11
S'1.5'
p12
aS'cl de'
p13
aS'vermouth rouge (martini, cinzano)'
p14
aa(lp15
S'0.5'
p16
aS'cl de'
p17
aS'angostura bitters'
p18
aaa.