(lp0
S'Bittersweet Union'
p1
aF3.7
aI19
a(lp2
(lp3
S'6.0'
p4
aS'cl de'
p5
aS'jus de fruit de la passion (maracuja)'
p6
aa(lp7
S'6.0'
p8
aS'cl de'
p9
aS'jus de mangues'
p10
aa(lp11
S'2.0'
p12
aS'cl de'
p13
aS'jus de citrons'
p14
aa(lp15
S'None'
p16
aS'None'
p17
aS'limonade (soda, sprite, 7up)'
p18
aaa.