(lp0
S'Graviton'
p1
aF4.3
aI3
a(lp2
(lp3
S'None'
p4
aS'None'
p5
aS'tonic (schweppes)'
p6
aa(lp7
S'4.0'
p8
aS'cl de'
p9
aS'jus de pamplemousses'
p10
aa(lp11
S'2.0'
p12
aS'cl de'
p13
aS'cr\xc3\xa8me de fruit de la passion'
p14
aa(lp15
S'2.0'
p16
aS'cl de'
p17
aS'malibu citron'
p18
aaa.