(lp0
S'Coulis de mars'
p1
aF4.3
aI12
a(lp2
(lp3
S'3.0'
p4
aS'cl de'
p5
aS'cr\xc3\xa8me fra\xc3\xaeche liquide'
p6
aa(lp7
S'0.8'
p8
aS'None'
p9
aS'meringues'
p10
aa(lp11
S'45.0'
p12
aS'grammes de'
p13
aS'fraises'
p14
aa(lp15
S'1.5'
p16
aS'cl de'
p17
aS"jus d'oranges"
p18
aa(lp19
S'2.5'
p20
aS'grammes de'
p21
aS'sucre glace'
p22
aaa.