(lp0
S'Virgin Pina Colada'
p1
aF3.3
aI494
a(lp2
(lp3
S'3.0'
p4
aS'cl de'
p5
aS'sirop de pina colada'
p6
aa(lp7
S'2.0'
p8
aS'cl de'
p9
aS'sirop caribbean (saveur rhum)'
p10
aa(lp11
S'9.0'
p12
aS'cl de'
p13
aS'lait'
p14
aaa.