(lp0
S"Quand paris s'enflamme"
p1
aF3.8
aI4
a(lp2
(lp3
S'4.0'
p4
aS'cl de'
p5
aS'gin'
p6
aa(lp7
S'3.0'
p8
aS'cl de'
p9
aS'angostura bitters'
p10
aa(lp11
S'2.0'
p12
aS'cl de'
p13
aS'cr\xc3\xa8me de framboise'
p14
aa(lp15
S'1.0'
p16
aS'cl de'
p17
aS'sirop de fraises'
p18
aaa.