(lp0
S'Chill out'
p1
aF2.8
aI6
a(lp2
(lp3
S'4.0'
p4
aS'cl de'
p5
aS'rhum cubain'
p6
aa(lp7
S'4.0'
p8
aS'cl de'
p9
aS'triple sec (cointreau, grand marnier)'
p10
aa(lp11
S'None'
p12
aS'jus de'
p13
aS'citrons'
p14
aaa.