(lp0
S'Green chaud'
p1
aF4.2
aI9
a(lp2
(lp3
S'15.0'
p4
aS'cl de'
p5
aS'lait'
p6
aa(lp7
S'1.0'
p8
aS'cl de'
p9
aS'sirop de sucre de canne'
p10
aa(lp11
S'2.0'
p12
aS'cuill\xc3\xa8res \xc3\xa0 caf\xc3\xa9 de'
p13
aS'chocolat en poudre'
p14
aa(lp15
S'1.0'
p16
aS'cl de'
p17
aS'chartreuse verte'
p18
aaa.