(lp0
S'Love sensation'
p1
aF4.1
aI10
a(lp2
(lp3
S'4.0'
p4
aS'cl de'
p5
aS'rhum blanc'
p6
aa(lp7
S'4.0'
p8
aS'cl de'
p9
aS'jus de bananes'
p10
aa(lp11
S'8.0'
p12
aS'cl de'
p13
aS'jus de cranberry (canneberges)'
p14
aa(lp15
S'2.0'
p16
aS'cl de'
p17
aS'triple sec (cointreau, grand marnier)'
p18
aaa.