(lp0
S'Wallace Punch'
p1
aF3.0
aI2
a(lp2
(lp3
S'1.0'
p4
aS'trait de'
p5
aS'cr\xc3\xa8me de cassis'
p6
aa(lp7
S'1.0'
p8
aS'trait de'
p9
aS'sirop de roses'
p10
aa(lp11
S'5.0'
p12
aS'cl de'
p13
aS'gin'
p14
aa(lp15
S'2.5'
p16
aS'cl de'
p17
aS'pur\xc3\xa9e de cerises'
p18
aaa.