(lp0
S"L'abricotine cocktail"
p1
aF2.7
aI6
a(lp2
(lp3
S'0.25'
p4
aS'cuill\xc3\xa8re a caf\xc3\xa9 de'
p5
aS'cannelle'
p6
aa(lp7
S'0.25'
p8
aS'cl de'
p9
aS'sirop de sucre de canne'
p10
aa(lp11
S'0.25'
p12
aS'cl de'
p13
aS"sirop d'orgeat"
p14
aa(lp15
S'1.5'
p16
aS'cl de'
p17
aS"jus d'ananas"
p18
aa(lp19
S'1.5'
p20
aS'cl de'
p21
aS"jus d'abricots"
p22
aa(lp23
S'1.0'
p24
aS'cl de'
p25
aS'rhum ambr\xc3\xa9'
p26
aa(lp27
S'1.0'
p28
aS'cl de'
p29
aS'rhum blanc'
p30
aa(lp31
S'1.0'
p32
aS'cl de'
p33
aS'liqueur de lychees (soho, litchao)'
p34
aaa.