(lp0
S'Torreon'
p1
aF1.0
aI1
a(lp2
(lp3
S'2.0'
p4
aS'cl de'
p5
aS'cr\xc3\xa8me fra\xc3\xaeche liquide'
p6
aa(lp7
S'4.0'
p8
aS'cl de'
p9
aS'tequila'
p10
aa(lp11
S'3.0'
p12
aS'cl de'
p13
aS'liqueur de cacao blanc'
p14
aaa.