(lp0
S'Canaria'
p1
aF3.2
aI55
a(lp2
(lp3
S'2.0'
p4
aS'cl de'
p5
aS'rhum blanc'
p6
aa(lp7
S'2.0'
p8
aS'cl de'
p9
aS"jus d'ananas"
p10
aa(lp11
S'1.5'
p12
aS'cl de'
p13
aS"jus d'oranges"
p14
aa(lp15
S'1.5'
p16
aS'cl de'
p17
aS'liqueur de bananes (pisang ambon)'
p18
aa(lp19
S'0.5'
p20
aS'cl de'
p21
aS'sirop de grenadine'
p22
aaa.