(lp0
S'Perfect 1885'
p1
aF3.0
aI8
a(lp2
(lp3
S'2.0'
p4
aS'cl de'
p5
aS'vodka'
p6
aa(lp7
S'2.0'
p8
aS'cl de'
p9
aS"sirop d'ananas"
p10
aa(lp11
S'2.0'
p12
aS'cl de'
p13
aS'jus de fruit de la passion (maracuja)'
p14
aa(lp15
S'1.0'
p16
aS'cl de'
p17
aS'lait de coco'
p18
aa(lp19
S'1.0'
p20
aS'cl de'
p21
aS'pur\xc3\xa9e de fraise'
p22
aaa.