(lp0
S'Milk-shake Milk-ella'
p1
aF3.9
aI35
a(lp2
(lp3
S'1.0'
p4
aS'verre de'
p5
aS'lait'
p6
aa(lp7
S'1.0'
p8
aS'cuill\xc3\xa8re \xc3\xa0 caf\xc3\xa9 de'
p9
aS'nutella'
p10
aa(lp11
S'1.0'
p12
aS'sachet de'
p13
aS'sucre vanill\xc3\xa9'
p14
aaa.