(lp0
S'Whisky orange'
p1
aF3.1
aI30
a(lp2
(lp3
S'1.0'
p4
aS'jus'
p5
aS"jus d'oranges"
p6
aa(lp7
S'1.0'
p8
aS'cl de'
p9
aS'sirop de sucre de canne'
p10
aa(lp11
S'1.0'
p12
aS'cl de'
p13
aS'anisette (berger blanc)'
p14
aa(lp15
S'9.0'
p16
aS'cl de'
p17
aS'whisky (bourbon, whiskey)'
p18
aaa.