(lp0
S'Pure Class'
p1
aF2.8
aI10
a(lp2
(lp3
S'3.0'
p4
aS'cl de'
p5
aS'vodka'
p6
aa(lp7
S'4.0'
p8
aS'cl de'
p9
aS'cr\xc3\xa8me de fraises'
p10
aa(lp11
S'2.0'
p12
aS'cl de'
p13
aS'liqueur de citrons (limoncello)'
p14
aa(lp15
S'None'
p16
aS'None'
p17
aS'champagne'
p18
aaa.