(lp0
S'Willy'
p1
aF4.0
aI3
a(lp2
(lp3
S'4.0'
p4
aS'cl de'
p5
aS'whisky (bourbon, whiskey)'
p6
aa(lp7
S'2.5'
p8
aS'cl de'
p9
aS'liqueur de menthe verte (get 27)'
p10
aa(lp11
S'1.0'
p12
aS'trait de'
p13
aS'anisette (berger blanc)'
p14
aa(lp15
S'10.0'
p16
aS'cl de'
p17
aS'cola (coca cola, pepsi)'
p18
aaa.