(lp0
S'Beachcomber sa'
p1
aF3.6
aI26
a(lp2
(lp3
S'12.0'
p4
aS'cl de'
p5
aS'jus de goyaves'
p6
aa(lp7
S'4.0'
p8
aS'cl de'
p9
aS'jus de citrons verts'
p10
aa(lp11
S'2.0'
p12
aS'cl de'
p13
aS'sirop de framboises'
p14
aaa.