(lp0
S'Apple mojito'
p1
aF3.6
aI240
a(lp2
(lp3
S'6.0'
p4
aS'cl de'
p5
aS'liqueur de pommes (manzana, manzanita)'
p6
aa(lp7
S'2.0'
p8
aS'cl de'
p9
aS'jus de pommes'
p10
aa(lp11
S'6.0'
p12
aS'cl de'
p13
aS'eau gazeuse (perrier, salvetat)'
p14
aa(lp15
S'7.0'
p16
aS'None'
p17
aS'feuilles de menthe'
p18
aaa.