(lp0
S'Daikiri vanillia abricot'
p1
aF3.7
aI6
a(lp2
(lp3
S'4.0'
p4
aS'cl de'
p5
aS'rhum blanc'
p6
aa(lp7
S'2.0'
p8
aS'cl de'
p9
aS"liqueur d'abricots (abricot brandy)"
p10
aa(lp11
S'2.0'
p12
aS'cl de'
p13
aS'jus de citrons'
p14
aa(lp15
S'6.0'
p16
aS'cl de'
p17
aS"jus d'abricots"
p18
aa(lp19
S'2.0'
p20
aS'cl de'
p21
aS'sirop de vanille'
p22
aaa.