(lp0
S'Saronno per favor'
p1
aF1.0
aI2
a(lp2
(lp3
S'0.5'
p4
aS'cl de'
p5
aS'liqueur de bananes (pisang ambon)'
p6
aa(lp7
S'3.0'
p8
aS'cl de'
p9
aS'armagnac'
p10
aa(lp11
S'4.0'
p12
aS'cl de'
p13
aS'amaretto'
p14
aaa.