(lp0
S'Nain jaune'
p1
aF3.3
aI4
a(lp2
(lp3
S'0.5'
p4
aS'cl de'
p5
aS"sirop d'orgeat"
p6
aa(lp7
S'2.0'
p8
aS'cl de'
p9
aS'eau gazeuse (perrier, salvetat)'
p10
aa(lp11
S'2.0'
p12
aS'cl de'
p13
aS'sirop de fruit de la passion (maracuja)'
p14
aa(lp15
S'10.0'
p16
aS'cl de'
p17
aS'cr\xc3\xa8me fra\xc3\xaeche liquide'
p18
aa(lp19
S'1.0'
p20
aS"jaune d'"
p21
aS'oeufs'
p22
aaa.