(lp0
S'Champlure cocktail'
p1
aF2.9
aI31
a(lp2
(lp3
S'2.0'
p4
aS'cl de'
p5
aS'jus de pamplemousses roses'
p6
aa(lp7
S'0.5'
p8
aS'cl de'
p9
aS'sirop de sucre de canne'
p10
aa(lp11
S'7.0'
p12
aS'cl de'
p13
aS'vin ros\xc3\xa9'
p14
aaa.