(lp0
S'Sirop de violette'
p1
aF3.7
aI56
a(lp2
(lp3
S'50.0'
p4
aS'grammes de'
p5
aS'fleurs de violettes'
p6
aa(lp7
S'0.1'
p8
aS"litre d'"
p9
aS'eau'
p10
aa(lp11
S'0.1'
p12
aS'kilo de'
p13
aS'sucre'
p14
aaa.