(lp0
S'Ole'
p1
aF4.0
aI2
a(lp2
(lp3
S'0.5'
p4
aS'volumes de'
p5
aS'tequila'
p6
aa(lp7
S'0.5'
p8
aS'volumes de'
p9
aS'liqueur de bananes (pisang ambon)'
p10
aa(lp11
S'1.0'
p12
aS'cl de'
p13
aS'cura\xc3\xa7ao bleu'
p14
aaa.