(lp0
S'Carin'
p1
aF3.8
aI5
a(lp2
(lp3
S'0.5'
p4
aS'volumes de'
p5
aS'gin'
p6
aa(lp7
S'0.25'
p8
aS'volumes de'
p9
aS'dubonnet'
p10
aa(lp11
S'0.25'
p12
aS'volumes de'
p13
aS'liqueur mandarine napol\xc3\xa9on'
p14
aa(lp15
S'1.0'
p16
aS'zeste de'
p17
aS'citrons'
p18
aaa.