(lp0
S'The Baker'
p1
aF3.7
aI3
a(lp2
(lp3
S'3.0'
p4
aS'cl de'
p5
aS'gin'
p6
aa(lp7
S'1.0'
p8
aS'cl de'
p9
aS'cr\xc3\xa8me de bananes'
p10
aa(lp11
S'1.0'
p12
aS'trait de'
p13
aS'amaretto'
p14
aa(lp15
S'5.0'
p16
aS'cl de'
p17
aS"jus d'oranges"
p18
aa(lp19
S'5.0'
p20
aS'cl de'
p21
aS'jus de cranberry (canneberges)'
p22
aa(lp23
S'1.0'
p24
aS'trait de'
p25
aS'jus de citrons'
p26
aaa.