(lp0
S'Vin de bruy\xc3\xa8re'
p1
aF2.7
aI3
a(lp2
(lp3
S'0.05'
p4
aS'litres de'
p5
aS'vin rouge'
p6
aa(lp7
S'1.5'
p8
aS'grammes de'
p9
aS'fleurs de bruy\xc3\xa8re'
p10
aa(lp11
S'0.75'
p12
aS'grammes de'
p13
aS'baies de geni\xc3\xa8vre'
p14
aa(lp15
S'None'
p16
aS'None'
p17
aS'sucre'
p18
aaa.