(lp0
S'Melon Pearl'
p1
aF3.4
aI44
a(lp2
(lp3
S'10.0'
p4
aS'cl de'
p5
aS'jus de melons'
p6
aa(lp7
S'3.0'
p8
aS"gouttes d'"
p9
aS'alginate de sodium'
p10
aa(lp11
S'50.0'
p12
aS"cl d'"
p13
aS'eau'
p14
aa(lp15
S'5.0'
p16
aS'grammes de'
p17
aS'lactate de calcium'
p18
aa(lp19
S'3.0'
p20
aS'cl de'
p21
aS'porto blanc'
p22
aaa.