(lp0
S'Amour sanglant'
p1
aF3.3
aI32
a(lp2
(lp3
S'4.0'
p4
aS'cl de'
p5
aS'cognac'
p6
aa(lp7
S'2.0'
p8
aS'cl de'
p9
aS'liqueur de cerises (cherry brandy)'
p10
aa(lp11
S'1.0'
p12
aS'cl de'
p13
aS'liqueur de vanille'
p14
aa(lp15
S'7.0'
p16
aS'cl de'
p17
aS"jus d'oranges sanguines"
p18
aaa.