(lp0
S'Fortaleza'
p1
aF4.0
aI29
a(lp2
(lp3
S'0.666666666667'
p4
aS'de'
p5
aS"jus d'ananas"
p6
aa(lp7
S'0.333333333333'
p8
aS'de'
p9
aS'jus de fruit de la passion (maracuja)'
p10
aa(lp11
S'0.5'
p12
aS'cl de'
p13
aS'cura\xc3\xa7ao bleu'
p14
aa(lp15
S'4.0'
p16
aS'cl de'
p17
aS'rhum blanc'
p18
aaa.