(lp0
S'Sixi\xc3\xa8me Sens'
p1
aF3.2
aI5
a(lp2
(lp3
S'2.0'
p4
aS'cl de'
p5
aS'tequila'
p6
aa(lp7
S'2.0'
p8
aS'cl de'
p9
aS'liqueur de jasmin'
p10
aa(lp11
S'2.0'
p12
aS'cl de'
p13
aS'jus de cranberry (canneberges)'
p14
aa(lp15
S'2.0'
p16
aS'cl de'
p17
aS'pur\xc3\xa9e de fruits rouges'
p18
aa(lp19
S'2.0'
p20
aS'cl de'
p21
aS'liqueur de citrons (limoncello)'
p22
aa(lp23
S'2.0'
p24
aS'cl de'
p25
aS'jus de pommes'
p26
aaa.