(lp0
S'Tamoure light'
p1
aF2.0
aI2
a(lp2
(lp3
S'6.0'
p4
aS'cl de'
p5
aS'lait'
p6
aa(lp7
S'3.0'
p8
aS'cl de'
p9
aS'rhum blanc'
p10
aa(lp11
S'3.0'
p12
aS'cl de'
p13
aS'liqueur de coco (cocogif, malibu)'
p14
aa(lp15
S'1.0'
p16
aS'cl de'
p17
aS'liqueur de fraises'
p18
aaa.