(lp0
S'Yellow cab'
p1
aF3.0
aI1
a(lp2
(lp3
S'2.0'
p4
aS'cl de'
p5
aS'gin'
p6
aa(lp7
S'1.5'
p8
aS'cl de'
p9
aS'liqueur de p\xc3\xaaches'
p10
aa(lp11
S'0.5'
p12
aS'cl de'
p13
aS'safari'
p14
aa(lp15
S'1.5'
p16
aS'cl de'
p17
aS'jus de fruit de la passion (maracuja)'
p18
aa(lp19
S'1.5'
p20
aS'cl de'
p21
aS'nectar de p\xc3\xaaches'
p22
aaa.