(lp0
S'White Rose'
p1
aF5.0
aI2
a(lp2
(lp3
S'6.0'
p4
aS'cl de'
p5
aS'gin'
p6
aa(lp7
S'3.0'
p8
aS'cl de'
p9
aS'marasquin'
p10
aa(lp11
S'6.0'
p12
aS'cl de'
p13
aS"jus d'oranges"
p14
aa(lp15
S'3.0'
p16
aS'cl de'
p17
aS'jus de citrons verts'
p18
aa(lp19
S'0.5'
p20
aS'cl de'
p21
aS'sirop de sucre de canne'
p22
aa(lp23
S'1.0'
p24
aS"blanc d'"
p25
aS'oeufs'
p26
aaa.