(lp0
S'Melon patch'
p1
aF3.6
aI18
a(lp2
(lp3
S'3.0'
p4
aS'cl de'
p5
aS'midori'
p6
aa(lp7
S'1.5'
p8
aS'cl de'
p9
aS'vodka'
p10
aa(lp11
S'1.5'
p12
aS'cl de'
p13
aS'triple sec (cointreau, grand marnier)'
p14
aa(lp15
S'None'
p16
aS'None'
p17
aS'eau gazeuse (perrier, salvetat)'
p18
aaa.