(lp0
S'Cherrysev'
p1
aF4.0
aI3
a(lp2
(lp3
S'None'
p4
aS'None'
p5
aS'limonade (soda, sprite, 7up)'
p6
aa(lp7
S'1.0'
p8
aS'cl de'
p9
aS'jus de citrons'
p10
aa(lp11
S'2.0'
p12
aS'cl de'
p13
aS'sirop de cerise'
p14
aa(lp15
S'4.0'
p16
aS'cl de'
p17
aS'tequila'
p18
aaa.