(lp0
S'Verdure'
p1
aF3.5
aI20
a(lp2
(lp3
S'60.0'
p4
aS'g de'
p5
aS'chou blanc'
p6
aa(lp7
S'50.0'
p8
aS'g de'
p9
aS'salade de mache'
p10
aa(lp11
S'60.0'
p12
aS'g de'
p13
aS'concombres'
p14
aa(lp15
S'60.0'
p16
aS'g de'
p17
aS'tomate verte'
p18
aaa.