(lp0
S'Richard cobbler'
p1
aF0.0
aI0
a(lp2
(lp3
S'6.0'
p4
aS'cl de'
p5
aS'vermouth blanc (martini, cinzano)'
p6
aa(lp7
S'1.0'
p8
aS'cl de'
p9
aS'spiritueux anis\xc3\xa9 (pastis, ricard, pernod)'
p10
aa(lp11
S'0.5'
p12
aS'cl de'
p13
aS'sirop de sucre de canne'
p14
aaa.