(lp0
S'Cobra'
p1
aF3.0
aI1
a(lp2
(lp3
S'2.0'
p4
aS'cl de'
p5
aS'midori'
p6
aa(lp7
S'2.0'
p8
aS'cl de'
p9
aS'vodka'
p10
aa(lp11
S'2.0'
p12
aS'cl de'
p13
aS'licor 43'
p14
aa(lp15
S'None'
p16
aS'None'
p17
aS'lait'
p18
aa(lp19
S'None'
p20
aS'None'
p21
aS'sirop de grenadine'
p22
aaa.