(lp0
S'Chocolat flip'
p1
aF3.7
aI13
a(lp2
(lp3
S'1.0'
p4
aS"jaune d'"
p5
aS'oeufs'
p6
aa(lp7
S'1.0'
p8
aS'cuill\xc3\xa8re \xc3\xa0 caf\xc3\xa9 de'
p9
aS'sucre'
p10
aa(lp11
S'4.0'
p12
aS'cl de'
p13
aS'porto rouge'
p14
aa(lp15
S'2.0'
p16
aS'cuill\xc3\xa8res \xc3\xa0 caf\xc3\xa9 de'
p17
aS'cacao en poudre'
p18
aa(lp19
S'6.0'
p20
aS'cl de'
p21
aS'lait'
p22
aaa.