(lp0
S'Chambery fraise'
p1
aF3.8
aI8
a(lp2
(lp3
S'4.0'
p4
aS'cl de'
p5
aS'vermouth blanc (martini, cinzano)'
p6
aa(lp7
S'2.0'
p8
aS'cl de'
p9
aS'liqueur de fraises'
p10
aa(lp11
S'None'
p12
aS'None'
p13
aS'limonade (soda, sprite, 7up)'
p14
aaa.