(lp0
S'Zabriskie Cocktail'
p1
aF3.0
aI3
a(lp2
(lp3
S'0.5'
p4
aS'cl de'
p5
aS'angostura bitters'
p6
aa(lp7
S'0.5'
p8
aS'cl de'
p9
aS'marasquin'
p10
aa(lp11
S'2.0'
p12
aS'cl de'
p13
aS'vermouth dry (martini, noilly prat)'
p14
aa(lp15
S'4.0'
p16
aS'cl de'
p17
aS'gin'
p18
aaa.