(lp0
S'Entente cordiale'
p1
aF3.0
aI37
a(lp2
(lp3
S'8.0'
p4
aS'cl de'
p5
aS'champagne'
p6
aa(lp7
S'16.0'
p8
aS'cl de'
p9
aS'bi\xc3\xa8re'
p10
aa(lp11
S'2.0'
p12
aS'cl de'
p13
aS'liqueur de framboises'
p14
aaa.