(lp0
S'Fraise et son basilic'
p1
aF3.1
aI33
a(lp2
(lp3
S'6.0'
p4
aS'cl de'
p5
aS'vodka'
p6
aa(lp7
S'1.5'
p8
aS'cl de'
p9
aS'sirop de basilic'
p10
aa(lp11
S'2.0'
p12
aS'cl de'
p13
aS'sirop de fraises'
p14
aaa.