(lp0
S'Doux orgasme'
p1
aF3.2
aI140
a(lp2
(lp3
S'2.0'
p4
aS'cl de'
p5
aS'rhum blanc'
p6
aa(lp7
S'2.0'
p8
aS'cl de'
p9
aS'vodka'
p10
aa(lp11
S'2.0'
p12
aS'cl de'
p13
aS'liqueur de coco (cocogif, malibu)'
p14
aa(lp15
S'2.0'
p16
aS'cl de'
p17
aS'tequila'
p18
aa(lp19
S'4.0'
p20
aS'cl de'
p21
aS"jus d'oranges"
p22
aa(lp23
S'1.0'
p24
aS'cl de'
p25
aS"jus d'ananas"
p26
aa(lp27
S'1.0'
p28
aS'cl de'
p29
aS'jus de pamplemousses'
p30
aa(lp31
S'None'
p32
aS'None'
p33
aS'sirop de grenadine'
p34
aaa.