(lp0
S"Puits d'amour"
p1
aF2.7
aI11
a(lp2
(lp3
S'3.0'
p4
aS'cl de'
p5
aS'angostura bitters'
p6
aa(lp7
S'2.0'
p8
aS'cl de'
p9
aS'cr\xc3\xa8me de p\xc3\xaache'
p10
aa(lp11
S'1.5'
p12
aS'cl de'
p13
aS'nectar de p\xc3\xaaches'
p14
aa(lp15
S'0.5'
p16
aS'cl de'
p17
aS'jus de citrons'
p18
aaa.