(lp0
S'Marche Orientale'
p1
aF4.0
aI1
a(lp2
(lp3
S'4.0'
p4
aS'cl de'
p5
aS'vodka'
p6
aa(lp7
S'2.0'
p8
aS'cl de'
p9
aS'cacha\xc3\xa7a'
p10
aa(lp11
S'2.0'
p12
aS'cl de'
p13
aS'cr\xc3\xa8me de fruit de la passion'
p14
aa(lp15
S'4.0'
p16
aS'cl de'
p17
aS'jus de fraises'
p18
aa(lp19
S'4.0'
p20
aS'cl de'
p21
aS'jus de pommes'
p22
aa(lp23
S'4.0'
p24
aS'cl de'
p25
aS'jus de citrons verts'
p26
aa(lp27
S'1.0'
p28
aS'cl de'
p29
aS'sirop de sucre de canne'
p30
aaa.