(lp0
S'Rose'
p1
aF4.5
aI2
a(lp2
(lp3
S'4.0'
p4
aS'cl de'
p5
aS'kirsch'
p6
aa(lp7
S'1.0'
p8
aS'cl de'
p9
aS'liqueur de cerises (cherry brandy)'
p10
aa(lp11
S'2.0'
p12
aS'cl de'
p13
aS'vermouth dry (martini, noilly prat)'
p14
aaa.