(lp0
S'Oreades kinnary'
p1
aF3.0
aI4
a(lp2
(lp3
S'8.0'
p4
aS'cl de'
p5
aS'jus de pamplemousses'
p6
aa(lp7
S'2.0'
p8
aS'cl de'
p9
aS'jus de citrons verts'
p10
aa(lp11
S'12.0'
p12
aS'cl de'
p13
aS'jus de fruit de la passion (maracuja)'
p14
aaa.