(lp0
S'Rapace bleu'
p1
aF3.6
aI18
a(lp2
(lp3
S'2.0'
p4
aS'cl de'
p5
aS'rhum blanc'
p6
aa(lp7
S'8.0'
p8
aS'cl de'
p9
aS'lait'
p10
aa(lp11
S'1.0'
p12
aS'cl de'
p13
aS'cura\xc3\xa7ao bleu'
p14
aa(lp15
S'2.0'
p16
aS'cl de'
p17
aS'liqueur de vanille'
p18
aaa.