(lp0
S'Batida de coco'
p1
aF3.2
aI83
a(lp2
(lp3
S'0.5'
p4
aS'de'
p5
aS'lait concentr\xc3\xa9 sucr\xc3\xa9'
p6
aa(lp7
S'0.25'
p8
aS'de'
p9
aS'cacha\xc3\xa7a'
p10
aa(lp11
S'0.25'
p12
aS'de'
p13
aS'lait de coco'
p14
aaa.