(lp0
S"L'Hesp\xc3\xa9ride"
p1
aF3.8
aI5
a(lp2
(lp3
S'1.0'
p4
aS'trait de'
p5
aS'sirop de sucre de canne'
p6
aa(lp7
S'4.0'
p8
aS'cl de'
p9
aS'whisky (bourbon, whiskey)'
p10
aa(lp11
S'3.0'
p12
aS'cl de'
p13
aS'triple sec (cointreau, grand marnier)'
p14
aa(lp15
S'3.0'
p16
aS'cl de'
p17
aS"jus d'oranges"
p18
aaa.