(lp0
S'Brazil cocktail'
p1
aF3.7
aI3
a(lp2
(lp3
S'3.0'
p4
aS'cl de'
p5
aS'x\xc3\xa9r\xc3\xa8s sec (sherry dry)'
p6
aa(lp7
S'3.0'
p8
aS'cl de'
p9
aS'vermouth blanc (martini, cinzano)'
p10
aa(lp11
S'1.0'
p12
aS'cl de'
p13
aS'spiritueux anis\xc3\xa9 (pastis, ricard, pernod)'
p14
aa(lp15
S'0.5'
p16
aS'cl de'
p17
aS'angostura bitters'
p18
aaa.