(lp0
S'Gringo'
p1
aF3.0
aI3
a(lp2
(lp3
S'None'
p4
aS'None'
p5
aS'tonic (schweppes)'
p6
aa(lp7
S'2.0'
p8
aS'cl de'
p9
aS'tequila'
p10
aa(lp11
S'10.0'
p12
aS'feuilles de'
p13
aS'menthe'
p14
aa(lp15
S'1.0'
p16
aS'cl de'
p17
aS'sirop de basilic'
p18
aa(lp19
S'1.0'
p20
aS'cl de'
p21
aS'sirop de cardamome'
p22
aa(lp23
S'1.0'
p24
aS'cl de'
p25
aS'sirop de mandarine'
p26
aaa.