(lp0
S'Mojito framboise'
p1
aF3.2
aI155
a(lp2
(lp3
S'6.0'
p4
aS'cl de'
p5
aS'rhum cubain'
p6
aa(lp7
S'0.5'
p8
aS'None'
p9
aS'citrons vert'
p10
aa(lp11
S'2.0'
p12
aS'cl de'
p13
aS'sirop de framboises'
p14
aa(lp15
S'4.0'
p16
aS'feuilles de'
p17
aS'menthe'
p18
aa(lp19
S'3.0'
p20
aS'None'
p21
aS'framboises'
p22
aa(lp23
S'None'
p24
aS'None'
p25
aS'eau gazeuse (perrier, salvetat)'
p26
aaa.