(lp0
S'Virgin Bullshot'
p1
aF3.0
aI1
a(lp2
(lp3
S'None'
p4
aS'None'
p5
aS'sel de c\xc3\xa9leri'
p6
aa(lp7
S'1.0'
p8
aS'None'
p9
aS'oeuf'
p10
aa(lp11
S'4.0'
p12
aS'traits de'
p13
aS'tabasco'
p14
aa(lp15
S'2.0'
p16
aS'cl de'
p17
aS'jus de citrons'
p18
aa(lp19
S'5.0'
p20
aS'cl de'
p21
aS'consomm\xc3\xa9 de boeuf froid'
p22
aa(lp23
S'12.0'
p24
aS'cl de'
p25
aS'jus de tomates'
p26
aaa.