(lp0
S'Sirop de pistache'
p1
aF3.7
aI3
a(lp2
(lp3
S'16.25'
p4
aS'grammes de'
p5
aS'pistaches'
p6
aa(lp7
S'0.05'
p8
aS'litre de'
p9
aS'sirop de gomme'
p10
aa(lp11
S'0.5'
p12
aS'grammes de'
p13
aS'sucre'
p14
aa(lp15
S'0.5'
p16
aS'cl de'
p17
aS'jus de citrons'
p18
aa(lp19
S'4.0'
p20
aS"cl d'"
p21
aS'eau'
p22
aaa.