(lp0
S'Claret Cup'
p1
aF3.5
aI10
a(lp2
(lp3
S'7.5'
p4
aS'cl de'
p5
aS'vin rouge'
p6
aa(lp7
S'1.5'
p8
aS'cl de'
p9
aS'porto rouge'
p10
aa(lp11
S'1.5'
p12
aS'cl de'
p13
aS'triple sec (cointreau, grand marnier)'
p14
aa(lp15
S'0.5'
p16
aS'cl de'
p17
aS'sucre'
p18
aa(lp19
S'0.1'
p20
aS'None'
p21
aS'citron'
p22
aa(lp23
S'7.0'
p24
aS'cl de'
p25
aS'eau gazeuse (perrier, salvetat)'
p26
aaa.