(lp0
S'Woody'
p1
aF4.0
aI5
a(lp2
(lp3
S'2.0'
p4
aS'cl de'
p5
aS'energy drink (red bull, pitbull, duff)'
p6
aa(lp7
S'2.0'
p8
aS'cl de'
p9
aS'gin'
p10
aa(lp11
S'2.0'
p12
aS'cl de'
p13
aS'vodka'
p14
aa(lp15
S'2.0'
p16
aS'cl de'
p17
aS'cura\xc3\xa7ao bleu'
p18
aa(lp19
S'2.0'
p20
aS'cl de'
p21
aS'liqueur de menthe verte (get 27)'
p22
aaa.