(lp0
S'Sweet night'
p1
aF3.5
aI23
a(lp2
(lp3
S'2.0'
p4
aS'cl de'
p5
aS'cr\xc3\xa8me de whisky (baileys)'
p6
aa(lp7
S'1.0'
p8
aS'cl de'
p9
aS'liqueur de coco (cocogif, malibu)'
p10
aa(lp11
S'0.5'
p12
aS'cl de'
p13
aS'amaretto'
p14
aa(lp15
S'2.5'
p16
aS'cl de'
p17
aS'lait'
p18
aaa.