(lp0
S'Jupiter Martini'
p1
aF3.0
aI2
a(lp2
(lp3
S'4.5'
p4
aS'cl de'
p5
aS'gin'
p6
aa(lp7
S'2.0'
p8
aS'cl de'
p9
aS'vermouth dry (martini, noilly prat)'
p10
aa(lp11
S'1.0'
p12
aS'cl de'
p13
aS'parfait amour'
p14
aa(lp15
S'1.0'
p16
aS'cl de'
p17
aS"jus d'oranges"
p18
aaa.