(lp0
S"Poire d'\xc3\xa9pice"
p1
aF2.5
aI2
a(lp2
(lp3
S'1.66666666667'
p4
aS'cl de'
p5
aS'sirop de sucre de canne'
p6
aa(lp7
S'1.0'
p8
aS'None'
p9
aS'citrons'
p10
aa(lp11
S'4.16666666667'
p12
aS'cl de'
p13
aS'eau-de-vie de poires williams'
p14
aa(lp15
S'0.833333333333'
p16
aS'cl de'
p17
aS'marasquin'
p18
aa(lp19
S'0.666666666667'
p20
aS'None'
p21
aS'clous de girofle'
p22
aa(lp23
S'0.166666666667'
p24
aS'None'
p25
aS'poire'
p26
aa(lp27
S'0.833333333333'
p28
aS'fines tranches de'
p29
aS'gingembre'
p30
aa(lp31
S'4.16666666667'
p32
aS'cl de'
p33
aS'ginger ale (canada dry)'
p34
aaa.