(lp0
S'Punch camomille'
p1
aF3.6
aI12
a(lp2
(lp3
S'1.0'
p4
aS'tetes de'
p5
aS'camomille'
p6
aa(lp7
S'20.0'
p8
aS'grammes de'
p9
aS'sucre'
p10
aa(lp11
S'0.1'
p12
aS'None'
p13
aS'citron'
p14
aa(lp15
S'0.1'
p16
aS'None'
p17
aS"jus d'orange"
p18
aa(lp19
S'0.1'
p20
aS'bouteille de'
p21
aS'rhum blanc'
p22
aaa.