(lp0
S'Dark Vador'
p1
aF3.8
aI13
a(lp2
(lp3
S'1.0'
p4
aS'mesure'
p5
aS'liqueur de menthe verte (get 27)'
p6
aa(lp7
S'1.0'
p8
aS'mesure'
p9
aS'triple sec (cointreau, grand marnier)'
p10
aa(lp11
S'2.0'
p12
aS'mesures'
p13
aS'vodka'
p14
aa(lp15
S'4.0'
p16
aS'mesures'
p17
aS'jus de raisins'
p18
aaa.