(lp0
S'Fucking Good Cocktail'
p1
aF3.5
aI2
a(lp2
(lp3
S'2.0'
p4
aS'cl de'
p5
aS'gin'
p6
aa(lp7
S'2.0'
p8
aS'cl de'
p9
aS'chambord'
p10
aa(lp11
S'3.0'
p12
aS'cl de'
p13
aS'pur\xc3\xa9e de bananes'
p14
aa(lp15
S'4.0'
p16
aS'cl de'
p17
aS'jus de mangues'
p18
aa(lp19
S'2.0'
p20
aS'cl de'
p21
aS'lime cordial'
p22
aaa.