(lp0
S'Independance'
p1
aF2.7
aI26
a(lp2
(lp3
S'None'
p4
aS'None'
p5
aS'champagne'
p6
aa(lp7
S'1.0'
p8
aS'cl de'
p9
aS'sirop de fraises'
p10
aa(lp11
S'2.0'
p12
aS'cl de'
p13
aS'triple sec (cointreau, grand marnier)'
p14
aa(lp15
S'1.0'
p16
aS'cl de'
p17
aS'jus de citrons'
p18
aa(lp19
S'2.0'
p20
aS'cl de'
p21
aS'jus de cranberry (canneberges)'
p22
aaa.