(lp0
S'Ami Corse'
p1
aF3.8
aI4
a(lp2
(lp3
S'3.0'
p4
aS'cl de'
p5
aS'chartreuse verte'
p6
aa(lp7
S'3.0'
p8
aS'cl de'
p9
aS'liqueur de menthe verte (get 27)'
p10
aa(lp11
S'2.0'
p12
aS'cl de'
p13
aS'liqueur de caf\xc3\x83\xc2\xa9 (kahlua, marie brizard)'
p14
aaa.