(lp0
S'Green Bubble tea'
p1
aF3.2
aI11
a(lp2
(lp3
S'10.0'
p4
aS'cl de'
p5
aS'th\xc3\xa9 noir'
p6
aa(lp7
S'10.0'
p8
aS'cl de'
p9
aS'lait'
p10
aa(lp11
S'7.0'
p12
aS'cl de'
p13
aS'sirop de menthe'
p14
aa(lp15
S'50.0'
p16
aS'grammes de billes de'
p17
aS'tapioca'
p18
aaa.