(lp0
S'Ever green'
p1
aF3.0
aI1
a(lp2
(lp3
S'4.0'
p4
aS'cl de'
p5
aS'tequila'
p6
aa(lp7
S'12.0'
p8
aS'cl de'
p9
aS"jus d'ananas"
p10
aa(lp11
S'2.0'
p12
aS'cl de'
p13
aS'liqueur de menthe verte (get 27)'
p14
aa(lp15
S'1.0'
p16
aS'cl de'
p17
aS'liqueur galliano'
p18
aaa.