(lp0
S'Sole rosso'
p1
aF3.0
aI1
a(lp2
(lp3
S'3.0'
p4
aS'cl de'
p5
aS'cognac'
p6
aa(lp7
S'3.0'
p8
aS'cl de'
p9
aS'dubonnet'
p10
aa(lp11
S'5.0'
p12
aS'cl de'
p13
aS'champagne'
p14
aa(lp15
S'1.0'
p16
aS'cl de'
p17
aS'cr\xc3\xa8me de cassis'
p18
aaa.