(lp0
S"Andy's Heaven"
p1
aF3.2
aI14
a(lp2
(lp3
S'3.0'
p4
aS'cl de'
p5
aS'rhum blanc'
p6
aa(lp7
S'2.0'
p8
aS'cl de'
p9
aS'liqueur de pommes (manzana, manzanita)'
p10
aa(lp11
S'2.0'
p12
aS'cl de'
p13
aS'cr\xc3\xa8me de fruit de la passion'
p14
aa(lp15
S'1.0'
p16
aS'cl de'
p17
aS'sirop de grenadine'
p18
aa(lp19
S'7.0'
p20
aS'cl de'
p21
aS'ginger ale (canada dry)'
p22
aa(lp23
S'1.0'
p24
aS'cl de'
p25
aS'jus de citrons'
p26
aaa.