(lp0
S'Punch Coco Royal'
p1
aF2.5
aI8
a(lp2
(lp3
S'4.0'
p4
aS'cl de'
p5
aS'pur\xc3\xa9e de noix de coco'
p6
aa(lp7
S'4.0'
p8
aS'cl de'
p9
aS'rhum blanc'
p10
aa(lp11
S'1.0'
p12
aS'cl de'
p13
aS'sirop de cannelle'
p14
aa(lp15
S'2.0'
p16
aS'cl de'
p17
aS'sirop de vanille'
p18
aaa.