(lp0
S'Malibu sunrise'
p1
aF3.3
aI39
a(lp2
(lp3
S'0.5'
p4
aS'cl de'
p5
aS'sirop de grenadine'
p6
aa(lp7
S'None'
p8
aS'jus'
p9
aS"jus d'oranges"
p10
aa(lp11
S'2.0'
p12
aS'cl de'
p13
aS'cognac'
p14
aa(lp15
S'6.0'
p16
aS'cl de'
p17
aS'liqueur de coco (cocogif, malibu)'
p18
aaa.