(lp0
S'Apple lover'
p1
aF3.9
aI13
a(lp2
(lp3
S'4.0'
p4
aS'cl de'
p5
aS'vodka'
p6
aa(lp7
S'2.0'
p8
aS'cl de'
p9
aS'liqueur de pommes (manzana, manzanita)'
p10
aa(lp11
S'4.0'
p12
aS'cl de'
p13
aS'jus de pommes'
p14
aaa.