(lp0
S'\xc3\x89carlate toi'
p1
aF3.5
aI11
a(lp2
(lp3
S'12.0'
p4
aS'cl de'
p5
aS"infusion de fleurs d'oranger"
p6
aa(lp7
S'0.5'
p8
aS'cl de'
p9
aS'sirop de framboises'
p10
aa(lp11
S'0.5'
p12
aS'cl de'
p13
aS'sirop de fraises'
p14
aa(lp15
S'0.5'
p16
aS'cl de'
p17
aS'sirop de cassis'
p18
aaa.