(lp0
S'New Orleans Hand Grenade'
p1
aF2.6
aI5
a(lp2
(lp3
S'2.0'
p4
aS'cl de'
p5
aS'midori'
p6
aa(lp7
S'2.0'
p8
aS'cl de'
p9
aS'gin'
p10
aa(lp11
S'2.0'
p12
aS'cl de'
p13
aS'vodka'
p14
aa(lp15
S'2.0'
p16
aS'cl de'
p17
aS'rhum cubain'
p18
aaa.