(lp0
S'Cosmolitan Claret Punch'
p1
aF4.0
aI21
a(lp2
(lp3
S'1.0'
p4
aS'cuill\xc3\xa8re \xc3\xa0 soupe de'
p5
aS'sirop de framboises'
p6
aa(lp7
S'1.0'
p8
aS'cuill\xc3\xa8re \xc3\xa0 soupe de'
p9
aS'marasquin'
p10
aa(lp11
S'1.0'
p12
aS'cuill\xc3\xa8re \xc3\xa0 soupe de'
p13
aS'cura\xc3\xa7ao bleu'
p14
aa(lp15
S'3.0'
p16
aS'cl de'
p17
aS'champagne'
p18
aa(lp19
S'None'
p20
aS'None'
p21
aS'vin rouge'
p22
aaa.