(lp0
S'Manchester'
p1
aF3.7
aI37
a(lp2
(lp3
S'4.0'
p4
aS'cl de'
p5
aS'vin blanc'
p6
aa(lp7
S'1.5'
p8
aS'cl de'
p9
aS'cognac'
p10
aa(lp11
S'1.5'
p12
aS'cl de'
p13
aS'triple sec (cointreau, grand marnier)'
p14
aa(lp15
S'1.0'
p16
aS'cl de'
p17
aS'angostura bitters'
p18
aaa.