(lp0
S'Blue tequila'
p1
aF3.4
aI10
a(lp2
(lp3
S'2.0'
p4
aS'cl de'
p5
aS'tequila'
p6
aa(lp7
S'3.0'
p8
aS'cl de'
p9
aS'liqueur de mangues'
p10
aa(lp11
S'2.0'
p12
aS'trait de'
p13
aS'cura\xc3\xa7ao bleu'
p14
aa(lp15
S'None'
p16
aS'None'
p17
aS'limonade (soda, sprite, 7up)'
p18
aaa.