(lp0
S'Monica'
p1
aF2.7
aI3
a(lp2
(lp3
S'10.0'
p4
aS'cl de'
p5
aS'champagne'
p6
aa(lp7
S'1.0'
p8
aS'cl de'
p9
aS'cognac'
p10
aa(lp11
S'1.0'
p12
aS'cl de'
p13
aS'triple sec (cointreau, grand marnier)'
p14
aa(lp15
S'2.0'
p16
aS'cl de'
p17
aS'jus de fruit de la passion (maracuja)'
p18
aa(lp19
S'2.0'
p20
aS'cl de'
p21
aS"jus d'ananas"
p22
aaa.