(lp0
S'Banana Frog'
p1
aF3.3
aI101
a(lp2
(lp3
S'0.5'
p4
aS'cl de'
p5
aS'sirop de gingembre'
p6
aa(lp7
S'0.5'
p8
aS'cl de'
p9
aS'liqueur de menthe verte (get 27)'
p10
aa(lp11
S'0.5'
p12
aS'cl de'
p13
aS'liqueur de bananes (pisang ambon)'
p14
aa(lp15
S'2.0'
p16
aS'cl de'
p17
aS"jus d'oranges"
p18
aa(lp19
S'3.0'
p20
aS'cl de'
p21
aS'jus de bananes'
p22
aaa.