(lp0
S'Bi-centenaire'
p1
aF4.5
aI4
a(lp2
(lp3
S'2.0'
p4
aS'cl de'
p5
aS'armagnac'
p6
aa(lp7
S'3.0'
p8
aS'cl de'
p9
aS'liqueur de p\xc3\xaaches'
p10
aa(lp11
S'2.0'
p12
aS'cl de'
p13
aS'liqueur de fraises'
p14
aaa.