(lp0
S'Bananasplit'
p1
aF4.2
aI5
a(lp2
(lp3
S'1.5'
p4
aS'cl de'
p5
aS'amaretto'
p6
aa(lp7
S'1.5'
p8
aS'cl de'
p9
aS'cr\xc3\xa8me de bananes'
p10
aa(lp11
S'1.5'
p12
aS'cl de'
p13
aS'liqueur de cacao blanc'
p14
aaa.