(lp0
S'B\xc3\xbbcheron'
p1
aF3.4
aI8
a(lp2
(lp3
S'None'
p4
aS'None'
p5
aS"jus d'abricots"
p6
aa(lp7
S'2.0'
p8
aS'cl de'
p9
aS'vodka'
p10
aa(lp11
S'2.0'
p12
aS'cl de'
p13
aS'vermouth blanc (martini, cinzano)'
p14
aa(lp15
S'2.0'
p16
aS'cl de'
p17
aS'triple sec (cointreau, grand marnier)'
p18
aaa.