(lp0
S'Pink Punch'
p1
aF3.2
aI9
a(lp2
(lp3
S'2.0'
p4
aS'cl de'
p5
aS'rhum blanc'
p6
aa(lp7
S'2.0'
p8
aS'cl de'
p9
aS'jus de framboises'
p10
aa(lp11
S'2.0'
p12
aS'cl de'
p13
aS'lime cordial'
p14
aa(lp15
S'None'
p16
aS'None'
p17
aS'eau gazeuse (perrier, salvetat)'
p18
aaa.