(lp0
S'Port au prince'
p1
aF4.1
aI17
a(lp2
(lp3
S'1.0'
p4
aS'cl de'
p5
aS'jus de citrons'
p6
aa(lp7
S'1.0'
p8
aS'cl de'
p9
aS"jus d'oranges"
p10
aa(lp11
S'2.0'
p12
aS'cl de'
p13
aS'jus de mangues'
p14
aa(lp15
S'3.0'
p16
aS'cl de'
p17
aS"jus d'ananas"
p18
aaa.