(lp0
S'RAC'
p1
aF4.0
aI1
a(lp2
(lp3
S'5.0'
p4
aS'cl de'
p5
aS'gin'
p6
aa(lp7
S'2.0'
p8
aS'cl de'
p9
aS'vermouth rouge (martini, cinzano)'
p10
aa(lp11
S'2.0'
p12
aS'cl de'
p13
aS'vermouth dry (martini, noilly prat)'
p14
aa(lp15
S'1.0'
p16
aS'trait de'
p17
aS'sirop de grenadine'
p18
aa(lp19
S'1.0'
p20
aS"trait d'"
p21
aS'angostura orange bitters'
p22
aaa.