(lp0
S'Rolling peach'
p1
aF2.9
aI9
a(lp2
(lp3
S'50.0'
p4
aS'cl de'
p5
aS'eau gazeuse (perrier, salvetat)'
p6
aa(lp7
S'2.0'
p8
aS'cl de'
p9
aS'sirop de grenadine'
p10
aa(lp11
S'5.0'
p12
aS'cl de'
p13
aS'nectar de p\xc3\xaaches'
p14
aa(lp15
S'1.0'
p16
aS'None'
p17
aS'p\xc3\xaache'
p18
aaa.