(lp0
S'Carnaval'
p1
aF3.6
aI10
a(lp2
(lp3
S'0.5'
p4
aS'cl de'
p5
aS'sirop de fraises'
p6
aa(lp7
S'2.0'
p8
aS'cl de'
p9
aS"jus d'oranges"
p10
aa(lp11
S'2.0'
p12
aS'cl de'
p13
aS'saint raphael blanc'
p14
aa(lp15
S'2.0'
p16
aS'cl de'
p17
aS'gin'
p18
aaa.