(lp0
S'Ratafia de cassis'
p1
aF3.4
aI5
a(lp2
(lp3
S'0.1'
p4
aS'poign\xc3\xa9e de'
p5
aS'framboises'
p6
aa(lp7
S'0.12'
p8
aS'kilo de'
p9
aS'cassis'
p10
aa(lp11
S'0.1'
p12
aS"litre d'"
p13
aS'eau-de-vie'
p14
aa(lp15
S'15.0'
p16
aS'grammes de'
p17
aS'sucre'
p18
aaa.