(lp0
S'Milk Shake Leve-toi'
p1
aF3.7
aI30
a(lp2
(lp3
S'187.5'
p4
aS'grammes ou 6 pots de'
p5
aS'danette chocolat'
p6
aa(lp7
S'3.25'
p8
aS'cl de'
p9
aS'lait'
p10
aa(lp11
S'0.5'
p12
aS'None'
p13
aS'bananes'
p14
aaa.