(lp0
S'Atlantis'
p1
aF3.3
aI8
a(lp2
(lp3
S'4.0'
p4
aS'cl de'
p5
aS'vodka'
p6
aa(lp7
S'2.0'
p8
aS'cl de'
p9
aS'jus de citrons verts'
p10
aa(lp11
S'None'
p12
aS'None'
p13
aS'eau gazeuse (perrier, salvetat)'
p14
aa(lp15
S'40.0'
p16
aS'grammes de'
p17
aS'barbe \xc3\xa0 papa'
p18
aaa.