(lp0
S'Mississipi punch'
p1
aF3.6
aI15
a(lp2
(lp3
S'6.0'
p4
aS'cl de'
p5
aS'cognac'
p6
aa(lp7
S'3.0'
p8
aS'cl de'
p9
aS'whisky (bourbon, whiskey)'
p10
aa(lp11
S'3.0'
p12
aS'cl de'
p13
aS'rhum ambr\xc3\xa9'
p14
aa(lp15
S'1.5'
p16
aS'cl de'
p17
aS'jus de citrons'
p18
aa(lp19
S'2.0'
p20
aS'cuill\xc3\xa8res \xc3\xa0 caf\xc3\xa9 de'
p21
aS'sucre'
p22
aaa.