(lp0
S'Sirop de safran'
p1
aF2.6
aI8
a(lp2
(lp3
S'0.15'
p4
aS'grammes de'
p5
aS'safran'
p6
aa(lp7
S'2.5'
p8
aS'cl de'
p9
aS'vin blanc'
p10
aa(lp11
S'2.5'
p12
aS'cl de'
p13
aS'sirop de sucre de canne'
p14
aaa.