(lp0
S'Grimaldi'
p1
aF1.5
aI2
a(lp2
(lp3
S'0.5'
p4
aS'cl de'
p5
aS'cura\xc3\xa7ao bleu'
p6
aa(lp7
S'2.0'
p8
aS'cl de'
p9
aS'safari'
p10
aa(lp11
S'2.0'
p12
aS'cl de'
p13
aS'pecher mignon'
p14
aa(lp15
S'2.0'
p16
aS'cl de'
p17
aS"jus d'ananas"
p18
aaa.