(lp0
S'The Funny Super Green'
p1
aF3.8
aI5
a(lp2
(lp3
S'3.0'
p4
aS'cl de'
p5
aS'sirop de citrons'
p6
aa(lp7
S'3.0'
p8
aS'cl de'
p9
aS'tequila'
p10
aa(lp11
S'3.0'
p12
aS'cl de'
p13
aS'vodka'
p14
aa(lp15
S'3.0'
p16
aS'cl de'
p17
aS'cura\xc3\xa7ao bleu'
p18
aa(lp19
S'6.0'
p20
aS'cl de'
p21
aS"jus d'oranges"
p22
aa(lp23
S'None'
p24
aS'None'
p25
aS'sucre'
p26
aa(lp27
S'None'
p28
aS'None'
p29
aS'cannelle en poudre'
p30
aaa.