(lp0
S'Rhum Miel Vanille'
p1
aF3.2
aI70
a(lp2
(lp3
S'1.0'
p4
aS'bouteille de'
p5
aS'rhum blanc'
p6
aa(lp7
S'150.0'
p8
aS'grammes de'
p9
aS'sirop de miel'
p10
aa(lp11
S'4.0'
p12
aS'cl de'
p13
aS'gousses de vanille'
p14
aa(lp15
S'15.0'
p16
aS'cl de'
p17
aS'sirop de sucre de canne'
p18
aaa.