(lp0
S'Alegria'
p1
aF3.5
aI19
a(lp2
(lp3
S'100.0'
p4
aS'grammes de'
p5
aS'jus de carottes'
p6
aa(lp7
S'70.0'
p8
aS"grammes d'"
p9
aS"jus d'ananas"
p10
aa(lp11
S'70.0'
p12
aS'grammes de'
p13
aS'fraises'
p14
aa(lp15
S'10.0'
p16
aS"cl d'"
p17
aS'eau'
p18
aa(lp19
S'2.0'
p20
aS'grammes de'
p21
aS'sucre kara'
p22
aaa.