(lp0
S'Oreoka'
p1
aF4.3
aI3
a(lp2
(lp3
S'5.0'
p4
aS'cl de'
p5
aS'vodka'
p6
aa(lp7
S'5.0'
p8
aS'cl de'
p9
aS'liqueur de cacao brun'
p10
aa(lp11
S'1.0'
p12
aS'grosse cuill\xc3\xa8re de'
p13
aS'sorbet \xc3\xa0 la vanille'
p14
aa(lp15
S'1.0'
p16
aS'None'
p17
aS'biscuit oreo'
p18
aaa.