(lp0
S'Sigrego'
p1
aF2.7
aI3
a(lp2
(lp3
S'1.0'
p4
aS'trait de'
p5
aS'sirop de grenadine'
p6
aa(lp7
S'2.0'
p8
aS'cl de'
p9
aS'vermouth rouge (martini, cinzano)'
p10
aa(lp11
S'2.0'
p12
aS'cl de'
p13
aS'rhum blanc'
p14
aa(lp15
S'1.0'
p16
aS'cl de'
p17
aS'jus de citrons'
p18
aa(lp19
S'6.0'
p20
aS'cl de'
p21
aS"jus d'oranges"
p22
aa(lp23
S'3.0'
p24
aS'pinc\xc3\xa9es de'
p25
aS'feuilles de menthe'
p26
aaa.