(lp0
S'Irish Champion'
p1
aF3.4
aI43
a(lp2
(lp3
S'2.0'
p4
aS'cl de'
p5
aS'sirop de menthe'
p6
aa(lp7
S'2.0'
p8
aS'cl de'
p9
aS'liqueur de menthe verte (get 27)'
p10
aa(lp11
S'2.0'
p12
aS'cl de'
p13
aS'rhum blanc'
p14
aa(lp15
S'2.0'
p16
aS'cl de'
p17
aS'sirop de sucre de canne'
p18
aa(lp19
S'2.0'
p20
aS'cl de'
p21
aS'liqueur mandarine napol\xc3\xa9on'
p22
aaa.