(lp0
S'Vinaigre des 4 voleurs'
p1
aF2.8
aI25
a(lp2
(lp3
S'0.3'
p4
aS'litres de'
p5
aS'vinaigre de cidre'
p6
aa(lp7
S'0.5'
p8
aS'grammes de'
p9
aS'camphre'
p10
aa(lp11
S'3.0'
p12
aS"grammes d'"
p13
aS'ail'
p14
aa(lp15
S'2.0'
p16
aS'grammes de'
p17
aS'menthe'
p18
aa(lp19
S'2.0'
p20
aS'grammes de'
p21
aS'thym'
p22
aa(lp23
S'3.0'
p24
aS'grammes de'
p25
aS'cannelle'
p26
aa(lp27
S'2.0'
p28
aS'grammes de'
p29
aS'sauge'
p30
aa(lp31
S'2.0'
p32
aS'grammes de'
p33
aS'fleurs de lavande'
p34
aa(lp35
S'2.0'
p36
aS'grammes de'
p37
aS'romarin'
p38
aa(lp39
S'2.0'
p40
aS'grammes de'
p41
aS'rue f\xc3\xa9tide'
p42
aaa.