(lp0
S'Caf\xc3\xa9 blanc'
p1
aF4.0
aI2
a(lp2
(lp3
S'1.0'
p4
aS'tasse de'
p5
aS'lait'
p6
aa(lp7
S'1.0'
p8
aS'cuill\xc3\xa8re \xc3\xa0 caf\xc3\xa9 de'
p9
aS'sirop de miel'
p10
aa(lp11
S'1.0'
p12
aS'cl de'
p13
aS"fleurs d'oranger"
p14
aaa.