(lp0
S'Laetitia'
p1
aF4.0
aI36
a(lp2
(lp3
S'0.5'
p4
aS'cl de'
p5
aS'sirop de grenadine'
p6
aa(lp7
S'3.0'
p8
aS'cl de'
p9
aS'vodka'
p10
aa(lp11
S'1.5'
p12
aS'cl de'
p13
aS"liqueur d'abricots (abricot brandy)"
p14
aa(lp15
S'0.5'
p16
aS'cl de'
p17
aS'amaretto'
p18
aa(lp19
S'2.0'
p20
aS'cl de'
p21
aS'jus de fruits exotiques'
p22
aaa.