(lp0
S'Vermouth'
p1
aF2.4
aI9
a(lp2
(lp3
S'0.1'
p4
aS'litres de'
p5
aS'vin ros\xc3\xa9'
p6
aa(lp7
S'12.5'
p8
aS'grammes de'
p9
aS'sucre'
p10
aa(lp11
S'1.5'
p12
aS"cl d'"
p13
aS'alcool \xc3\xa0 90\xc2\xb0'
p14
aa(lp15
S'0.2'
p16
aS'grammes de racine de'
p17
aS'racine de gentiane'
p18
aa(lp19
S'0.2'
p20
aS'None'
p21
aS'clous de girofle'
p22
aa(lp23
S'0.1'
p24
aS'morceau de'
p25
aS'cannelle'
p26
aa(lp27
S'0.1'
p28
aS'zeste de'
p29
aS'citrons'
p30
aa(lp31
S'0.1'
p32
aS'cuill\xc3\xa8re \xc3\xa0 soupe de'
p33
aS'chicor\xc3\xa9e'
p34
aaa.