(lp0
S'Felicite'
p1
aF3.4
aI7
a(lp2
(lp3
S'None'
p4
aS'None'
p5
aS'ginger ale (canada dry)'
p6
aa(lp7
S'2.0'
p8
aS'cl de'
p9
aS'triple sec (cointreau, grand marnier)'
p10
aa(lp11
S'4.0'
p12
aS'cl de'
p13
aS'vermouth blanc (martini, cinzano)'
p14
aaa.