(lp0
S'Sirop de serpolet'
p1
aF3.3
aI4
a(lp2
(lp3
S'2.0'
p4
aS'poign\xc3\xa9es de'
p5
aS'serpolet'
p6
aa(lp7
S'1.0'
p8
aS"litre d'"
p9
aS'eau'
p10
aa(lp11
S'1.0'
p12
aS'kilo de'
p13
aS'sucre'
p14
aaa.