(lp0
S'Sangria Beir\xc3\xa3o'
p1
aF2.8
aI9
a(lp2
(lp3
S'0.2'
p4
aS'litre de'
p5
aS'vin blanc'
p6
aa(lp7
S'0.2'
p8
aS'None'
p9
aS'pomme'
p10
aa(lp11
S'0.2'
p12
aS'None'
p13
aS'orange'
p14
aa(lp15
S'2.4'
p16
aS'cl de'
p17
aS'licor beir\xc3\xa3o'
p18
aa(lp19
S'None'
p20
aS'None'
p21
aS'eau gazeuse (perrier, salvetat)'
p22
aa(lp23
S'0.2'
p24
aS'branche de'
p25
aS'menthe'
p26
aa(lp27
S'0.2'
p28
aS'b\xc3\xa2ton de'
p29
aS'cannelle'
p30
aa(lp31
S'1.0'
p32
aS'None'
p33
aS'framboises'
p34
aaa.