(lp0
S'Lumiere rouge'
p1
aF3.8
aI12
a(lp2
(lp3
S'None'
p4
aS'trais de'
p5
aS'sirop de grenadine'
p6
aa(lp7
S'4.0'
p8
aS'cl de'
p9
aS"jus d'ananas"
p10
aa(lp11
S'4.0'
p12
aS'cl de'
p13
aS"jus d'oranges"
p14
aa(lp15
S'4.0'
p16
aS'cl de'
p17
aS'jus de fraises'
p18
aa(lp19
S'4.0'
p20
aS'cl de'
p21
aS'jus de citrons'
p22
aaa.