(lp0
S'Punch au melon'
p1
aF4.0
aI1
a(lp2
(lp3
S'0.5'
p4
aS'cl de'
p5
aS'sirop de sucre de canne'
p6
aa(lp7
S'4.0'
p8
aS'cl de'
p9
aS'midori'
p10
aa(lp11
S'2.0'
p12
aS'cl de'
p13
aS'citrons verts'
p14
aa(lp15
S'3.0'
p16
aS'cl de'
p17
aS"jus d'oranges"
p18
aa(lp19
S'3.0'
p20
aS'cl de'
p21
aS'gin'
p22
aaa.