(lp0
S"She's so fresh"
p1
aF3.5
aI2
a(lp2
(lp3
S'1.0'
p4
aS'cl de'
p5
aS'sirop de goyave'
p6
aa(lp7
S'1.0'
p8
aS'cl de'
p9
aS'sirop de past\xc3\xa8que (watermelon)'
p10
aa(lp11
S'6.0'
p12
aS'cl de'
p13
aS'liqueur de menthe blanche (get 31)'
p14
aaa.