(lp0
S'Parisienne sling'
p1
aF3.0
aI2
a(lp2
(lp3
S'None'
p4
aS'None'
p5
aS'champagne'
p6
aa(lp7
S'None'
p8
aS'None'
p9
aS'sirop de grenadine'
p10
aa(lp11
S'0.5'
p12
aS'cl de'
p13
aS'jus de citrons'
p14
aa(lp15
S'1.5'
p16
aS'cl de'
p17
aS'saint raphael'
p18
aa(lp19
S'0.5'
p20
aS'cl de'
p21
aS'triple sec (cointreau, grand marnier)'
p22
aa(lp23
S'1.5'
p24
aS'cl de'
p25
aS'cr\xc3\xa8me de p\xc3\xaache de vigne'
p26
aaa.