(lp0
S'Blanc cir\xc3\xa9'
p1
aF2.6
aI8
a(lp2
(lp3
S'4.0'
p4
aS'cl de'
p5
aS'vin blanc'
p6
aa(lp7
S'2.0'
p8
aS"cl d'"
p9
aS'eau gazeuse (perrier, salvetat)'
p10
aa(lp11
S'2.0'
p12
aS'cl de '
p13
aS'sirop de fraises'
p14
aaa.