(lp0
S'Lovely bird'
p1
aF4.4
aI5
a(lp2
(lp3
S'12.0'
p4
aS'cl de'
p5
aS'jus de fruit de la passion (maracuja)'
p6
aa(lp7
S'1.0'
p8
aS'cl de'
p9
aS'cr\xc3\xa8me fra\xc3\xaeche liquide'
p10
aa(lp11
S'4.0'
p12
aS'cl de'
p13
aS'rhum blanc'
p14
aa(lp15
S'2.0'
p16
aS'cl de'
p17
aS'liqueur galliano'
p18
aa(lp19
S'2.0'
p20
aS'cl de'
p21
aS'licor 43'
p22
aaa.