(lp0
S'Solange'
p1
aF3.9
aI15
a(lp2
(lp3
S'None'
p4
aS'None'
p5
aS'champagne'
p6
aa(lp7
S'0.5'
p8
aS'cl de'
p9
aS'triple sec (cointreau, grand marnier)'
p10
aa(lp11
S'3.0'
p12
aS'cl de'
p13
aS'calvados'
p14
aa(lp15
S'3.0'
p16
aS'cl de'
p17
aS"liqueur d'abricots (abricot brandy)"
p18
aaa.