(lp0
S'Appetiser cocktail'
p1
aF4.0
aI1
a(lp2
(lp3
S'4.0'
p4
aS'cl de'
p5
aS'cognac'
p6
aa(lp7
S'3.0'
p8
aS'traits de'
p9
aS'marasquin'
p10
aa(lp11
S'5.0'
p12
aS"traits d'"
p13
aS'angostura bitters'
p14
aaa.