(lp0
S'Old Cuban'
p1
aF3.5
aI4
a(lp2
(lp3
S'7.0'
p4
aS'feuilles de'
p5
aS'menthe'
p6
aa(lp7
S'4.0'
p8
aS'cl de'
p9
aS'rhum cubain'
p10
aa(lp11
S'3.0'
p12
aS'cl de'
p13
aS'sirop de sucre de canne'
p14
aa(lp15
S'2.0'
p16
aS"traits d'"
p17
aS'angostura bitters'
p18
aa(lp19
S'None'
p20
aS'None'
p21
aS'champagne'
p22
aa(lp23
S'None'
p24
aS'None'
p25
aS'citrons verts'
p26
aaa.