(lp0
S'Brandy manhattan'
p1
aF2.5
aI2
a(lp2
(lp3
S'3.0'
p4
aS'mesures de'
p5
aS'brandy'
p6
aa(lp7
S'1.0'
p8
aS'mesure de'
p9
aS'vermouth rouge (martini, cinzano)'
p10
aa(lp11
S'None'
p12
aS'None'
p13
aS'cerises confites'
p14
aaa.