(lp0
S'Green apple'
p1
aF3.1
aI7
a(lp2
(lp3
S'0.5'
p4
aS'cl de'
p5
aS'sirop de pomme'
p6
aa(lp7
S'3.0'
p8
aS'cl de'
p9
aS'liqueur de pommes (manzana, manzanita)'
p10
aa(lp11
S'2.0'
p12
aS'cl de'
p13
aS'vodka'
p14
aa(lp15
S'12.0'
p16
aS'cl de'
p17
aS'jus de pommes'
p18
aa(lp19
S'1.0'
p20
aS'moiti\xc3\xa9 de'
p21
aS'pommes'
p22
aaa.