(lp0
S'Comme une brise fra\xc3\xaeche'
p1
aF2.5
aI2
a(lp2
(lp3
S'4.0'
p4
aS'cl de'
p5
aS'pur\xc3\xa9e de framboise'
p6
aa(lp7
S'4.0'
p8
aS'cl de'
p9
aS'vodka'
p10
aa(lp11
S'2.0'
p12
aS'cl de'
p13
aS'sirop de pamplemousses'
p14
aa(lp15
S'1.0'
p16
aS'cl de'
p17
aS'sirop de concombre'
p18
aaa.