(lp0
S'Liqueur de p\xc3\xaache'
p1
aF2.7
aI80
a(lp2
(lp3
S'0.05'
p4
aS'litre de'
p5
aS'vodka'
p6
aa(lp7
S'37.5'
p8
aS'grammes de'
p9
aS'p\xc3\xaaches'
p10
aa(lp11
S'17.5'
p12
aS'grammes de'
p13
aS'sucre'
p14
aaa.