(lp0
S"Ch'ti sangria"
p1
aF3.0
aI105
a(lp2
(lp3
S'0.0416666666667'
p4
aS'litres de'
p5
aS'limonade (soda, sprite, 7up)'
p6
aa(lp7
S'0.0416666666667'
p8
aS'litres de'
p9
aS'sirop de sucre de canne'
p10
aa(lp11
S'0.166666666667'
p12
aS'litres de'
p13
aS'vin rouge'
p14
aa(lp15
S'0.0625'
p16
aS'litres de'
p17
aS'vin mousseux'
p18
aa(lp19
S'0.833333333333'
p20
aS'cl de'
p21
aS'guignolet'
p22
aa(lp23
S'0.833333333333'
p24
aS'cl de'
p25
aS'rhum blanc'
p26
aa(lp27
S'0.833333333333'
p28
aS'cl de'
p29
aS"jus d'oranges"
p30
aaa.