(lp0
S'Barbabulle'
p1
aF1.9
aI10
a(lp2
(lp3
S'4.0'
p4
aS'cl de'
p5
aS'liqueur de rhubarbe'
p6
aa(lp7
S'None'
p8
aS"quelques d\xc3\xa9s d'"
p9
aS'oranges'
p10
aa(lp11
S'None'
p12
aS'quelques d\xc3\xa9s de'
p13
aS'fraises'
p14
aa(lp15
S'1.0'
p16
aS'cl de'
p17
aS'sirop de miel'
p18
aa(lp19
S'None'
p20
aS'None'
p21
aS'champagne'
p22
aa(lp23
S'None'
p24
aS'None'
p25
aS'basilic'
p26
aaa.