(lp0
S'Nocturn'
p1
aF5.0
aI1
a(lp2
(lp3
S'40.0'
p4
aS'cl de'
p5
aS'vodka'
p6
aa(lp7
S'30.0'
p8
aS'cl de'
p9
aS'liqueur de menthe verte (get 27)'
p10
aa(lp11
S'10.0'
p12
aS'cl de'
p13
aS'cr\xc3\xa8me de m\xc3\xbbre'
p14
aa(lp15
S'10.0'
p16
aS'cl de'
p17
aS'cr\xc3\xa8me de myrtilles'
p18
aa(lp19
S'10.0'
p20
aS'cl de'
p21
aS'tequila'
p22
aaa.