(lp0
S'Grand prix'
p1
aF3.2
aI62
a(lp2
(lp3
S'4.0'
p4
aS'cl de'
p5
aS"jus d'ananas"
p6
aa(lp7
S'3.0'
p8
aS'cl de'
p9
aS'gin'
p10
aa(lp11
S'2.0'
p12
aS'cl de'
p13
aS'cr\xc3\xa8me de fruit de la passion'
p14
aa(lp15
S'1.0'
p16
aS'cl de'
p17
aS'liqueur de bananes (pisang ambon)'
p18
aaa.