(lp0
S"Drink Me I'm Famous"
p1
aF4.0
aI1
a(lp2
(lp3
S'1.0'
p4
aS'cl de'
p5
aS'chambord'
p6
aa(lp7
S'1.0'
p8
aS'cl de'
p9
aS'sirop de spicy mango'
p10
aa(lp11
S'3.0'
p12
aS'cl de'
p13
aS'pur\xc3\xa9e de framboise'
p14
aa(lp15
S'5.0'
p16
aS'cl de'
p17
aS'gin'
p18
aaa.