(lp0
S'4 You'
p1
aF3.3
aI190
a(lp2
(lp3
S'6.0'
p4
aS'cl de'
p5
aS'batida de coco'
p6
aa(lp7
S'2.5'
p8
aS'cl de'
p9
aS'liqueur de bananes (pisang ambon)'
p10
aa(lp11
S'1.0'
p12
aS'cl de'
p13
aS'cura\xc3\xa7ao bleu'
p14
aa(lp15
S'1.0'
p16
aS'cl de'
p17
aS'sirop de framboises'
p18
aa(lp19
S'5.0'
p20
aS'cl de'
p21
aS"jus d'abricots"
p22
aaa.