(lp0
S'Freres de la cote'
p1
aF3.8
aI5
a(lp2
(lp3
S'0.5'
p4
aS'cl de'
p5
aS'cura\xc3\xa7ao bleu'
p6
aa(lp7
S'3.0'
p8
aS'cl de'
p9
aS'gin'
p10
aa(lp11
S'2.5'
p12
aS'cl de'
p13
aS'cr\xc3\xa8me de p\xc3\xaache'
p14
aa(lp15
S'0.5'
p16
aS'cl de'
p17
aS'jus de citrons verts'
p18
aaa.