(lp0
S'Swimming pool'
p1
aF3.6
aI195
a(lp2
(lp3
S'0.5'
p4
aS'cl de'
p5
aS'cura\xc3\xa7ao bleu'
p6
aa(lp7
S'4.0'
p8
aS'cl de'
p9
aS"jus d'ananas"
p10
aa(lp11
S'3.0'
p12
aS'cl de'
p13
aS'rhum blanc'
p14
aa(lp15
S'1.5'
p16
aS'cl de'
p17
aS'vodka'
p18
aa(lp19
S'1.5'
p20
aS'cl de'
p21
aS'liqueur de coco (cocogif, malibu)'
p22
aa(lp23
S'0.5'
p24
aS'cl de'
p25
aS'cr\xc3\xa8me fra\xc3\xaeche liquide'
p26
aaa.