(lp0
S'Williams dry'
p1
aF4.0
aI1
a(lp2
(lp3
S'1.5'
p4
aS'cl de'
p5
aS'saint raphael rouge'
p6
aa(lp7
S'2.0'
p8
aS'cl de'
p9
aS'liqueur de poire'
p10
aa(lp11
S'3.5'
p12
aS'cl de'
p13
aS'vodka'
p14
aaa.