(lp0
S'Florius'
p1
aF2.0
aI1
a(lp2
(lp3
S'0.666666666667'
p4
aS'de'
p5
aS'marsala'
p6
aa(lp7
S'0.166666666667'
p8
aS'de'
p9
aS'drambuie'
p10
aa(lp11
S'0.166666666667'
p12
aS'de'
p13
aS'whisky (bourbon, whiskey)'
p14
aaa.