(lp0
S'Ros\xc3\xa9lia'
p1
aF4.0
aI4
a(lp2
(lp3
S'2.0'
p4
aS'cl de'
p5
aS'rhum blanc'
p6
aa(lp7
S'1.0'
p8
aS'cl de'
p9
aS'liqueur de fraises'
p10
aa(lp11
S'1.0'
p12
aS'cl de'
p13
aS'sirop de p\xc3\xaache'
p14
aa(lp15
S'1.0'
p16
aS'trait de'
p17
aS'citrons'
p18
aaa.