(lp0
S'Sweet Opaline'
p1
aF3.0
aI4
a(lp2
(lp3
S'5.0'
p4
aS'cl de'
p5
aS'liqueur de coco (cocogif, malibu)'
p6
aa(lp7
S'5.0'
p8
aS'cl de'
p9
aS'vermouth blanc (martini, cinzano)'
p10
aa(lp11
S'1.0'
p12
aS'cl de'
p13
aS'sirop de grenadine'
p14
aa(lp15
S'1.0'
p16
aS'trait de'
p17
aS"fleurs d'oranger"
p18
aaa.