(lp0
S'Long Cointreaupolitan'
p1
aF3.5
aI45
a(lp2
(lp3
S'2.0'
p4
aS'cl de'
p5
aS'triple sec (cointreau, grand marnier)'
p6
aa(lp7
S'2.0'
p8
aS'cl de'
p9
aS'jus de cranberry (canneberges)'
p10
aa(lp11
S'None'
p12
aS"jus d'un demi"
p13
aS'citrons'
p14
aa(lp15
S'None'
p16
aS'None'
p17
aS'limonade (soda, sprite, 7up)'
p18
aaa.