(lp0
S'Nounours team'
p1
aF2.5
aI4
a(lp2
(lp3
S'2.5'
p4
aS'cl de'
p5
aS'vodka'
p6
aa(lp7
S'2.5'
p8
aS'cl de'
p9
aS'whisky (bourbon, whiskey)'
p10
aa(lp11
S'2.5'
p12
aS'cl de'
p13
aS'liqueur de coco (cocogif, malibu)'
p14
aa(lp15
S'2.5'
p16
aS'cl de'
p17
aS"jus d'oranges"
p18
aa(lp19
S'0.5'
p20
aS'cl de'
p21
aS'sirop de fraises'
p22
aaa.