(lp0
S'Cuchi-Cuchi'
p1
aF3.2
aI55
a(lp2
(lp3
S'3.0'
p4
aS'cl de'
p5
aS'vodka'
p6
aa(lp7
S'3.0'
p8
aS'cl de'
p9
aS'liqueur de pommes (manzana, manzanita)'
p10
aa(lp11
S'5.0'
p12
aS'cl de'
p13
aS"jus d'oranges"
p14
aa(lp15
S'1.0'
p16
aS'cl de'
p17
aS"sirop d'orgeat"
p18
aa(lp19
S'1.0'
p20
aS'cl de'
p21
aS'cura\xc3\xa7ao bleu'
p22
aaa.