(lp0
S'Roman Sling'
p1
aF4.5
aI2
a(lp2
(lp3
S'6.0'
p4
aS'cl de'
p5
aS'gin'
p6
aa(lp7
S'1.0'
p8
aS'cl de'
p9
aS'cognac'
p10
aa(lp11
S'1.0'
p12
aS'cl de'
p13
aS'triple sec (cointreau, grand marnier)'
p14
aa(lp15
S'2.0'
p16
aS'cl de'
p17
aS"jus d'oranges"
p18
aa(lp19
S'2.0'
p20
aS'cl de'
p21
aS'jus de citrons'
p22
aaa.