(lp0
S'Yellow fingers'
p1
aF4.0
aI1
a(lp2
(lp3
S'5.0'
p4
aS'cl de'
p5
aS'gin'
p6
aa(lp7
S'2.5'
p8
aS'cl de'
p9
aS'eau-de-vie de m\xc3\xbbre'
p10
aa(lp11
S'4.0'
p12
aS'cl de'
p13
aS'liqueur de bananes (pisang ambon)'
p14
aa(lp15
S'1.0'
p16
aS'cl de'
p17
aS'cr\xc3\xa8me fra\xc3\xaeche liquide'
p18
aa(lp19
S'1.0'
p20
aS'cl de'
p21
aS'lait'
p22
aa(lp23
S'1.0'
p24
aS'pinc\xc3\xa9e de'
p25
aS'sucre'
p26
aaa.