(lp0
S'Apple fizz'
p1
aF4.2
aI18
a(lp2
(lp3
S'8.0'
p4
aS'cl de'
p5
aS'jus de pommes'
p6
aa(lp7
S'2.0'
p8
aS'cl de'
p9
aS'jus de citrons'
p10
aa(lp11
S'1.0'
p12
aS"blanc d'"
p13
aS'oeufs'
p14
aa(lp15
S'1.0'
p16
aS'cl de'
p17
aS'extrait de vanille'
p18
aaa.