(lp0
S'Afrofraise'
p1
aF2.8
aI4
a(lp2
(lp3
S'4.0'
p4
aS'cl de'
p5
aS'vodka'
p6
aa(lp7
S'1.0'
p8
aS'pinc\xc3\xa9es de'
p9
aS'fraise tagada'
p10
aa(lp11
S'1.0'
p12
aS'cl de'
p13
aS'sirop de fraises'
p14
aa(lp15
S'0.5'
p16
aS'cl de'
p17
aS'triple sec (cointreau, grand marnier)'
p18
aa(lp19
S'1.0'
p20
aS'cl de'
p21
aS'eau gazeuse (perrier, salvetat)'
p22
aaa.