(lp0
S'Mona lisa (Version ABF)'
p1
aF4.4
aI5
a(lp2
(lp3
S'0.5'
p4
aS'cl de'
p5
aS'angostura bitters'
p6
aa(lp7
S'2.0'
p8
aS'cl de'
p9
aS'chartreuse verte'
p10
aa(lp11
S'2.0'
p12
aS'cl de'
p13
aS'gin'
p14
aa(lp15
S'4.0'
p16
aS'cl de'
p17
aS"jus d'ananas"
p18
aa(lp19
S'4.0'
p20
aS'cl de'
p21
aS'tonic (schweppes)'
p22
aaa.