(lp0
S'Green Peach'
p1
aF3.5
aI2
a(lp2
(lp3
S'4.0'
p4
aS'None'
p5
aS'p\xc3\xaaches'
p6
aa(lp7
S'1.0'
p8
aS"poign\xc3\xa9e de feuilles d'"
p9
aS'\xc3\xa9pinards'
p10
aa(lp11
S'None'
p12
aS"les fanes d'une"
p13
aS'betterave'
p14
aa(lp15
S'20.0'
p16
aS"cl d'"
p17
aS'eau'
p18
aaa.