(lp0
S'Long Elzar Drink'
p1
aF3.5
aI8
a(lp2
(lp3
S'15.0'
p4
aS'cl de'
p5
aS'bi\xc3\xa8re'
p6
aa(lp7
S'4.0'
p8
aS'cl de'
p9
aS'tequila'
p10
aa(lp11
S'2.0'
p12
aS'cl de'
p13
aS'sirop de sucre de canne'
p14
aa(lp15
S'1.0'
p16
aS'trait de'
p17
aS'jus de citrons verts'
p18
aaa.