(lp0
S'Dirty Margarita'
p1
aF3.5
aI4
a(lp2
(lp3
S'5.0'
p4
aS'cl de'
p5
aS'tequila'
p6
aa(lp7
S'2.0'
p8
aS'cl de'
p9
aS'triple sec (cointreau, grand marnier)'
p10
aa(lp11
S'2.0'
p12
aS'cl de'
p13
aS'jus de citrons verts'
p14
aa(lp15
S'0.4'
p16
aS'cl de'
p17
aS"sirop d'agave"
p18
aa(lp19
S'0.3'
p20
aS'cl de'
p21
aS'saumure de c\xc3\xa2pres'
p22
aaa.