(lp0
S'Gilbertus'
p1
aF3.0
aI1
a(lp2
(lp3
S'0.5'
p4
aS'cl de'
p5
aS'sirop de fraises'
p6
aa(lp7
S'3.0'
p8
aS'cl de'
p9
aS'whisky (bourbon, whiskey)'
p10
aa(lp11
S'1.0'
p12
aS'cl de'
p13
aS'pecher mignon'
p14
aa(lp15
S'2.0'
p16
aS'cl de'
p17
aS'jus de fruit de la passion (maracuja)'
p18
aa(lp19
S'2.0'
p20
aS'cl de'
p21
aS'cr\xc3\xa8me de fruit de la passion'
p22
aaa.