(lp0
S"She's a bitch"
p1
aF3.3
aI3
a(lp2
(lp3
S'4.0'
p4
aS'cl de'
p5
aS'tequila'
p6
aa(lp7
S'3.0'
p8
aS'cl de'
p9
aS'pur\xc3\xa9e de fruits rouges'
p10
aa(lp11
S'1.0'
p12
aS'cl de'
p13
aS'sirop de jasmin'
p14
aaa.