(lp0
S'Ariane 4'
p1
aF3.3
aI24
a(lp2
(lp3
S'0.5'
p4
aS'cl de'
p5
aS'liqueur de fraises'
p6
aa(lp7
S'4.0'
p8
aS'cl de'
p9
aS'calvados'
p10
aa(lp11
S'0.5'
p12
aS'cl de'
p13
aS'spiritueux anis\xc3\xa9 (pastis, ricard, pernod)'
p14
aa(lp15
S'2.0'
p16
aS'cl de'
p17
aS"jus d'ananas"
p18
aaa.