(lp0
S'Shogun'
p1
aF3.0
aI1
a(lp2
(lp3
S'None'
p4
aS'None'
p5
aS'champagne'
p6
aa(lp7
S'2.0'
p8
aS'cl de'
p9
aS'armagnac'
p10
aa(lp11
S'1.5'
p12
aS'cl de'
p13
aS'cr\xc3\xa8me de myrtilles'
p14
aa(lp15
S'1.0'
p16
aS'cl de'
p17
aS'triple sec (cointreau, grand marnier)'
p18
aa(lp19
S'3.0'
p20
aS'cl de'
p21
aS'jus de mangues'
p22
aaa.