(lp0
S'After sex'
p1
aF3.2
aI412
a(lp2
(lp3
S'3.0'
p4
aS'cl de'
p5
aS'vodka'
p6
aa(lp7
S'2.0'
p8
aS'cl de'
p9
aS'cr\xc3\xa8me de bananes'
p10
aa(lp11
S'None'
p12
aS'None'
p13
aS"jus d'oranges"
p14
aa(lp15
S'0.5'
p16
aS'cl de'
p17
aS'sirop de grenadine'
p18
aa(lp19
S'1.0'
p20
aS'pinc\xc3\xa9e de'
p21
aS'sucre'
p22
aaa.