(lp0
S'Caipiruva'
p1
aF3.2
aI31
a(lp2
(lp3
S'4.0'
p4
aS'cl de'
p5
aS'cacha\xc3\xa7a'
p6
aa(lp7
S'4.0'
p8
aS'grains de'
p9
aS'raisins blancs'
p10
aa(lp11
S'2.0'
p12
aS'quartiers de'
p13
aS'citrons verts'
p14
aa(lp15
S'2.0'
p16
aS'cuill\xc3\xa8re \xc3\xa0 caf\xc3\xa9 de'
p17
aS'sucre'
p18
aaa.