(lp0
S'Lucie love'
p1
aF4.4
aI7
a(lp2
(lp3
S'2.5'
p4
aS'cl de'
p5
aS'vodka'
p6
aa(lp7
S'0.5'
p8
aS'cl de'
p9
aS'fraises'
p10
aa(lp11
S'1.5'
p12
aS'cl de'
p13
aS'liqueur de fraises'
p14
aa(lp15
S'2.0'
p16
aS'cl de'
p17
aS'nectar de p\xc3\xaaches'
p18
aaa.