(lp0
S'Punch rumbullion 1881'
p1
aF3.7
aI101
a(lp2
(lp3
S'6.0'
p4
aS'cl de'
p5
aS'jus de fruit de la passion (maracuja)'
p6
aa(lp7
S'4.0'
p8
aS'cl de'
p9
aS"jus d'ananas"
p10
aa(lp11
S'3.0'
p12
aS'cl de'
p13
aS'jus de kiwi'
p14
aa(lp15
S'4.0'
p16
aS'cl de'
p17
aS'rhum blanc'
p18
aaa.