(lp0
S'Comprim\xc3\xa9'
p1
aF4.0
aI1
a(lp2
(lp3
S'2.0'
p4
aS'cl de'
p5
aS'fernet-branca'
p6
aa(lp7
S'2.0'
p8
aS'cl de'
p9
aS'tequila'
p10
aa(lp11
S'5.0'
p12
aS'cl de'
p13
aS'vermouth rouge (martini, cinzano)'
p14
aaa.