(lp0
S'Chocolate banana smoothie'
p1
aF3.2
aI19
a(lp2
(lp3
S'3.0'
p4
aS'cuill\xc3\xa8res \xc3\xa0 soupe de'
p5
aS'nutella'
p6
aa(lp7
S'2.0'
p8
aS'None'
p9
aS'bananes'
p10
aa(lp11
S'20.0'
p12
aS'cl de'
p13
aS'lait'
p14
aa(lp15
S'6.0'
p16
aS'cl de'
p17
aS"sirop d'orgeat"
p18
aaa.