(lp0
S'Hot night in Bangkok'
p1
aF3.0
aI1
a(lp2
(lp3
S'3.0'
p4
aS'cl de'
p5
aS'sak\xc3\xa9 (alcool de riz)'
p6
aa(lp7
S'2.0'
p8
aS'cl de'
p9
aS'liqueur de ginseng'
p10
aa(lp11
S'1.5'
p12
aS'cl de'
p13
aS'jus de fruit de la passion (maracuja)'
p14
aa(lp15
S'0.5'
p16
aS'cl de'
p17
aS'nectar de tamarin'
p18
aa(lp19
S'2.0'
p20
aS'traits de'
p21
aS'jus de citrons verts'
p22
aaa.