(lp0
S'Patriote'
p1
aF3.4
aI29
a(lp2
(lp3
S'2.0'
p4
aS"cl d'"
p5
aS'eau-de-vie de poires williams'
p6
aa(lp7
S'None'
p8
aS'None'
p9
aS'jus de poires'
p10
aa(lp11
S'1.0'
p12
aS'cl de'
p13
aS'sirop de fraises'
p14
aa(lp15
S'1.0'
p16
aS'cl de'
p17
aS'rhum blanc'
p18
aa(lp19
S'0.5'
p20
aS'cl de'
p21
aS'cura\xc3\xa7ao bleu'
p22
aaa.