(lp0
S'Symposium'
p1
aF2.5
aI4
a(lp2
(lp3
S'4.0'
p4
aS'cl de'
p5
aS'gin'
p6
aa(lp7
S'3.0'
p8
aS'cl de'
p9
aS'passoa'
p10
aa(lp11
S'1.0'
p12
aS'cl de'
p13
aS'sirop de fruit de la passion (maracuja)'
p14
aa(lp15
S'2.0'
p16
aS'cl de'
p17
aS'jus de framboises'
p18
aa(lp19
S'2.0'
p20
aS'cl de'
p21
aS'jus de lychees (litchis)'
p22
aa(lp23
S'2.0'
p24
aS'cl de'
p25
aS'jus de pommes'
p26
aa(lp27
S'3.0'
p28
aS'cl de'
p29
aS'jus de mangues'
p30
aa(lp31
S'2.0'
p32
aS'cl de'
p33
aS'citrons'
p34
aa(lp35
S'1.0'
p36
aS'cl de'
p37
aS'sirop de grenadine'
p38
aaa.