(lp0
S'Duke'
p1
aF3.3
aI19
a(lp2
(lp3
S'None'
p4
aS'None'
p5
aS'triple sec (cointreau, grand marnier)'
p6
aa(lp7
S'1.0'
p8
aS'cuill\xc3\xa8res de'
p9
aS'jus de citrons'
p10
aa(lp11
S'1.0'
p12
aS'cuill\xc3\xa8re de'
p13
aS"jus d'oranges"
p14
aa(lp15
S'0.5'
p16
aS'cuill\xc3\xa8re de'
p17
aS'marasquin'
p18
aa(lp19
S'1.0'
p20
aS'None'
p21
aS'oeuf'
p22
aa(lp23
S'None'
p24
aS'None'
p25
aS'champagne'
p26
aaa.