(lp0
S'Morena'
p1
aF4.3
aI6
a(lp2
(lp3
S'0.25'
p4
aS' de'
p5
aS'mangues'
p6
aa(lp7
S'2.0'
p8
aS'None'
p9
aS'abricots'
p10
aa(lp11
S'1.0'
p12
aS'cuill\xc3\xa8re \xc3\xa0 caf\xc3\xa9 de'
p13
aS'sirop de miel'
p14
aa(lp15
S'1.0'
p16
aS'None'
p17
aS'orange'
p18
aa(lp19
S'1.0'
p20
aS'petite'
p21
aS'carottes'
p22
aaa.