(lp0
S'Rhum Pom Pom Pom'
p1
aF3.4
aI8
a(lp2
(lp3
S'2.0'
p4
aS'cl de'
p5
aS'rhum blanc'
p6
aa(lp7
S'2.0'
p8
aS'cl de'
p9
aS'sirop de pomme verte'
p10
aa(lp11
S'1.0'
p12
aS'cl de'
p13
aS'lime cordial'
p14
aa(lp15
S'1.0'
p16
aS'cl de'
p17
aS'liqueur de kiwis'
p18
aa(lp19
S'None'
p20
aS'None'
p21
aS'eau gazeuse (perrier, salvetat)'
p22
aaa.