(lp0
S'Trimaran'
p1
aF3.7
aI10
a(lp2
(lp3
S'2.0'
p4
aS'cl de'
p5
aS"jus d'abricots"
p6
aa(lp7
S'2.0'
p8
aS'cl de'
p9
aS'vodka'
p10
aa(lp11
S'1.0'
p12
aS'cl de'
p13
aS'liqueur de bananes (pisang ambon)'
p14
aa(lp15
S'1.0'
p16
aS'cl de'
p17
aS'gin'
p18
aa(lp19
S'2.0'
p20
aS'cl de'
p21
aS'jus de citrons verts'
p22
aa(lp23
S'0.5'
p24
aS'cl de'
p25
aS"sirop d'orgeat"
p26
aa(lp27
S'0.5'
p28
aS'cl de'
p29
aS'sirop de grenadine'
p30
aaa.