(lp0
S'Cool Koala'
p1
aF4.3
aI7
a(lp2
(lp3
S'1.0'
p4
aS'cl de'
p5
aS'vodka'
p6
aa(lp7
S'7.0'
p8
aS'cl de'
p9
aS'limonade (soda, sprite, 7up)'
p10
aa(lp11
S'2.0'
p12
aS'cl de'
p13
aS'sirop de citrons'
p14
aa(lp15
S'2.0'
p16
aS'cl de'
p17
aS'cura\xc3\xa7ao bleu'
p18
aa(lp19
S'1.0'
p20
aS'cl de'
p21
aS'rhum cubain'
p22
aaa.