(lp0
S'K-Rouge'
p1
aF4.3
aI4
a(lp2
(lp3
S'8.0'
p4
aS'cl de'
p5
aS'vodka'
p6
aa(lp7
S'12.0'
p8
aS'cl de'
p9
aS"jus d'oranges sanguines"
p10
aa(lp11
S'5.0'
p12
aS'cl de'
p13
aS'cura\xc3\xa7ao bleu'
p14
aaa.