(lp0
S"Prestige de l'esprit"
p1
aF4.0
aI1
a(lp2
(lp3
S'2.0'
p4
aS'cl de'
p5
aS'sirop de jasmin'
p6
aa(lp7
S'4.0'
p8
aS'cl de'
p9
aS'jus de pamplemousses roses'
p10
aa(lp11
S'None'
p12
aS'None'
p13
aS'champagne'
p14
aaa.