(lp0
S'The Ditch'
p1
aF3.7
aI3
a(lp2
(lp3
S'3.0'
p4
aS'cl de'
p5
aS'cognac'
p6
aa(lp7
S'3.0'
p8
aS'cl de'
p9
aS'cr\xc3\xa8me de whisky (baileys)'
p10
aa(lp11
S'1.5'
p12
aS'cl de'
p13
aS'b\xc3\xa9n\xc3\xa9dictine'
p14
aa(lp15
S'60.0'
p16
aS'grammes de'
p17
aS'sorbet de cr\xc3\xa8me br\xc3\xbbl\xc3\xa9e'
p18
aaa.