(lp0
S'Lara Croft'
p1
aF3.6
aI26
a(lp2
(lp3
S'0.625'
p4
aS'volumes de'
p5
aS'whisky (bourbon, whiskey)'
p6
aa(lp7
S'0.25'
p8
aS'volumes de'
p9
aS'liqueur de menthe blanche (get 31)'
p10
aa(lp11
S'0.125'
p12
aS'volumes de'
p13
aS'sirop de roses'
p14
aa(lp15
S'0.5'
p16
aS'cl de'
p17
aS'triple sec (cointreau, grand marnier)'
p18
aaa.