(lp0
S"Crow's nest"
p1
aF3.3
aI4
a(lp2
(lp3
S'2.0'
p4
aS'cl de'
p5
aS'rhum blanc'
p6
aa(lp7
S'2.0'
p8
aS'cl de'
p9
aS'whisky (bourbon, whiskey)'
p10
aa(lp11
S'2.0'
p12
aS'cl de'
p13
aS'sirop de grenadine'
p14
aa(lp15
S'2.0'
p16
aS'cl de'
p17
aS'jus de citrons verts'
p18
aaa.