(lp0
S'Bugs Bunny'
p1
aF3.4
aI8
a(lp2
(lp3
S'10.0'
p4
aS'cl de'
p5
aS'jus de carottes'
p6
aa(lp7
S'5.0'
p8
aS'cl de'
p9
aS'jus de tomates'
p10
aa(lp11
S'2.0'
p12
aS'cl de'
p13
aS'jus de citrons'
p14
aa(lp15
S'None'
p16
aS'None'
p17
aS'sel de c\xc3\xa9leri'
p18
aa(lp19
S'None'
p20
aS'None'
p21
aS'poivre'
p22
aaa.