(lp0
S'Violet Gin Tonic'
p1
aF2.9
aI23
a(lp2
(lp3
S'3.0'
p4
aS'cl de'
p5
aS'gin'
p6
aa(lp7
S'2.0'
p8
aS'cl de'
p9
aS'liqueur de violette'
p10
aa(lp11
S'None'
p12
aS'None'
p13
aS'tonic (schweppes)'
p14
aaa.