(lp0
S'Caniche'
p1
aF3.1
aI18
a(lp2
(lp3
S'4.0'
p4
aS'cl de'
p5
aS'whisky (bourbon, whiskey)'
p6
aa(lp7
S'3.0'
p8
aS'cl de'
p9
aS'cr\xc3\xa8me fra\xc3\xaeche liquide'
p10
aa(lp11
S'1.0'
p12
aS'cl de'
p13
aS'sirop de miel'
p14
aaa.