(lp0
S'Caresse fruit\xc3\xa9e'
p1
aF3.0
aI1
a(lp2
(lp3
S'1.0'
p4
aS'boules de'
p5
aS'sorbet \xc3\xa0 la vanille'
p6
aa(lp7
S'0.333333333333'
p8
aS'petite bouteille de'
p9
aS'jus de cerises'
p10
aa(lp11
S'0.5'
p12
aS'bonne cuill\xc3\xa8re \xc3\xa0 caf\xc3\xa9 de'
p13
aS'sirop de miel'
p14
aa(lp15
S'1.5'
p16
aS'cl de'
p17
aS"jus d'oranges"
p18
aa(lp19
S'2.0'
p20
aS'cl de'
p21
aS'cr\xc3\xa8me fra\xc3\xaeche liquide'
p22
aa(lp23
S'0.5'
p24
aS'trait  de'
p25
aS'sirop de framboises'
p26
aa(lp27
S'7.5'
p28
aS'cl de'
p29
aS'lait'
p30
aaa.