(lp0
S'Fire bomb'
p1
aF4.0
aI5
a(lp2
(lp3
S'2.0'
p4
aS'cl de'
p5
aS'whisky (bourbon, whiskey)'
p6
aa(lp7
S'2.0'
p8
aS'cl de'
p9
aS'vodka'
p10
aa(lp11
S'2.0'
p12
aS'cl de'
p13
aS'tequila'
p14
aa(lp15
S'None'
p16
aS'traits de'
p17
aS'tabasco'
p18
aaa.