(lp0
S'Blue ocean'
p1
aF3.0
aI390
a(lp2
(lp3
S'7.0'
p4
aS'cl de'
p5
aS'jus de pamplemousses'
p6
aa(lp7
S'2.0'
p8
aS'cl de'
p9
aS'cura\xc3\xa7ao bleu'
p10
aa(lp11
S'2.0'
p12
aS'cl de'
p13
aS'vodka'
p14
aaa.