(lp0
S'Summer Queen'
p1
aF3.0
aI4
a(lp2
(lp3
S'3.0'
p4
aS'volumes de'
p5
aS'cr\xc3\xa8me de myrtilles'
p6
aa(lp7
S'2.0'
p8
aS'volumes de'
p9
aS'triple sec (cointreau, grand marnier)'
p10
aa(lp11
S'0.5'
p12
aS'volume de'
p13
aS'cr\xc3\xa8me de whisky (baileys)'
p14
aa(lp15
S'1.0'
p16
aS'volume de'
p17
aS'sirop de noix de coco'
p18
aa(lp19
S'None'
p20
aS'quelques'
p21
aS'fraises'
p22
aaa.