(lp0
S'Blue margarita'
p1
aF3.5
aI207
a(lp2
(lp3
S'4.5'
p4
aS'cl de'
p5
aS'tequila'
p6
aa(lp7
S'3.0'
p8
aS'cl de'
p9
aS'jus de citrons verts'
p10
aa(lp11
S'1.5'
p12
aS'cl de'
p13
aS'cura\xc3\xa7ao bleu'
p14
aaa.