(lp0
S'Fashion Pajalito'
p1
aF3.3
aI3
a(lp2
(lp3
S'3.0'
p4
aS'pinc\xc3\xa9es de'
p5
aS'feuilles de menthe'
p6
aa(lp7
S'30.0'
p8
aS'grammes de'
p9
aS'citrons verts'
p10
aa(lp11
S'8.0'
p12
aS'cl de'
p13
aS'jus de pommes'
p14
aa(lp15
S'8.0'
p16
aS'cl de'
p17
aS'limonade (soda, sprite, 7up)'
p18
aa(lp19
S'1.0'
p20
aS'cl de'
p21
aS'sirop de sucre de canne'
p22
aaa.