(lp0
S'Liqueur de m\xc3\xbbre'
p1
aF3.2
aI143
a(lp2
(lp3
S'0.1'
p4
aS'kilo de'
p5
aS'm\xc3\xbbres'
p6
aa(lp7
S'0.1'
p8
aS"litre d'"
p9
aS'alcool \xc3\xa0 40\xc2\xb0'
p10
aa(lp11
S'60.0'
p12
aS'grammes de'
p13
aS'sucre'
p14
aa(lp15
S'1.0'
p16
aS"cl d'"
p17
aS'eau'
p18
aaa.