(lp0
S'Grand \xc3\xa9clat'
p1
aF3.7
aI3
a(lp2
(lp3
S'4.0'
p4
aS'cl de'
p5
aS'triple sec (cointreau, grand marnier)'
p6
aa(lp7
S'4.0'
p8
aS'cl de'
p9
aS'jus de raisins'
p10
aa(lp11
S'2.0'
p12
aS'cl de'
p13
aS'pur\xc3\xa9e de fruits rouges'
p14
aa(lp15
S'4.0'
p16
aS'cl de'
p17
aS'ginger ale (canada dry)'
p18
aaa.