(lp0
S'Filippo'
p1
aF3.2
aI15
a(lp2
(lp3
S'2.0'
p4
aS'cl de'
p5
aS'jus de pamplemousses'
p6
aa(lp7
S'2.0'
p8
aS'cl de'
p9
aS'cura\xc3\xa7ao bleu'
p10
aa(lp11
S'2.0'
p12
aS'cl de'
p13
aS'angostura bitters'
p14
aa(lp15
S'0.5'
p16
aS'cl de'
p17
aS'cr\xc3\xa8me de p\xc3\xaache'
p18
aaa.