(lp0
S'LLC (Lava Lamp Champagne)'
p1
aF3.1
aI8
a(lp2
(lp3
S'2.0'
p4
aS'cl de'
p5
aS'liqueur de jasmin'
p6
aa(lp7
S'1.0'
p8
aS'cuill\xc3\xa8re \xc3\xa0 caf\xc3\xa9 de'
p9
aS'perles de figue'
p10
aa(lp11
S'None'
p12
aS'None'
p13
aS'champagne'
p14
aaa.