(lp0
S'Roller rock'
p1
aF3.7
aI3
a(lp2
(lp3
S'3.0'
p4
aS'cl de'
p5
aS'vodka'
p6
aa(lp7
S'2.0'
p8
aS'cl de'
p9
aS'chartreuse verte'
p10
aa(lp11
S'2.0'
p12
aS'cl de'
p13
aS'liqueur de cacao brun'
p14
aaa.