(lp0
S'Wild Purple'
p1
aF3.0
aI2
a(lp2
(lp3
S'1.0'
p4
aS'tasse de'
p5
aS'myrtilles (bleuets)'
p6
aa(lp7
S'1.0'
p8
aS'None'
p9
aS'banane'
p10
aa(lp11
S'3.0'
p12
aS'None'
p13
aS'prunes'
p14
aa(lp15
S'0.5'
p16
aS't\xc3\xaate de'
p17
aS'laitue romaine'
p18
aa(lp19
S'0.5'
p20
aS'None'
p21
aS'concombre'
p22
aa(lp23
S'25.0'
p24
aS"cl d'"
p25
aS'eau'
p26
aaa.