(lp0
S'Coyote'
p1
aF3.0
aI1
a(lp2
(lp3
S'3.0'
p4
aS'cl de'
p5
aS"jus d'oranges"
p6
aa(lp7
S'3.0'
p8
aS'cl de'
p9
aS'whisky (bourbon, whiskey)'
p10
aa(lp11
S'2.0'
p12
aS'cl de'
p13
aS'liqueur de poire'
p14
aa(lp15
S'2.0'
p16
aS'cl de'
p17
aS'triple sec (cointreau, grand marnier)'
p18
aaa.