(lp0
S'Fronzy'
p1
aF4.4
aI8
a(lp2
(lp3
S'1.0'
p4
aS'cl de'
p5
aS'sirop de grenadine'
p6
aa(lp7
S'1.0'
p8
aS'cl de'
p9
aS'sirop de citrons'
p10
aa(lp11
S'6.0'
p12
aS'cl de'
p13
aS'vodka noire'
p14
aa(lp15
S'6.0'
p16
aS'cl de'
p17
aS'limonade (soda, sprite, 7up)'
p18
aa(lp19
S'6.0'
p20
aS'cl de'
p21
aS'burn'
p22
aaa.