(lp0
S'Ginger Fizz 2'
p1
aF3.7
aI6
a(lp2
(lp3
S'3.0'
p4
aS'cl de'
p5
aS'gin'
p6
aa(lp7
S'1.0'
p8
aS'cl de'
p9
aS"jus d'oranges"
p10
aa(lp11
S'None'
p12
aS'None'
p13
aS'ginger ale (canada dry)'
p14
aaa.