(lp0
S'Banshee'
p1
aF3.1
aI14
a(lp2
(lp3
S'0.333333333333'
p4
aS'de'
p5
aS'cr\xc3\xa8me fra\xc3\xaeche liquide'
p6
aa(lp7
S'0.333333333333'
p8
aS'de'
p9
aS'cr\xc3\xa8me de banane'
p10
aa(lp11
S'0.333333333333'
p12
aS'de'
p13
aS'liqueur de cacao brun'
p14
aa(lp15
S'None'
p16
aS'None'
p17
aS'sucre'
p18
aaa.