(lp0
S'Cherry Cherry'
p1
aF5.0
aI2
a(lp2
(lp3
S'None'
p4
aS'None'
p5
aS"jus d'oranges"
p6
aa(lp7
S'4.0'
p8
aS'cl de'
p9
aS'liqueur de cerises (cherry brandy)'
p10
aa(lp11
S'4.0'
p12
aS'cl de'
p13
aS'liqueur de cerises (cherry brandy)'
p14
aaa.