(lp0
S'Fairy or the lake'
p1
aF2.0
aI4
a(lp2
(lp3
S'4.0'
p4
aS'cl de'
p5
aS'porto rouge'
p6
aa(lp7
S'1.0'
p8
aS'None'
p9
aS'fruit de la passion (maracuja)'
p10
aa(lp11
S'4.0'
p12
aS'cl de'
p13
aS'licor 43'
p14
aa(lp15
S'2.0'
p16
aS'cl de'
p17
aS'brandy'
p18
aaa.