(lp0
S'Biguine'
p1
aF3.8
aI27
a(lp2
(lp3
S'0.6'
p4
aS'de'
p5
aS"jus d'oranges"
p6
aa(lp7
S'0.2'
p8
aS'de'
p9
aS'vodka'
p10
aa(lp11
S'0.2'
p12
aS'de'
p13
aS'liqueur de coco (cocogif, malibu)'
p14
aa(lp15
S'0.5'
p16
aS'cl de'
p17
aS'sirop de grenadine'
p18
aaa.