(lp0
S'Highland Breeze'
p1
aF3.0
aI1
a(lp2
(lp3
S'1.25'
p4
aS'cl de'
p5
aS'cr\xc3\xa8me de m\xc3\xbbre'
p6
aa(lp7
S'4.0'
p8
aS'cl de'
p9
aS'whisky (bourbon, whiskey)'
p10
aa(lp11
S'5.0'
p12
aS'cl de'
p13
aS'jus de cranberry (canneberges)'
p14
aa(lp15
S'2.0'
p16
aS'cl de'
p17
aS'pur\xc3\xa9e de poires'
p18
aa(lp19
S'1.0'
p20
aS'trait de'
p21
aS'jus de citrons verts'
p22
aaa.