(lp0
S'No\xc3\xabl blanc'
p1
aF4.0
aI6
a(lp2
(lp3
S'6.0'
p4
aS'cl de'
p5
aS'vodka'
p6
aa(lp7
S'4.0'
p8
aS'cl de'
p9
aS'liqueur de cacao blanc'
p10
aa(lp11
S'2.0'
p12
aS'cl de'
p13
aS'schnapps \xc3\xa0 la menthe'
p14
aaa.