(lp0
S"L'oranger"
p1
aF3.5
aI4
a(lp2
(lp3
S'5.0'
p4
aS'/10\xc3\xa8me'
p5
aS'jus de pamplemousses roses'
p6
aa(lp7
S'3.0'
p8
aS'/10\xc3\xa8me'
p9
aS"jus d'ananas"
p10
aa(lp11
S'1.0'
p12
aS'/10\xc3\xa8me'
p13
aS"sirop d'ananas"
p14
aa(lp15
S'1.0'
p16
aS'/10\xc3\xa8me'
p17
aS'sirop de grenadine'
p18
aa(lp19
S'None'
p20
aS'None'
p21
aS'sucre'
p22
aa(lp23
S'None'
p24
aS'None'
p25
aS'oeufs'
p26
aaa.