(lp0
S'Bay of passion'
p1
aF3.4
aI257
a(lp2
(lp3
S'5.0'
p4
aS'cl de'
p5
aS'vodka'
p6
aa(lp7
S'2.0'
p8
aS'cl de'
p9
aS'cr\xc3\xa8me de fruit de la passion'
p10
aa(lp11
S'0.15'
p12
aS'litres de'
p13
aS"jus d'ananas"
p14
aa(lp15
S'0.1'
p16
aS'litres de'
p17
aS'jus de cranberry (canneberges)'
p18
aa(lp19
S'0.5'
p20
aS'cl de'
p21
aS'sirop de grenadine'
p22
aaa.