(lp0
S'75 Cocktail'
p1
aF3.2
aI57
a(lp2
(lp3
S'1.0'
p4
aS"cuill\xc3\xa8re \xc3\xa0 caf\xc3\xa9 d'"
p5
aS'absinthe'
p6
aa(lp7
S'3.0'
p8
aS'cl de'
p9
aS'calvados'
p10
aa(lp11
S'1.0'
p12
aS'cl de'
p13
aS'gin'
p14
aaa.