(lp0
S'Golden moon'
p1
aF2.2
aI5
a(lp2
(lp3
S'None'
p4
aS'None'
p5
aS'champagne'
p6
aa(lp7
S'1.5'
p8
aS'cl de'
p9
aS"jus d'ananas"
p10
aa(lp11
S'2.0'
p12
aS'cl de'
p13
aS"liqueur d'abricots (abricot brandy)"
p14
aa(lp15
S'0.5'
p16
aS'cl de'
p17
aS'jus de pamplemousses'
p18
aaa.