(lp0
S'Eloise'
p1
aF3.8
aI5
a(lp2
(lp3
S'None'
p4
aS'None'
p5
aS'ginger ale (canada dry)'
p6
aa(lp7
S'0.5'
p8
aS'cl de'
p9
aS'tabasco'
p10
aa(lp11
S'3.0'
p12
aS'cl de'
p13
aS'vodka'
p14
aa(lp15
S'2.0'
p16
aS'cl de'
p17
aS"liqueur d'abricots (abricot brandy)"
p18
aa(lp19
S'1.0'
p20
aS'cl de'
p21
aS'vermouth blanc (martini, cinzano)'
p22
aa(lp23
S'None'
p24
aS"jus d'1"
p25
aS'citrons'
p26
aaa.