(lp0
S'Chambord c\xc3\xa9l\xc3\xa9bration'
p1
aF3.5
aI2
a(lp2
(lp3
S'4.0'
p4
aS'cl de'
p5
aS'chambord'
p6
aa(lp7
S'2.0'
p8
aS'cl de'
p9
aS'vodka'
p10
aa(lp11
S'3.0'
p12
aS'quartiers de'
p13
aS'citrons'
p14
aa(lp15
S'None'
p16
aS'None'
p17
aS'eau gazeuse (perrier, salvetat)'
p18
aaa.