(lp0
S'Lait de poule sans alcool'
p1
aF3.7
aI42
a(lp2
(lp3
S'2.0'
p4
aS'cl de'
p5
aS'sirop caribbean (saveur rhum)'
p6
aa(lp7
S'2.0'
p8
aS'cl de'
p9
aS'sirop de vanille'
p10
aa(lp11
S'1.0'
p12
aS"jaune d'"
p13
aS'oeufs'
p14
aa(lp15
S'15.0'
p16
aS'cl de'
p17
aS'lait'
p18
aaa.