(lp0
S'Avocat Flip'
p1
aF3.1
aI7
a(lp2
(lp3
S'15.0'
p4
aS'cl de'
p5
aS'jus de tomates'
p6
aa(lp7
S'1.0'
p8
aS'None'
p9
aS'avocat'
p10
aa(lp11
S'2.0'
p12
aS'cl de'
p13
aS'jus de citrons'
p14
aa(lp15
S'1.0'
p16
aS"jaune d'"
p17
aS'oeufs'
p18
aa(lp19
S'3.0'
p20
aS'traits de'
p21
aS'sauce worcestershire'
p22
aa(lp23
S'None'
p24
aS'None'
p25
aS'sel de c\xc3\xa9leri'
p26
aa(lp27
S'None'
p28
aS'None'
p29
aS'poivre'
p30
aaa.