(lp0
S'Smile'
p1
aF2.3
aI4
a(lp2
(lp3
S'3.0'
p4
aS'cl de'
p5
aS'absolut mandarine'
p6
aa(lp7
S'2.0'
p8
aS'cl de'
p9
aS'charleston follies'
p10
aa(lp11
S'2.0'
p12
aS'cl de'
p13
aS'vermouth dry (martini, noilly prat)'
p14
aa(lp15
S'1.0'
p16
aS'cl de'
p17
aS'sirop de fraises'
p18
aa(lp19
S'12.0'
p20
aS'cl de'
p21
aS"jus d'ananas"
p22
aaa.