(lp0
S'Porto Pink Lady'
p1
aF2.8
aI8
a(lp2
(lp3
S'5.0'
p4
aS'cl de'
p5
aS'porto pink'
p6
aa(lp7
S'5.0'
p8
aS'cl de'
p9
aS'jus de framboises'
p10
aa(lp11
S'1.0'
p12
aS'trait de'
p13
aS'sirop de cerise'
p14
aaa.