(lp0
S'Dawa'
p1
aF2.8
aI13
a(lp2
(lp3
S'6.0'
p4
aS'cl de'
p5
aS'vodka'
p6
aa(lp7
S'2.0'
p8
aS'cuill\xc3\xa8res \xc3\xa0 caf\xc3\xa9 de'
p9
aS'sirop de miel'
p10
aa(lp11
S'1.0'
p12
aS'None'
p13
aS'citrons vert'
p14
aaa.