(lp0
S'Knifey Moloko'
p1
aF3.0
aI27
a(lp2
(lp3
S'2.0'
p4
aS"cl d'"
p5
aS'absinthe'
p6
aa(lp7
S'2.0'
p8
aS"cl d'"
p9
aS'anisette (berger blanc)'
p10
aa(lp11
S'4.0'
p12
aS'cl de'
p13
aS'cr\xc3\xa8me de whisky (baileys)'
p14
aa(lp15
S'1.0'
p16
aS'cl de'
p17
aS'sirop de sucre de canne'
p18
aa(lp19
S'10.0'
p20
aS'cl de'
p21
aS'lait'
p22
aaa.