(lp0
S'Spring Punch'
p1
aF3.6
aI5
a(lp2
(lp3
S'1.0'
p4
aS'cl de'
p5
aS'sirop de fraises'
p6
aa(lp7
S'2.0'
p8
aS'cl de'
p9
aS'rhum blanc'
p10
aa(lp11
S'1.0'
p12
aS'cl de'
p13
aS'sirop de cerise'
p14
aa(lp15
S'3.0'
p16
aS'cl de'
p17
aS'jus de cranberry (canneberges)'
p18
aa(lp19
S'None'
p20
aS'None'
p21
aS'eau gazeuse (perrier, salvetat)'
p22
aaa.