(lp0
S'Crossbow'
p1
aF3.0
aI1
a(lp2
(lp3
S'1.5'
p4
aS'cl de'
p5
aS'triple sec (cointreau, grand marnier)'
p6
aa(lp7
S'1.5'
p8
aS'cl de'
p9
aS'liqueur de cacao brun'
p10
aa(lp11
S'1.5'
p12
aS'cl de'
p13
aS'gin'
p14
aaa.