(lp0
S'Sangria au vin blanc'
p1
aF2.8
aI87
a(lp2
(lp3
S'6.0'
p4
aS'cl de'
p5
aS'vin blanc'
p6
aa(lp7
S'2.5'
p8
aS'cl de'
p9
aS"jus d'ananas"
p10
aa(lp11
S'0.5'
p12
aS'cl de'
p13
aS'cognac'
p14
aa(lp15
S'0.1'
p16
aS'cuill\xc3\xa8re \xc3\xa0 soupe de'
p17
aS'sucre glace'
p18
aa(lp19
S'0.025'
p20
aS"d'"
p21
aS'ananas'
p22
aa(lp23
S'0.1'
p24
aS'demie'
p25
aS'oranges'
p26
aa(lp27
S'0.1'
p28
aS'None'
p29
aS'citron'
p30
aa(lp31
S'2.0'
p32
aS'cl de'
p33
aS'limonade (soda, sprite, 7up)'
p34
aaa.