(lp0
S'Rondo'
p1
aF3.7
aI3
a(lp2
(lp3
S'2.5'
p4
aS'cl de'
p5
aS'tequila'
p6
aa(lp7
S'1.5'
p8
aS'cl de'
p9
aS'liqueur de poire'
p10
aa(lp11
S'1.0'
p12
aS'cl de'
p13
aS'fraises'
p14
aa(lp15
S'1.0'
p16
aS'cl de'
p17
aS'angostura bitters'
p18
aa(lp19
S'1.0'
p20
aS'cl de'
p21
aS'vermouth rouge (martini, cinzano)'
p22
aaa.