(lp0
S'Bubble tea Cappuccino'
p1
aF3.6
aI7
a(lp2
(lp3
S'10.0'
p4
aS'cl de'
p5
aS'caf\xc3\xa9'
p6
aa(lp7
S'10.0'
p8
aS'cl de'
p9
aS'lait'
p10
aa(lp11
S'6.0'
p12
aS'cl de'
p13
aS'sirop de sucre de canne'
p14
aa(lp15
S'50.0'
p16
aS'grammes de billes de'
p17
aS'tapioca'
p18
aa(lp19
S'1.0'
p20
aS'cuill\xc3\xa8re \xc3\xa0 caf\xc3\xa9 de'
p21
aS'cacao en poudre'
p22
aaa.