(lp0
S'Lait de poule version 2'
p1
aF3.6
aI5
a(lp2
(lp3
S'None'
p4
aS'None'
p5
aS'sucre'
p6
aa(lp7
S'10.0'
p8
aS'cl de'
p9
aS'lait'
p10
aa(lp11
S'2.0'
p12
aS'cl de'
p13
aS'cr\xc3\xa8me de vanille'
p14
aa(lp15
S'4.0'
p16
aS'cl de'
p17
aS'rhum blanc'
p18
aa(lp19
S'1.0'
p20
aS"jaune d'"
p21
aS'oeufs'
p22
aaa.