(lp0
S'Kingston'
p1
aF3.3
aI3
a(lp2
(lp3
S'3.0'
p4
aS'cl de'
p5
aS'rhum blanc'
p6
aa(lp7
S'2.0'
p8
aS'cl de'
p9
aS'triple sec (cointreau, grand marnier)'
p10
aa(lp11
S'1.5'
p12
aS'cl de'
p13
aS"jus d'ananas"
p14
aa(lp15
S'1.0'
p16
aS'cl de'
p17
aS'cr\xc3\xa8me de bananes'
p18
aa(lp19
S'0.5'
p20
aS'cl de'
p21
aS'cura\xc3\xa7ao bleu'
p22
aaa.