(lp0
S'Sex appeal'
p1
aF3.2
aI291
a(lp2
(lp3
S'3.0'
p4
aS'cl de'
p5
aS'liqueur de coco (cocogif, malibu)'
p6
aa(lp7
S'3.0'
p8
aS'cl de'
p9
aS'gin'
p10
aa(lp11
S'6.0'
p12
aS'cl de'
p13
aS'jus de cranberry (canneberges)'
p14
aa(lp15
S'1.0'
p16
aS'cl de'
p17
aS'sirop de fraises'
p18
aaa.