(lp0
S'Weep no more'
p1
aF4.0
aI1
a(lp2
(lp3
S'6.0'
p4
aS'cl de'
p5
aS'dubonnet rouge'
p6
aa(lp7
S'4.0'
p8
aS'cl de'
p9
aS'brandy'
p10
aa(lp11
S'0.5'
p12
aS'cl de'
p13
aS'marasquin'
p14
aa(lp15
S'3.0'
p16
aS'cl de'
p17
aS'jus de citrons verts'
p18
aaa.