(lp0
S'Building'
p1
aF3.5
aI77
a(lp2
(lp3
S'2.0'
p4
aS'cl de'
p5
aS'gin'
p6
aa(lp7
S'1.0'
p8
aS'cl de'
p9
aS'vodka'
p10
aa(lp11
S'1.0'
p12
aS'cl de'
p13
aS'liqueur de bananes (pisang ambon)'
p14
aa(lp15
S'6.0'
p16
aS'cl de'
p17
aS"jus d'ananas"
p18
aa(lp19
S'1.0'
p20
aS'cl de'
p21
aS'cr\xc3\xa8me de cassis'
p22
aaa.