(lp0
S'Coptel'
p1
aF3.4
aI26
a(lp2
(lp3
S'2.0'
p4
aS'cl de'
p5
aS'liqueur de past\xc3\xa8ques'
p6
aa(lp7
S'4.0'
p8
aS'cl de'
p9
aS'jus de fraises'
p10
aa(lp11
S'None'
p12
aS'None'
p13
aS'champagne'
p14
aaa.