(lp0
S'Surf sider'
p1
aF4.0
aI5
a(lp2
(lp3
S'3.0'
p4
aS'cl de'
p5
aS'rhum blanc'
p6
aa(lp7
S'3.0'
p8
aS'cl de'
p9
aS"jus d'ananas"
p10
aa(lp11
S'1.5'
p12
aS'cl de'
p13
aS'cura\xc3\xa7ao bleu'
p14
aa(lp15
S'0.5'
p16
aS'cl de'
p17
aS'sirop de sucre de canne'
p18
aaa.