(lp0
S'Petite chinoiserie'
p1
aF3.4
aI5
a(lp2
(lp3
S'1.0'
p4
aS'cl de'
p5
aS'sak\xc3\xa9 (alcool de riz)'
p6
aa(lp7
S'1.5'
p8
aS'cl de'
p9
aS'liqueur de citrons (limoncello)'
p10
aa(lp11
S'5.0'
p12
aS'cl de'
p13
aS'jus de mandarines'
p14
aaa.