(lp0
S'Ki-Kiwi'
p1
aF3.8
aI6
a(lp2
(lp3
S'1.5'
p4
aS'None'
p5
aS'kiwi'
p6
aa(lp7
S'1.0'
p8
aS'cl de'
p9
aS'cr\xc3\xa9me de p\xc3\xaache'
p10
aa(lp11
S'2.0'
p12
aS'cl de'
p13
aS'liqueur de lychees (soho, litchao)'
p14
aa(lp15
S'2.0'
p16
aS'cl de'
p17
aS'triple sec (cointreau, grand marnier)'
p18
aaa.