(lp0
S'Vin de Figues'
p1
aF3.0
aI102
a(lp2
(lp3
S'0.25'
p4
aS'litres de'
p5
aS'vin ros\xc3\xa9'
p6
aa(lp7
S'0.05'
p8
aS'litre de'
p9
aS'vodka'
p10
aa(lp11
S'35.0'
p12
aS'grammes de'
p13
aS'sucre'
p14
aa(lp15
S'0.6'
p16
aS'feuilles de jeune'
p17
aS'feuilles de figuier'
p18
aa(lp19
S'0.075'
p20
aS'kilos de'
p21
aS'figues'
p22
aaa.