(lp0
S'Septi\xc3\xa8me ciel'
p1
aF4.4
aI5
a(lp2
(lp3
S'4.0'
p4
aS'cl de'
p5
aS'gin'
p6
aa(lp7
S'3.0'
p8
aS'cl de'
p9
aS"liqueur d'abricots (abricot brandy)"
p10
aa(lp11
S'5.0'
p12
aS'cl de'
p13
aS'jus de citrons'
p14
aa(lp15
S'2.5'
p16
aS'cl de'
p17
aS'jus de fruit de la passion (maracuja)'
p18
aa(lp19
S'2.0'
p20
aS'cl de'
p21
aS'sirop de sucre de canne'
p22
aaa.