(lp0
S'Irish flag'
p1
aF3.4
aI14
a(lp2
(lp3
S'3.0'
p4
aS'cl de'
p5
aS'triple sec (cointreau, grand marnier)'
p6
aa(lp7
S'3.0'
p8
aS'cl de'
p9
aS'cr\xc3\xa8me de whisky (baileys)'
p10
aa(lp11
S'3.0'
p12
aS'cl de'
p13
aS'liqueur de menthe blanche (get 31)'
p14
aaa.