(lp0
S'Midnight Vultures'
p1
aF4.3
aI3
a(lp2
(lp3
S'1.0'
p4
aS'cl de'
p5
aS'triple sec (cointreau, grand marnier)'
p6
aa(lp7
S'1.5'
p8
aS'cl de'
p9
aS'sirop de cannelle'
p10
aa(lp11
S'1.5'
p12
aS'cl de'
p13
aS'sirop de pomme'
p14
aa(lp15
S'4.0'
p16
aS'cl de'
p17
aS'whisky (bourbon, whiskey)'
p18
aa(lp19
S'6.0'
p20
aS'cl de'
p21
aS'ginger ale (canada dry)'
p22
aaa.