(lp0
S'Savoy Corpse Reviver'
p1
aF3.8
aI5
a(lp2
(lp3
S'3.0'
p4
aS'cl de'
p5
aS'cognac'
p6
aa(lp7
S'2.0'
p8
aS'cl de'
p9
aS'fernet-branca'
p10
aa(lp11
S'2.0'
p12
aS'cl de'
p13
aS'liqueur de menthe blanche (get 31)'
p14
aaa.