(lp0
S'Red Shake'
p1
aF4.0
aI2
a(lp2
(lp3
S'4.0'
p4
aS'cl de'
p5
aS'liqueur de fraises'
p6
aa(lp7
S'1.0'
p8
aS'cl de'
p9
aS'jus de citrons'
p10
aa(lp11
S'1.0'
p12
aS'cuill\xc3\xa8re \xc3\xa0 caf\xc3\xa9 de'
p13
aS'fruits rouges'
p14
aa(lp15
S'None'
p16
aS'None'
p17
aS'sorbet \xc3\xa0 la vanille'
p18
aaa.