(lp0
S'Vin de framboises'
p1
aF3.2
aI143
a(lp2
(lp3
S'0.1'
p4
aS"litres d'"
p5
aS'eau'
p6
aa(lp7
S'0.05'
p8
aS'kilo de'
p9
aS'sucre'
p10
aa(lp11
S'0.05'
p12
aS'litres de'
p13
aS'jus de framboises'
p14
aaa.