(lp0
S'Vodka mary'
p1
aF2.9
aI17
a(lp2
(lp3
S'3.0'
p4
aS'cl de'
p5
aS'vodka'
p6
aa(lp7
S'0.333333333333'
p8
aS'bouteille de'
p9
aS"jus d'ananas"
p10
aa(lp11
S'0.333333333333'
p12
aS'bouteille de'
p13
aS'jus de cranberry (canneberges)'
p14
aa(lp15
S'5.0'
p16
aS'gouttes de'
p17
aS'sirop de grenadine'
p18
aaa.