(lp0
S'Passion du large'
p1
aF3.6
aI151
a(lp2
(lp3
S'3.0'
p4
aS'cl de'
p5
aS'whisky (bourbon, whiskey)'
p6
aa(lp7
S'2.0'
p8
aS'cl de'
p9
aS'cr\xc3\xa8me de fruit de la passion'
p10
aa(lp11
S'0.5'
p12
aS'cl de'
p13
aS'safari'
p14
aa(lp15
S'0.5'
p16
aS'cl de'
p17
aS'sirop de framboises'
p18
aa(lp19
S'None'
p20
aS'None'
p21
aS'limonade (soda, sprite, 7up)'
p22
aaa.