(lp0
S'Hannibal'
p1
aF3.8
aI4
a(lp2
(lp3
S'3.0'
p4
aS'None'
p5
aS"zestes d'oranges"
p6
aa(lp7
S'10.0'
p8
aS'cl de'
p9
aS"jus d'ananas"
p10
aa(lp11
S'3.0'
p12
aS'cl de'
p13
aS'vodka'
p14
aa(lp15
S'3.0'
p16
aS'cl de'
p17
aS'licor 43'
p18
aa(lp19
S'2.0'
p20
aS'cl de'
p21
aS'triple sec (cointreau, grand marnier)'
p22
aa(lp23
S'1.5'
p24
aS'cl de'
p25
aS'jus de citrons'
p26
aaa.