(lp0
S'Desir Noir'
p1
aF3.5
aI2
a(lp2
(lp3
S'4.0'
p4
aS"cl d'"
p5
aS'armagnac'
p6
aa(lp7
S'2.0'
p8
aS'cl de'
p9
aS'triple sec (cointreau, grand marnier)'
p10
aa(lp11
S'1.0'
p12
aS'cl de'
p13
aS'liqueur de cacao brun'
p14
aaa.