(lp0
S'Sweet heart'
p1
aF3.0
aI1
a(lp2
(lp3
S'0.285714285714'
p4
aS'volumes de'
p5
aS'parfait amour'
p6
aa(lp7
S'0.214285714286'
p8
aS'volumes de'
p9
aS'amaretto'
p10
aa(lp11
S'0.214285714286'
p12
aS'volumes de'
p13
aS'sirop de vanille'
p14
aa(lp15
S'0.214285714286'
p16
aS'volumes de'
p17
aS'cr\xc3\xa8me fra\xc3\xaeche liquide'
p18
aa(lp19
S'0.0714285714286'
p20
aS'volumes de'
p21
aS'triple sec (cointreau, grand marnier)'
p22
aaa.