(lp0
S"Liqueur d'ang\xc3\xa9lique"
p1
aF3.2
aI83
a(lp2
(lp3
S'30.0'
p4
aS"grammes de tiges d'"
p5
aS'ang\xc3\xa9lique'
p6
aa(lp7
S'25.0'
p8
aS'grammes de'
p9
aS'sucre'
p10
aa(lp11
S'0.05'
p12
aS'cuill\xc3\xa8re \xc3\xa0 caf\xc3\xa9 de'
p13
aS'cannelle'
p14
aa(lp15
S'0.4'
p16
aS'None'
p17
aS'clous de girofle'
p18
aa(lp19
S'None'
p20
aS'quelques pinc\xc3\xa9es de'
p21
aS'noix de muscade r\xc3\xa2p\xc3\xa9e'
p22
aa(lp23
S'0.1'
p24
aS"litre d'"
p25
aS'alcool \xc3\xa0 45\xc2\xb0'
p26
aaa.