(lp0
S'Air france 2'
p1
aF3.3
aI49
a(lp2
(lp3
S'3.0'
p4
aS'cl de'
p5
aS'vodka'
p6
aa(lp7
S'2.0'
p8
aS'cl de'
p9
aS'jus de pamplemousses'
p10
aa(lp11
S'2.0'
p12
aS'cl de'
p13
aS'cura\xc3\xa7ao bleu'
p14
aa(lp15
S'2.0'
p16
aS'cl de'
p17
aS'sirop de grenadine'
p18
aaa.