(lp0
S'Tobago Tea Time'
p1
aF2.8
aI4
a(lp2
(lp3
S'6.0'
p4
aS'cl de'
p5
aS'rhum blanc'
p6
aa(lp7
S'1.0'
p8
aS'sachet de'
p9
aS'th\xc3\xa9 \xc3\xa0 la bergamote'
p10
aa(lp11
S'1.5'
p12
aS'cl de'
p13
aS'liqueur de bananes (pisang ambon)'
p14
aa(lp15
S'2.0'
p16
aS"traits d'"
p17
aS'angostura orange bitters'
p18
aa(lp19
S'None'
p20
aS'None'
p21
aS'limonade (soda, sprite, 7up)'
p22
aaa.