(lp0
S'Strawberry daiquiri'
p1
aF3.5
aI81
a(lp2
(lp3
S'1.0'
p4
aS'mesure de'
p5
aS'rhum blanc'
p6
aa(lp7
S'0.5'
p8
aS'mesure de'
p9
aS'cr\xc3\xa8me de fraises'
p10
aa(lp11
S'0.5'
p12
aS'mesure de'
p13
aS'jus de citrons'
p14
aa(lp15
S'4.0'
p16
aS'None'
p17
aS'fraises'
p18
aaa.