(lp0
S'Mexico'
p1
aF2.0
aI1
a(lp2
(lp3
S'4.0'
p4
aS'cl de'
p5
aS'liqueur de fraises'
p6
aa(lp7
S'2.0'
p8
aS'cl de'
p9
aS'gin'
p10
aa(lp11
S'0.5'
p12
aS'cl de'
p13
aS'triple sec (cointreau, grand marnier)'
p14
aa(lp15
S'0.5'
p16
aS'cl de'
p17
aS'cr\xc3\xa8me fra\xc3\xaeche liquide'
p18
aaa.