(lp0
S'Supr\xc3\xaame Tom BBC'
p1
aF3.4
aI8
a(lp2
(lp3
S'5.0'
p4
aS'cl de'
p5
aS'lait de coco'
p6
aa(lp7
S'5.0'
p8
aS'cl de'
p9
aS'cr\xc3\xa8me de whisky (baileys)'
p10
aa(lp11
S'0.5'
p12
aS'None'
p13
aS'banane'
p14
aaa.