(lp0
S'Morita'
p1
aF2.7
aI65
a(lp2
(lp3
S'3.0'
p4
aS'cl de'
p5
aS'vodka'
p6
aa(lp7
S'2.0'
p8
aS'cl de'
p9
aS'jus de cranberry (canneberges)'
p10
aa(lp11
S'1.0'
p12
aS'cl de'
p13
aS'sirop de fraises'
p14
aa(lp15
S'4.0'
p16
aS'feuilles de'
p17
aS'basilic'
p18
aa(lp19
S'1.0'
p20
aS'petit morceau de'
p21
aS'gingembre'
p22
aa(lp23
S'None'
p24
aS'None'
p25
aS'eau gazeuse (perrier, salvetat)'
p26
aaa.