(lp0
S'Twiste'
p1
aF2.0
aI2
a(lp2
(lp3
S'2.0'
p4
aS'trait de'
p5
aS'cr\xc3\xa8me de bananes'
p6
aa(lp7
S'2.0'
p8
aS'trait de'
p9
aS'liqueur de cacao brun'
p10
aa(lp11
S'6.0'
p12
aS'cl de'
p13
aS'vodka'
p14
aaa.