(lp0
S'Sirop de barbe \xc3\xa0 papa'
p1
aF3.4
aI34
a(lp2
(lp3
S'50.0'
p4
aS'grammes de'
p5
aS'sucre'
p6
aa(lp7
S'2.0'
p8
aS"cl d'"
p9
aS'eau'
p10
aa(lp11
S'2.0'
p12
aS'cl de'
p13
aS'sirop de fraises'
p14
aa(lp15
S'0.1'
p16
aS'sachet de'
p17
aS'sucre vanille'
p18
aaa.