(lp0
S'Nympho'
p1
aF2.5
aI13
a(lp2
(lp3
S'None'
p4
aS'None'
p5
aS'champagne'
p6
aa(lp7
S'2.5'
p8
aS'cl de'
p9
aS'cognac'
p10
aa(lp11
S'0.5'
p12
aS'cl de'
p13
aS'anisette (berger blanc)'
p14
aa(lp15
S'0.5'
p16
aS'cl de'
p17
aS'amaretto'
p18
aa(lp19
S'2.0'
p20
aS'cl de'
p21
aS'nectar de p\xc3\xaaches'
p22
aaa.