(lp0
S'Aphrodite'
p1
aF3.2
aI75
a(lp2
(lp3
S'5.0'
p4
aS'cl de'
p5
aS'vin ros\xc3\xa9'
p6
aa(lp7
S'2.0'
p8
aS'cl de'
p9
aS'cr\xc3\xa8me de framboise'
p10
aa(lp11
S'2.0'
p12
aS'cl de'
p13
aS'triple sec (cointreau, grand marnier)'
p14
aa(lp15
S'None'
p16
aS"le jus d'un"
p17
aS'citrons verts'
p18
aaa.