(lp0
S'Beir\xc3\xa3o Ardente'
p1
aF3.7
aI10
a(lp2
(lp3
S'3.0'
p4
aS'cl de'
p5
aS'absinthe'
p6
aa(lp7
S'3.0'
p8
aS'cl de'
p9
aS'cr\xc3\xa8me de whisky (baileys)'
p10
aa(lp11
S'3.0'
p12
aS'cl de'
p13
aS'licor beir\xc3\xa3o'
p14
aaa.