(lp0
S'Probably'
p1
aF2.3
aI3
a(lp2
(lp3
S'None'
p4
aS"jus d'1/2"
p5
aS'citrons'
p6
aa(lp7
S'2.0'
p8
aS'cl de'
p9
aS'vodka'
p10
aa(lp11
S'3.0'
p12
aS'cl de'
p13
aS"jus d'abricots"
p14
aa(lp15
S'1.5'
p16
aS'cl de'
p17
aS'b\xc3\xa9n\xc3\xa9dictine'
p18
aaa.