(lp0
S'Bodega dream'
p1
aF3.0
aI3
a(lp2
(lp3
S'2.0'
p4
aS'cl de'
p5
aS'rhum blanc'
p6
aa(lp7
S'1.0'
p8
aS'cl de'
p9
aS'liqueur de coco (cocogif, malibu)'
p10
aa(lp11
S'1.0'
p12
aS'cl de'
p13
aS'sirop de p\xc3\xaache'
p14
aa(lp15
S'1.0'
p16
aS'trait de'
p17
aS'citrons'
p18
aaa.