(lp0
S'Chocolat piment'
p1
aF3.9
aI22
a(lp2
(lp3
S'75.0'
p4
aS'grammes de'
p5
aS'chocolat noir'
p6
aa(lp7
S'1.0'
p8
aS'None'
p9
aS'piments rouges'
p10
aa(lp11
S'0.25'
p12
aS'gousse de'
p13
aS'vanille'
p14
aa(lp15
S'18.75'
p16
aS'cl de'
p17
aS'lait'
p18
aa(lp19
S'6.25'
p20
aS"cl d'"
p21
aS'eau'
p22
aa(lp23
S'0.25'
p24
aS'b\xc3\xa2ton de'
p25
aS'cannelle'
p26
aa(lp27
S'0.5'
p28
aS'cuill\xc3\xa8res \xc3\xa0 soupe de'
p29
aS'sirop de miel'
p30
aaa.