(lp0
S'Liqueur de g\xc3\xa9n\xc3\xa9pi'
p1
aF3.1
aI57
a(lp2
(lp3
S'4.0'
p4
aS'brins de'
p5
aS'g\xc3\xa9n\xc3\xa9pi'
p6
aa(lp7
S'4.0'
p8
aS'morceaux de'
p9
aS'sucre'
p10
aa(lp11
S'0.1'
p12
aS"litre d'"
p13
aS'alcool de fruits'
p14
aaa.