(lp0
S'Bloody Love Sensation'
p1
aF3.7
aI15
a(lp2
(lp3
S'3.3'
p4
aS'cl de'
p5
aS'liqueur de fruits rouges'
p6
aa(lp7
S'1.7'
p8
aS'cl de'
p9
aS'vodka'
p10
aa(lp11
S'3.3'
p12
aS'cl de'
p13
aS'jus de fraises'
p14
aa(lp15
S'3.3'
p16
aS'cl de'
p17
aS'jus de framboises'
p18
aa(lp19
S'3.3'
p20
aS'cl de'
p21
aS'jus de cranberry (canneberges)'
p22
aaa.