(lp0
S'Tipsy goyave'
p1
aF2.5
aI2
a(lp2
(lp3
S'20.0'
p4
aS'cl de'
p5
aS'jus de goyaves'
p6
aa(lp7
S'2.0'
p8
aS'cl de'
p9
aS'sirop de cassis'
p10
aa(lp11
S'1.0'
p12
aS'cl de'
p13
aS'jus de citrons verts'
p14
aa(lp15
S'5.0'
p16
aS"traits d'"
p17
aS'extrait de rhum'
p18
aaa.