(lp0
S'Victoria'
p1
aF4.0
aI2
a(lp2
(lp3
S'0.5'
p4
aS'cl de'
p5
aS'sirop de grenadine'
p6
aa(lp7
S'2.0'
p8
aS'cl de'
p9
aS'gin'
p10
aa(lp11
S'1.0'
p12
aS'cl de'
p13
aS'liqueur mandarine napol\xc3\xa9on'
p14
aa(lp15
S'2.0'
p16
aS'cl de'
p17
aS'vermouth blanc (martini, cinzano)'
p18
aaa.