(lp0
S'Tiki Falernum Exotique'
p1
aF4.5
aI2
a(lp2
(lp3
S'2.0'
p4
aS'cl de'
p5
aS'sirop de falernum'
p6
aa(lp7
S'4.5'
p8
aS'cl de'
p9
aS'rhum brun'
p10
aa(lp11
S'6.0'
p12
aS'cl de'
p13
aS'jus de fruit de la passion (maracuja)'
p14
aa(lp15
S'4.0'
p16
aS'cl de'
p17
aS'jus de goyaves'
p18
aa(lp19
S'3.0'
p20
aS'traits de'
p21
aS'angostura orange bitters'
p22
aaa.