(lp0
S'Italiano sp\xc3\xa9cialiti'
p1
aF3.3
aI4
a(lp2
(lp3
S'8.0'
p4
aS'cl de'
p5
aS"jus d'ananas"
p6
aa(lp7
S'3.0'
p8
aS'cl de'
p9
aS'jus de tomates'
p10
aa(lp11
S'None'
p12
aS'de la'
p13
aS'limonade (soda, sprite, 7up)'
p14
aaa.